libceph-common.so.2 librados2 #MINVER#
 MDS_GID_NONE@Base 12.0.3
 XXH32@Base 12.0.3
 XXH32_canonicalFromHash@Base 12.0.3
 XXH32_createState@Base 12.0.3
 XXH32_digest@Base 12.0.3
 XXH32_freeState@Base 12.0.3
 XXH32_hashFromCanonical@Base 12.0.3
 XXH32_reset@Base 12.0.3
 XXH32_update@Base 12.0.3
 XXH64@Base 12.0.3
 XXH64_canonicalFromHash@Base 12.0.3
 XXH64_createState@Base 12.0.3
 XXH64_digest@Base 12.0.3
 XXH64_freeState@Base 12.0.3
 XXH64_hashFromCanonical@Base 12.0.3
 XXH64_reset@Base 12.0.3
 XXH64_update@Base 12.0.3
 XXH_versionNumber@Base 12.0.3
 _Z10env_to_vecRSt6vectorIPKcSaIS1_EES1_@Base 12.0.3
 _Z10get_quantslN19PerfHistogramCommon12scale_type_dE@Base 12.0.3
 _Z10percentifyB5cxx11RKf@Base 12.0.3
 _Z10pick_ifaceB5cxx11PN4ceph6common11CephContextERK16sockaddr_storage@Base 12.0.3
 _Z10url_escapeRKNSt7__cxx1112basic_stringIcSt11char_traitsIcESaIcEEE@Base 12.0.3
 _Z11argv_to_veciPPKcRSt6vectorIS0_SaIS0_EE@Base 12.0.3
 _Z11ccap_stringB5cxx11i@Base 12.0.3
 _Z11ceph_gettidv@Base 12.0.3
 _Z11encode_jsonPKcRK15JSONFormattablePN4ceph9FormatterE@Base 12.0.3
 _Z11encode_jsonPKcRK7utime_tPN4ceph9FormatterE@Base 12.0.3
 _Z11encode_jsonPKcRKN4ceph6buffer7v15_2_04listEPNS1_9FormatterE@Base 12.0.3
 _Z11encode_jsonPKcRKN7JSONObj8data_valEPN4ceph9FormatterE@Base 12.0.3
 _Z11encode_jsonPKcRKNSt7__cxx1112basic_stringIcSt11char_traitsIcESaIcEEEPN4ceph9FormatterE@Base 12.0.3
 _Z11encode_jsonPKcS0_PN4ceph9FormatterE@Base 12.0.3
 _Z11encode_jsonPKcbPN4ceph9FormatterE@Base 12.0.3
 _Z11encode_jsonPKciPN4ceph9FormatterE@Base 12.0.3
 _Z11encode_jsonPKcjPN4ceph9FormatterE@Base 12.0.3
 _Z11encode_jsonPKclPN4ceph9FormatterE@Base 12.0.3
 _Z11encode_jsonPKcmPN4ceph9FormatterE@Base 12.0.3
 _Z11encode_jsonPKcxPN4ceph9FormatterE@Base 12.0.3
 _Z11encode_jsonPKcyPN4ceph9FormatterE@Base 12.0.3
 _Z11gcap_stringB5cxx11i@Base 12.0.3
 _Z11get_env_intPKc@Base 12.0.3
 _Z11get_str_mapRKNSt7__cxx1112basic_stringIcSt11char_traitsIcESaIcEEEPSt3mapIS4_S4_St4lessIS4_ESaISt4pairIS5_S4_EEEPKc@Base 12.0.3
 _Z11get_str_setRKNSt7__cxx1112basic_stringIcSt11char_traitsIcESaIcEEEPKc@Base 12.0.3
 _Z11get_str_setRKNSt7__cxx1112basic_stringIcSt11char_traitsIcESaIcEEEPKcRSt3setIS4_St4lessIS4_ESaIS4_EE@Base 12.0.3
 _Z11get_str_setRKNSt7__cxx1112basic_stringIcSt11char_traitsIcESaIcEEERSt3setIS4_St4lessIS4_ESaIS4_EE@Base 12.0.3
 _Z11get_str_vecRKNSt7__cxx1112basic_stringIcSt11char_traitsIcESaIcEEEPKc@Base 12.0.3
 _Z11get_str_vecRKNSt7__cxx1112basic_stringIcSt11char_traitsIcESaIcEEEPKcRSt6vectorIS4_SaIS4_EE@Base 12.0.3
 _Z11get_str_vecRKNSt7__cxx1112basic_stringIcSt11char_traitsIcESaIcEEERSt6vectorIS4_SaIS4_EE@Base 12.0.3
 _Z11vec_to_argvPKcRSt6vectorIS0_SaIS0_EEPiPPS0_@Base 12.0.3
 _Z12ceph_releasev@Base 12.0.3
 _Z12cpp_strerrorB5cxx11i@Base 12.0.3
 _Z12dump_bit_strmPN4ceph9FormatterERKSt8functionIFPKcmEEb@Base 12.0.3
 _Z12get_env_boolPKc@Base 12.0.3
 _Z12get_fs_statsR15ceph_data_statsPKc@Base 12.0.3
 _Z12get_str_listRKNSt7__cxx1112basic_stringIcSt11char_traitsIcESaIcEEEPKc@Base 12.0.3
 _Z12get_str_listRKNSt7__cxx1112basic_stringIcSt11char_traitsIcESaIcEEEPKcRNS_4listIS4_SaIS4_EEE@Base 12.0.3
 _Z12get_str_listRKNSt7__cxx1112basic_stringIcSt11char_traitsIcESaIcEEERNS_4listIS4_SaIS4_EEE@Base 12.0.3
 _Z12get_vdo_statiPKc@Base 12.0.3
 _Z12netmask_ipv4PK7in_addrjPS_@Base 12.0.3
 _Z12netmask_ipv6PK8in6_addrjPS_@Base 12.0.3
 _Z12pipe_cloexecPii@Base 12.0.3
 _Z12url_unescapeRKNSt7__cxx1112basic_stringIcSt11char_traitsIcESaIcEEE@Base 12.0.3
 _Z13block_signalsPKiP10__sigset_t@Base 12.0.3
 _Z13ceph_str_hashiPKcj@Base 12.0.3
 _Z13dump_open_fdsPN4ceph6common11CephContextE@Base 12.0.3
 _Z13dump_servicesPN4ceph9FormatterERKSt3mapINSt7__cxx1112basic_stringIcSt11char_traitsIcESaIcEEENS3_4listIS8_SaIS8_EEESt4lessIS8_ESaISt4pairIKS8_SB_EEEPKc@Base 12.0.3
 _Z13dump_servicesPN4ceph9FormatterERKSt3mapINSt7__cxx1112basic_stringIcSt11char_traitsIcESaIcEEENS3_4listIiSaIiEEESt4lessIS8_ESaISt4pairIKS8_SB_EEEPKc@Base 12.0.3
 _Z13get_device_idRKNSt7__cxx1112basic_stringIcSt11char_traitsIcESaIcEEEPS4_@Base 12.0.3
 _Z13parse_networkPKcP13entity_addr_tPj@Base 12.0.3
 _Z13parse_networkPKcP16sockaddr_storagePj@Base 12.0.3
 _Z13print_bit_strmRSoRKSt8functionIFPKcmEEb@Base 12.0.3
 _Z13strict_strtodPKcPNSt7__cxx1112basic_stringIcSt11char_traitsIcESaIcEEE@Base 12.0.3
 _Z13strict_strtodSt17basic_string_viewIcSt11char_traitsIcEEPNSt7__cxx1112basic_stringIcS1_SaIcEEE@Base 12.0.3
 _Z13strict_strtofPKcPNSt7__cxx1112basic_stringIcSt11char_traitsIcESaIcEEE@Base 12.0.3
 _Z13strict_strtofSt17basic_string_viewIcSt11char_traitsIcEEPNSt7__cxx1112basic_stringIcS1_SaIcEEE@Base 12.0.3
 _Z13strict_strtolPKciPNSt7__cxx1112basic_stringIcSt11char_traitsIcESaIcEEE@Base 12.0.3
 _Z13strict_strtolSt17basic_string_viewIcSt11char_traitsIcEEiPNSt7__cxx1112basic_stringIcS1_SaIcEEE@Base 12.0.3
 _Z13string_to_vecRSt6vectorINSt7__cxx1112basic_stringIcSt11char_traitsIcESaIcEEESaIS5_EES5_@Base 12.0.3
 _Z14accept_cloexeciP8sockaddrPj@Base 12.0.3
 _Z14common_preinitRK18CephInitParameters18code_environment_ti@Base 12.0.3
 _Z14cpu_set_to_setmPK9cpu_set_t@Base 12.0.3
 _Z14decode_decryptI14CephXAuthorizeEiPN4ceph6common11CephContextERT_RK9CryptoKeyRNS1_6buffer7v15_2_04list13iterator_implILb1EEERNSt7__cxx1112basic_stringIcSt11char_traitsIcESaIcEEE@Base 12.0.3
 _Z14decode_decryptI15RotatingSecretsEiPN4ceph6common11CephContextERT_RK9CryptoKeyRNS1_6buffer7v15_2_04list13iterator_implILb1EEERNSt7__cxx1112basic_stringIcSt11char_traitsIcESaIcEEE@Base 12.0.3
 _Z14decode_decryptI18CephXServiceTicketEiPN4ceph6common11CephContextERT_RK9CryptoKeyRNS1_6buffer7v15_2_04list13iterator_implILb1EEERNSt7__cxx1112basic_stringIcSt11char_traitsIcESaIcEEE@Base 12.0.3
 _Z14decode_decryptI19CephXAuthorizeReplyEiPN4ceph6common11CephContextERT_RK9CryptoKeyRNS1_6buffer7v15_2_04list13iterator_implILb1EEERNSt7__cxx1112basic_stringIcSt11char_traitsIcESaIcEEE@Base 12.0.3
 _Z14decode_decryptIN4ceph6buffer7v15_2_04listEEiPNS0_6common11CephContextERT_RK9CryptoKeyRNS3_13iterator_implILb1EEERNSt7__cxx1112basic_stringIcSt11char_traitsIcESaIcEEE@Base 12.0.3
 _Z14decode_decryptINSt7__cxx1112basic_stringIcSt11char_traitsIcESaIcEEEEiPN4ceph6common11CephContextERT_RK9CryptoKeyRNS6_6buffer7v15_2_04list13iterator_implILb1EEERS5_@Base 12.0.3
 _Z14decode_messagePN4ceph6common11CephContextEiR15ceph_msg_headerR15ceph_msg_footerRNS_6buffer7v15_2_04listESA_SA_N5boost13intrusive_ptrI10ConnectionEE@Base 12.0.3
 _Z14decode_messagePN4ceph6common11CephContextEiRNS_6buffer7v15_2_04list13iterator_implILb1EEE@Base 12.0.3
 _Z14dout_emergencyPKc@Base 12.0.3
 _Z14dout_emergencyRKNSt7__cxx1112basic_stringIcSt11char_traitsIcESaIcEEE@Base 12.0.3
 _Z14encode_encryptI14CephXAuthorizeEiPN4ceph6common11CephContextERKT_RK9CryptoKeyRNS1_6buffer7v15_2_04listERNSt7__cxx1112basic_stringIcSt11char_traitsIcESaIcEEE@Base 12.0.3
 _Z14encode_messageP7MessagemRN4ceph6buffer7v15_2_04listE@Base 12.0.3
 _Z14get_dm_parentsRKNSt7__cxx1112basic_stringIcSt11char_traitsIcESaIcEEEPSt3setIS4_St4lessIS4_ESaIS4_EE@Base 12.0.3
 _Z14init_pg_ondiskRN4ceph2os11TransactionE5spg_tPK9pg_pool_t@Base 12.0.3
 _Z14lockdep_lockedPKcib@Base 12.0.3
 _Z14pick_addressesPN4ceph6common11CephContextEi@Base 12.0.3
 _Z14pick_addressesPN4ceph6common11CephContextEjP16entity_addrvec_ti@Base 12.0.3
 _Z14pick_addressesPN4ceph6common11CephContextEjP7ifaddrsP16entity_addrvec_ti@Base 12.0.3
 _Z14restore_sigsetPK10__sigset_t@Base 12.0.3
 _Z14socket_cloexeciii@Base 12.0.3
 _Z14split_dashdashRKSt6vectorIPKcSaIS1_EE@Base 12.0.3
 _Z14strict_si_castIiET_PKcPNSt7__cxx1112basic_stringIcSt11char_traitsIcESaIcEEE@Base 12.0.3
 _Z14strict_si_castIiET_St17basic_string_viewIcSt11char_traitsIcEEPNSt7__cxx1112basic_stringIcS3_SaIcEEE@Base 12.0.3
 _Z14strict_si_castIjET_PKcPNSt7__cxx1112basic_stringIcSt11char_traitsIcESaIcEEE@Base 12.0.3
 _Z14strict_si_castIjET_St17basic_string_viewIcSt11char_traitsIcEEPNSt7__cxx1112basic_stringIcS3_SaIcEEE@Base 12.0.3
 _Z14strict_si_castIlET_PKcPNSt7__cxx1112basic_stringIcSt11char_traitsIcESaIcEEE@Base 12.0.3
 _Z14strict_si_castIlET_St17basic_string_viewIcSt11char_traitsIcEEPNSt7__cxx1112basic_stringIcS3_SaIcEEE@Base 12.0.3
 _Z14strict_si_castImET_PKcPNSt7__cxx1112basic_stringIcSt11char_traitsIcESaIcEEE@Base 12.0.3
 _Z14strict_si_castImET_St17basic_string_viewIcSt11char_traitsIcEEPNSt7__cxx1112basic_stringIcS3_SaIcEEE@Base 12.0.3
 _Z14strict_si_castIxET_PKcPNSt7__cxx1112basic_stringIcSt11char_traitsIcESaIcEEE@Base 12.0.3
 _Z14strict_si_castIxET_St17basic_string_viewIcSt11char_traitsIcEEPNSt7__cxx1112basic_stringIcS3_SaIcEEE@Base 12.0.3
 _Z14strict_strtollPKciPNSt7__cxx1112basic_stringIcSt11char_traitsIcESaIcEEE@Base 12.0.3
 _Z14strict_strtollSt17basic_string_viewIcSt11char_traitsIcEEiPNSt7__cxx1112basic_stringIcS1_SaIcEEE@Base 12.0.3
 _Z15clear_g_str_vecv@Base 12.0.3
 _Z15decode_json_objI15JSONFormattableEvRSt6vectorIT_SaIS2_EEP7JSONObj@Base 12.0.3
 _Z15decode_json_objR7utime_tP7JSONObj@Base 12.0.3
 _Z15decode_json_objRN4ceph6buffer7v15_2_04listEP7JSONObj@Base 12.0.3
 _Z15decode_json_objRbP7JSONObj@Base 12.0.3
 _Z15decode_json_objRiP7JSONObj@Base 12.0.3
 _Z15decode_json_objRjP7JSONObj@Base 12.0.3
 _Z15decode_json_objRlP7JSONObj@Base 12.0.3
 _Z15decode_json_objRmP7JSONObj@Base 12.0.3
 _Z15decode_json_objRxP7JSONObj@Base 12.0.3
 _Z15decode_json_objRyP7JSONObj@Base 12.0.3
 _Z15escape_xml_attrPKcPc@Base 12.0.3
 _Z15gen_rand_base64PN4ceph6common11CephContextEPcm@Base 12.0.3
 _Z15get_device_pathRKNSt7__cxx1112basic_stringIcSt11char_traitsIcESaIcEEEPS4_@Base 12.0.3
 _Z15get_mds_optionsv@Base 12.0.3
 _Z15get_raw_devicesRKNSt7__cxx1112basic_stringIcSt11char_traitsIcESaIcEEEPSt3setIS4_St4lessIS4_ESaIS4_EE@Base 12.0.3
 _Z15get_rgw_optionsv@Base 12.0.3
 _Z15get_str_map_keyRKSt3mapINSt7__cxx1112basic_stringIcSt11char_traitsIcESaIcEEES5_St4lessIS5_ESaISt4pairIKS5_S5_EEERS9_PS9_@Base 12.0.3
 _Z15get_thread_nameB5cxx11RKSt6thread@Base 12.0.3
 _Z15have_local_addrPN4ceph6common11CephContextERKNSt7__cxx114listI13entity_addr_tSaIS5_EEEPS5_@Base 12.0.3
 _Z15pg_state_stringB5cxx11m@Base 12.0.3
 _Z15pg_string_stateRKNSt7__cxx1112basic_stringIcSt11char_traitsIcESaIcEEE@Base 12.0.3
 _Z15set_thread_nameRSt6threadRKNSt7__cxx1112basic_stringIcSt11char_traitsIcESaIcEEE@Base 12.0.3
 _Z15strict_iec_castIiET_PKcPNSt7__cxx1112basic_stringIcSt11char_traitsIcESaIcEEE@Base 12.0.3
 _Z15strict_iec_castIiET_St17basic_string_viewIcSt11char_traitsIcEEPNSt7__cxx1112basic_stringIcS3_SaIcEEE@Base 12.0.3
 _Z15strict_iec_castIjET_PKcPNSt7__cxx1112basic_stringIcSt11char_traitsIcESaIcEEE@Base 12.0.3
 _Z15strict_iec_castIjET_St17basic_string_viewIcSt11char_traitsIcEEPNSt7__cxx1112basic_stringIcS3_SaIcEEE@Base 12.0.3
 _Z15strict_iec_castIlET_PKcPNSt7__cxx1112basic_stringIcSt11char_traitsIcESaIcEEE@Base 12.0.3
 _Z15strict_iec_castIlET_St17basic_string_viewIcSt11char_traitsIcEEPNSt7__cxx1112basic_stringIcS3_SaIcEEE@Base 12.0.3
 _Z15strict_iec_castImET_PKcPNSt7__cxx1112basic_stringIcSt11char_traitsIcESaIcEEE@Base 12.0.3
 _Z15strict_iec_castImET_St17basic_string_viewIcSt11char_traitsIcEEPNSt7__cxx1112basic_stringIcS3_SaIcEEE@Base 12.0.3
 _Z15strict_iec_castIxET_PKcPNSt7__cxx1112basic_stringIcSt11char_traitsIcESaIcEEE@Base 12.0.3
 _Z15strict_iec_castIxET_St17basic_string_viewIcSt11char_traitsIcEEPNSt7__cxx1112basic_stringIcS3_SaIcEEE@Base 12.0.3
 _Z16can_upgrade_from14ceph_release_tSt17basic_string_viewIcSt11char_traitsIcEERSo@Base 12.0.3
 _Z16ceph_cap_op_namei@Base 12.0.3
 _Z16ceph_mds_op_namei@Base 12.0.3
 _Z16ceph_osd_op_namei@Base 12.0.3
 _Z16collect_sys_infoPSt3mapINSt7__cxx1112basic_stringIcSt11char_traitsIcESaIcEEES5_St4lessIS5_ESaISt4pairIKS5_S5_EEEPN4ceph6common11CephContextE@Base 12.0.3
 _Z16escape_json_attrPKcmPc@Base 12.0.3
 _Z16get_json_str_mapRKNSt7__cxx1112basic_stringIcSt11char_traitsIcESaIcEEERSoPSt3mapIS4_S4_St4lessIS4_ESaISt4pairIS5_S4_EEEb@Base 12.0.3
 _Z16lockdep_registerPKc@Base 12.0.3
 _Z16manual_fallocateill@Base 12.0.3
 _Z16network_containsRK13entity_addr_tjS1_@Base 12.0.3
 _Z16pg_vector_stringB5cxx11RKSt6vectorIiSaIiEE@Base 12.0.3
 _Z16strict_sistrtollPKcPNSt7__cxx1112basic_stringIcSt11char_traitsIcESaIcEEE@Base 12.0.3
 _Z16strict_sistrtollSt17basic_string_viewIcSt11char_traitsIcEEPNSt7__cxx1112basic_stringIcS1_SaIcEEE@Base 12.0.3
 _Z16weighted_shuffleIN9__gnu_cxx17__normal_iteratorIPjSt6vectorIjSaIjEEEENS1_IPtS3_ItSaItEEEESt23mersenne_twister_engineImLm32ELm624ELm397ELm31ELm2567483615ELm11ELm4294967295ELm7ELm2636928640ELm15ELm4022730752ELm18ELm1812433253EEEvT_SD_T0_SE_OT1_@Base 12.0.3
 _Z17_decode_model_encRKNSt7__cxx1112basic_stringIcSt11char_traitsIcESaIcEEE@Base 12.0.3
 _Z17ceph_frag_comparejj@Base 12.0.3
 _Z17ceph_get_hostnameB5cxx11v@Base 12.0.3
 _Z17ceph_pool_op_namei@Base 12.0.3
 _Z17ceph_release_namei@Base 12.0.3
 _Z17ceph_release_typev@Base 12.0.3
 _Z17ceph_snap_op_namei@Base 12.0.3
 _Z17find_ip_in_subnetPK7ifaddrsPK8sockaddrji@Base 12.0.3
 _Z17get_str_map_valueRKSt3mapINSt7__cxx1112basic_stringIcSt11char_traitsIcESaIcEEES5_St4lessIS5_ESaISt4pairIKS5_S5_EEERS9_PS9_@Base 12.0.3
 _Z17lockdep_will_lockPKcibb@Base 12.0.3
 _Z17make_named_threadIM11AdminSocketDoFvvEJPS0_EESt6threadSt17basic_string_viewIcSt11char_traitsIcEEOT_DpOT0_@Base 12.0.3
 _Z17parse_ip_port_vecPKcRSt6vectorI16entity_addrvec_tSaIS2_EEi@Base 12.0.3
 _Z17strict_iecstrtollPKcPNSt7__cxx1112basic_stringIcSt11char_traitsIcESaIcEEE@Base 12.0.3
 _Z17strict_iecstrtollSt17basic_string_viewIcSt11char_traitsIcEEPNSt7__cxx1112basic_stringIcS1_SaIcEEE@Base 12.0.3
 _Z18ceph_argparse_flagRSt6vectorIPKcSaIS1_EERN9__gnu_cxx17__normal_iteratorIPS1_S3_EEz@Base 12.0.3
 _Z18ceph_caps_for_modei@Base 12.0.3
 _Z18ceph_con_mode_namei@Base 12.0.3
 _Z18ceph_flags_to_modei@Base 12.0.3
 _Z18ceph_lease_op_namei@Base 12.0.3
 _Z18ceph_osd_flag_namej@Base 12.0.3
 _Z18ceph_str_hash_namei@Base 12.0.3
 _Z18common_init_finishPN4ceph6common11CephContextE@Base 12.0.3
 _Z18create_turbo_tablePA32_j@Base 12.0.3
 _Z18get_device_by_pathPKcPcS1_m@Base 12.0.3
 _Z18get_global_optionsv@Base 12.0.3
 _Z18git_version_to_strv@Base 12.0.3
 _Z18lockdep_dump_locksv@Base 12.0.3
 _Z18lockdep_unregisteri@Base 12.0.3
 _Z18parse_cpu_set_listPKcPmP9cpu_set_t@Base 12.0.3
 _Z18signal_mask_to_strB5cxx11v@Base 12.0.3
 _Z18socketpair_cloexeciiiPi@Base 12.0.3
 _Z18timeout_sighandleri@Base 12.0.3
 _Z19ceph_arg_value_typePKcPbS1_@Base 12.0.3
 _Z19ceph_flags_sys2wirei@Base 12.0.3
 _Z19ceph_mds_state_namei@Base 12.0.3
 _Z19ceph_osd_state_namei@Base 12.0.3
 _Z19ceph_release_to_strv@Base 12.0.3
 _Z19ceph_str_hash_linuxPKcj@Base 12.0.3
 _Z19ceph_str_hash_validi@Base 12.0.3
 _Z19ceph_version_to_strv@Base 12.0.3
 _Z19cephx_decode_ticketPN4ceph6common11CephContextEP8KeyStorejR15CephXTicketBlobR22CephXServiceTicketInfo@Base 12.0.3
 _Z19clog_type_to_stringB5cxx119clog_type@Base 12.0.3
 _Z19cpu_set_to_str_listB5cxx11mPK9cpu_set_t@Base 12.0.3
 _Z19escape_xml_attr_lenPKc@Base 12.0.3
 _Z19find_ipv4_in_subnetPK7ifaddrsPK11sockaddr_inji@Base 12.0.3
 _Z19find_ipv6_in_subnetPK7ifaddrsPK12sockaddr_in6ji@Base 12.0.3
 _Z19get_device_metadataRKSt3setINSt7__cxx1112basic_stringIcSt11char_traitsIcESaIcEEESt4lessIS5_ESaIS5_EEPSt3mapIS5_S5_S7_SaISt4pairIKS5_S5_EEESI_@Base 12.0.3
 _Z19get_iface_numa_nodeRKNSt7__cxx1112basic_stringIcSt11char_traitsIcESaIcEEEPi@Base 12.0.3
 _Z19get_vdo_utilizationiPmS_@Base 12.0.3
 _Z19lockdep_get_free_idv@Base 12.0.3
 _Z19lockdep_will_unlockPKci@Base 12.0.3
 _Z19prepare_info_keymapPN4ceph6common11CephContextEPSt3mapINSt7__cxx1112basic_stringIcSt11char_traitsIcESaIcEEENS_6buffer7v15_2_04listESt4lessIS9_ESaISt4pairIKS9_SC_EEEPS9_jR9pg_info_tSN_R13PastIntervalsbbbPNS0_12PerfCountersEP18DoutPrefixProvider@Base 12.0.3
 _Z19string_to_clog_typeRKNSt7__cxx1112basic_stringIcSt11char_traitsIcESaIcEEE@Base 12.0.3
 _Z19unblock_all_signalsP10__sigset_t@Base 12.0.3
 _Z20ceph_conf_level_namei@Base 12.0.3
 _Z20ceph_osd_flag_stringB5cxx11j@Base 12.0.3
 _Z20ceph_posix_fallocateill@Base 12.0.3
 _Z20ceph_session_op_namei@Base 12.0.3
 _Z20create_pg_collectionRN4ceph2os11TransactionE5spg_ti@Base 12.0.3
 _Z20entity_addr_from_urlP13entity_addr_tPKc@Base 12.0.3
 _Z20escape_json_attr_lenPKcm@Base 12.0.3
 _Z20generic_client_usagev@Base 12.0.3
 _Z20generic_server_usagev@Base 12.0.3
 _Z20get_process_name_cppB5cxx11v@Base 12.0.3
 _Z20get_rand_socket_pathv@Base 12.0.3
 _Z20get_vdo_stats_handlePKcPNSt7__cxx1112basic_stringIcSt11char_traitsIcESaIcEEE@Base 12.0.3
 _Z21_get_vdo_stats_handlePKcPNSt7__cxx1112basic_stringIcSt11char_traitsIcESaIcEEE@Base 12.0.3
 _Z21ceph_argparse_withargIfEbRSt6vectorIPKcSaIS2_EERN9__gnu_cxx17__normal_iteratorIPS2_S4_EEPT_RSoz@Base 12.0.3
 _Z21ceph_argparse_withargIiEbRSt6vectorIPKcSaIS2_EERN9__gnu_cxx17__normal_iteratorIPS2_S4_EEPT_RSoz@Base 12.0.3
 _Z21ceph_argparse_withargIxEbRSt6vectorIPKcSaIS2_EERN9__gnu_cxx17__normal_iteratorIPS2_S4_EEPT_RSoz@Base 12.0.3
 _Z21ceph_argparse_withargRSt6vectorIPKcSaIS1_EERN9__gnu_cxx17__normal_iteratorIPS1_S3_EEPNSt7__cxx1112basic_stringIcSt11char_traitsIcESaIcEEERSoz@Base 12.0.3
 _Z21ceph_argparse_withargRSt6vectorIPKcSaIS1_EERN9__gnu_cxx17__normal_iteratorIPS1_S3_EEPNSt7__cxx1112basic_stringIcSt11char_traitsIcESaIcEEEz@Base 12.0.3
 _Z21ceph_entity_type_namei@Base 12.0.3
 _Z21ceph_osd_op_flag_namej@Base 12.0.3
 _Z21ceph_release_featuresi@Base 12.0.3
 _Z21ceph_watch_event_namei@Base 12.0.3
 _Z21decode_decrypt_enc_blI14CephXAuthorizeEvPN4ceph6common11CephContextERT_9CryptoKeyRKNS1_6buffer7v15_2_04listERNSt7__cxx1112basic_stringIcSt11char_traitsIcESaIcEEE@Base 12.0.3
 _Z21decode_decrypt_enc_blI15RotatingSecretsEvPN4ceph6common11CephContextERT_9CryptoKeyRKNS1_6buffer7v15_2_04listERNSt7__cxx1112basic_stringIcSt11char_traitsIcESaIcEEE@Base 12.0.3
 _Z21decode_decrypt_enc_blI18CephXServiceTicketEvPN4ceph6common11CephContextERT_9CryptoKeyRKNS1_6buffer7v15_2_04listERNSt7__cxx1112basic_stringIcSt11char_traitsIcESaIcEEE@Base 12.0.3
 _Z21decode_decrypt_enc_blI19CephXAuthorizeReplyEvPN4ceph6common11CephContextERT_9CryptoKeyRKNS1_6buffer7v15_2_04listERNSt7__cxx1112basic_stringIcSt11char_traitsIcESaIcEEE@Base 12.0.3
 _Z21decode_decrypt_enc_blI22CephXServiceTicketInfoEvPN4ceph6common11CephContextERT_9CryptoKeyRKNS1_6buffer7v15_2_04listERNSt7__cxx1112basic_stringIcSt11char_traitsIcESaIcEEE@Base 12.0.3
 _Z21decode_decrypt_enc_blI23CephXAuthorizeChallengeEvPN4ceph6common11CephContextERT_9CryptoKeyRKNS1_6buffer7v15_2_04listERNSt7__cxx1112basic_stringIcSt11char_traitsIcESaIcEEE@Base 12.0.3
 _Z21decode_decrypt_enc_blIN4ceph6buffer7v15_2_04listEEvPNS0_6common11CephContextERT_9CryptoKeyRKS3_RNSt7__cxx1112basic_stringIcSt11char_traitsIcESaIcEEE@Base 12.0.3
 _Z21decode_decrypt_enc_blINSt7__cxx1112basic_stringIcSt11char_traitsIcESaIcEEEEvPN4ceph6common11CephContextERT_9CryptoKeyRKNS6_6buffer7v15_2_04listERS5_@Base 12.0.3
 _Z21encode_encrypt_enc_blI14CephXAuthorizeEvPN4ceph6common11CephContextERKT_RK9CryptoKeyRNS1_6buffer7v15_2_04listERNSt7__cxx1112basic_stringIcSt11char_traitsIcESaIcEEE@Base 12.0.3
 _Z21encode_encrypt_enc_blI18CephXServiceTicketEvPN4ceph6common11CephContextERKT_RK9CryptoKeyRNS1_6buffer7v15_2_04listERNSt7__cxx1112basic_stringIcSt11char_traitsIcESaIcEEE@Base 12.0.3
 _Z21encode_encrypt_enc_blI19CephXAuthorizeReplyEvPN4ceph6common11CephContextERKT_RK9CryptoKeyRNS1_6buffer7v15_2_04listERNSt7__cxx1112basic_stringIcSt11char_traitsIcESaIcEEE@Base 12.0.3
 _Z21encode_encrypt_enc_blI22CephXServiceTicketInfoEvPN4ceph6common11CephContextERKT_RK9CryptoKeyRNS1_6buffer7v15_2_04listERNSt7__cxx1112basic_stringIcSt11char_traitsIcESaIcEEE@Base 12.0.3
 _Z21encode_encrypt_enc_blI23CephXAuthorizeChallengeEvPN4ceph6common11CephContextERKT_RK9CryptoKeyRNS1_6buffer7v15_2_04listERNSt7__cxx1112basic_stringIcSt11char_traitsIcESaIcEEE@Base 12.0.3
 _Z21gen_rand_alphanumericB5cxx11PN4ceph6common11CephContextEm@Base 12.0.3
 _Z21gen_rand_alphanumericPN4ceph6common11CephContextEPcm@Base 12.0.3
 _Z21get_numa_node_cpu_setiPmP9cpu_set_t@Base 12.0.3
 _Z21pretty_version_to_strB5cxx11v@Base 12.0.3
 _Z21print_osd_utilizationRK6OSDMapRK5PGMapRSoPN4ceph9FormatterEbRKNSt7__cxx1112basic_stringIcSt11char_traitsIcESaIcEEE@Base 12.0.3
 _Z22ceph_osd_watch_op_namei@Base 12.0.3
 _Z22ceph_release_from_nameSt17basic_string_viewIcSt11char_traitsIcEE@Base 12.0.3
 _Z22ceph_str_hash_rjenkinsPKcj@Base 12.0.3
 _Z22find_ip_in_subnet_listPN4ceph6common11CephContextEPK7ifaddrsjRKNSt7__cxx1112basic_stringIcSt11char_traitsIcESaIcEEESD_i@Base 12.0.3
 _Z22get_mds_client_optionsv@Base 12.0.3
 _Z22process_pg_map_commandRKNSt7__cxx1112basic_stringIcSt11char_traitsIcESaIcEEERKSt3mapIS4_N5boost7variantIS4_JbldSt6vectorIS4_SaIS4_EESA_IlSaIlEESA_IdSaIdEEEEESt4lessIvESaISt4pairIS5_SH_EEERK5PGMapRK6OSDMapPN4ceph9FormatterEPNS_18basic_stringstreamIcS2_S3_EEPNSW_6buffer7v15_2_04listE@Base 12.0.3
 _Z22string_to_syslog_levelNSt7__cxx1112basic_stringIcSt11char_traitsIcESaIcEEE@Base 12.0.3
 _Z23ceph_get_short_hostnameB5cxx11v@Base 12.0.3
 _Z23ceph_osd_op_flag_stringB5cxx11j@Base 12.0.3
 _Z23cephx_verify_authorizerPN4ceph6common11CephContextERK8KeyStoreRNS_6buffer7v15_2_04list13iterator_implILb1EEEmR22CephXServiceTicketInfoPSt10unique_ptrI23AuthAuthorizerChallengeSt14default_deleteISF_EEPNSt7__cxx1112basic_stringIcSt11char_traitsIcESaIcEEEPS8_@Base 12.0.3
 _Z23get_cgroup_memory_limitPm@Base 12.0.3
 _Z23get_conf_str_map_helperRKNSt7__cxx1112basic_stringIcSt11char_traitsIcESaIcEEERNS_19basic_ostringstreamIcS2_S3_EEPSt3mapIS4_S4_St4lessIS4_ESaISt4pairIS5_S4_EEES6_@Base 12.0.3
 _Z24block_device_get_metricsRKNSt7__cxx1112basic_stringIcSt11char_traitsIcESaIcEEEiPN11json_spirit10Value_implINS7_10Config_mapIS4_EEEE@Base 12.0.3
 _Z24ceph_argparse_early_argsRSt6vectorIPKcSaIS1_EEjPNSt7__cxx1112basic_stringIcSt11char_traitsIcESaIcEEESB_@Base 12.0.3
 _Z24ceph_argparse_need_usageRKSt6vectorIPKcSaIS1_EE@Base 12.0.3
 _Z24ceph_osd_backoff_op_namei@Base 12.0.3
 _Z24ceph_resolve_file_searchRKNSt7__cxx1112basic_stringIcSt11char_traitsIcESaIcEEERS4_@Base 12.0.3
 _Z24get_auth_session_handlerPN4ceph6common11CephContextEiRK9CryptoKeym@Base 12.0.3
 _Z24get_cephfs_shell_optionsv@Base 12.0.3
 _Z24parse_log_client_optionsPN4ceph6common11CephContextERSt3mapINSt7__cxx1112basic_stringIcSt11char_traitsIcESaIcEEES9_St4lessIS9_ESaISt4pairIKS9_S9_EEESH_SH_SH_SH_SH_SH_R6uuid_dRS9_@Base 12.0.3
 _Z24remove_all_cleanup_filesv@Base 12.0.3
 _Z25ceph_argparse_binary_flagRSt6vectorIPKcSaIS1_EERN9__gnu_cxx17__normal_iteratorIPS1_S3_EEPiPSoz@Base 12.0.3
 _Z25ceph_argparse_double_dashRSt6vectorIPKcSaIS1_EERN9__gnu_cxx17__normal_iteratorIPS1_S3_EE@Base 12.0.3
 _Z25clog_type_to_syslog_level9clog_type@Base 12.0.3
 _Z25string_to_syslog_facilityNSt7__cxx1112basic_stringIcSt11char_traitsIcESaIcEEE@Base 12.0.3
 _Z26ceph_release_from_featuresm@Base 12.0.3
 _Z26complain_about_parse_errorPN4ceph6common11CephContextERKNSt7__cxx1112basic_stringIcSt11char_traitsIcESaIcEEE@Base 12.0.3
 _Z27gen_rand_alphanumeric_lowerB5cxx11PN4ceph6common11CephContextEm@Base 12.0.3
 _Z27gen_rand_alphanumeric_lowerPN4ceph6common11CephContextEPcm@Base 12.0.3
 _Z27gen_rand_alphanumeric_plainB5cxx11PN4ceph6common11CephContextEm@Base 12.0.3
 _Z27gen_rand_alphanumeric_plainPN4ceph6common11CephContextEPcm@Base 12.0.3
 _Z27gen_rand_alphanumeric_upperB5cxx11PN4ceph6common11CephContextEm@Base 12.0.3
 _Z27gen_rand_alphanumeric_upperPN4ceph6common11CephContextEPcm@Base 12.0.3
 _Z28set_cpu_affinity_all_threadsmP9cpu_set_t@Base 12.0.3
 _Z29ceph_osd_alloc_hint_flag_namei@Base 12.0.3
 _Z29lockdep_register_ceph_contextPN4ceph6common11CephContextE@Base 12.0.3
 _Z31ceph_osd_alloc_hint_flag_stringB5cxx11j@Base 12.0.3
 _Z31cephx_build_service_ticket_blobPN4ceph6common11CephContextER20CephXSessionAuthInfoR15CephXTicketBlob@Base 12.0.3
 _Z31lockdep_unregister_ceph_contextPN4ceph6common11CephContextE@Base 12.0.3
 _Z32cephx_build_service_ticket_replyPN4ceph6common11CephContextER9CryptoKeySt6vectorI20CephXSessionAuthInfoSaIS6_EEbS4_RNS_6buffer7v15_2_04listE@Base 12.0.3
 _Z34cephx_calc_client_server_challengePN4ceph6common11CephContextER9CryptoKeymmPmRNSt7__cxx1112basic_stringIcSt11char_traitsIcESaIcEEE@Base 12.0.3
 _Z35gen_rand_alphanumeric_no_underscoreB5cxx11PN4ceph6common11CephContextEm@Base 12.0.3
 _Z35gen_rand_alphanumeric_no_underscorePN4ceph6common11CephContextEPcm@Base 12.0.3
 _Z3cmpRK10ghobject_tS1_@Base 12.0.3
 _Z3cmpRK9hobject_tS1_@Base 12.0.3
 _Z4dumpPN4ceph9FormatterERKSt3mapIiS2_INSt7__cxx1112basic_stringIcSt11char_traitsIcESaIcEEES8_St4lessIS8_ESaISt4pairIKS8_S8_EEES9_IiESaISB_IKiSF_EEE@Base 12.0.3
 _Z4dumpRK15ceph_dir_layoutPN4ceph9FormatterE@Base 12.0.3
 _Z4dumpRK16ceph_file_layoutPN4ceph9FormatterE@Base 12.0.3
 _Z4killRSt6threadi@Base 12.0.3
 _Z4trimRKNSt7__cxx1112basic_stringIcSt11char_traitsIcESaIcEEE@Base 12.0.3
 _Z6on_zfsi@Base 12.0.3
 _Z7hex2strPKciPci@Base 12.0.3
 _Z7hexdumpRKNSt7__cxx1112basic_stringIcSt11char_traitsIcESaIcEEEPKci@Base 12.0.3
 _Z7run_cmdB5cxx11PKcz@Base 12.0.3
 _Z8cleanbinB5cxx11RN4ceph6buffer7v15_2_04listERbb@Base 12.0.3
 _Z8cleanbinRNSt7__cxx1112basic_stringIcSt11char_traitsIcESaIcEEE@Base 12.0.3
 _Z9bytes2strB5cxx11m@Base 12.0.3
 _Z9stringifyI10EntityNameENSt7__cxx1112basic_stringIcSt11char_traitsIcESaIcEEERKT_@Base 12.0.3
 _Z9stringifyI6si_u_tENSt7__cxx1112basic_stringIcSt11char_traitsIcESaIcEEERKT_@Base 12.0.3
 _Z9stringifyI8byte_u_tENSt7__cxx1112basic_stringIcSt11char_traitsIcESaIcEEERKT_@Base 12.0.3
 _Z9stringifyIiENSt7__cxx1112basic_stringIcSt11char_traitsIcESaIcEEERKT_@Base 12.0.3
 _Z9stringifyIlENSt7__cxx1112basic_stringIcSt11char_traitsIcESaIcEEERKT_@Base 12.0.3
 _Z9stringifyImENSt7__cxx1112basic_stringIcSt11char_traitsIcESaIcEEERKT_@Base 12.0.3
 _ZGVN23CachedStackStringStream5cacheE@Base 12.0.3
 _ZGVN5boost4asio6detail10call_stackINS1_14strand_service11strand_implEhE4top_E@Base 12.0.3
 _ZGVN5boost4asio6detail10call_stackINS1_14thread_contextENS1_16thread_info_baseEE4top_E@Base 12.0.3
 _ZGVN5boost4asio6detail10call_stackINS1_23strand_executor_service11strand_implEhE4top_E@Base 12.0.3
 _ZGVN5boost4asio6detail12service_baseINS1_14strand_serviceEE2idE@Base 12.0.3
 _ZGVN5boost4asio6detail17posix_global_implINS0_14system_contextEE9instance_E@Base 12.0.3
 _ZGVN5boost4asio6detail30execution_context_service_baseINS1_13epoll_reactorEE2idE@Base 12.0.3
 _ZGVN5boost4asio6detail30execution_context_service_baseINS1_16resolver_serviceINS0_2ip3udpEEEE2idE@Base 12.0.3
 _ZGVN5boost4asio6detail30execution_context_service_baseINS1_23reactive_socket_serviceINS0_2ip3udpEEEE2idE@Base 12.0.3
 _ZGVN5boost4asio6detail30execution_context_service_baseINS1_9schedulerEE2idE@Base 12.0.3
 _ZGVN5boost6spirit7classic7static_INS_19thread_specific_ptrINS_8weak_ptrINS1_4impl14grammar_helperINS1_7grammarIN11json_spirit12Json_grammerINS8_10Value_implINS8_10Config_mapINSt7__cxx1112basic_stringIcSt11char_traitsIcESaIcEEEEEEEN9__gnu_cxx17__normal_iteratorIPKcSH_EEEENS1_14parser_contextINS1_5nil_tEEEEESP_NS1_7scannerISO_NS1_16scanner_policiesINS1_24skipper_iteration_policyINS1_16iteration_policyEEENS1_12match_policyENS1_13action_policyEEEEEEEEEEENS5_30get_definition_static_data_tagEE5data_E@Base 12.0.3
 _ZGVN5boost6spirit7classic7static_INS_19thread_specific_ptrINS_8weak_ptrINS1_4impl14grammar_helperINS1_7grammarIN11json_spirit12Json_grammerINS8_10Value_implINS8_10Config_mapINSt7__cxx1112basic_stringIcSt11char_traitsIcESaIcEEEEEEENS1_10multi_passISt16istream_iteratorIccSF_lENS1_19multi_pass_policies14input_iteratorENSN_11ref_countedENSN_12buf_id_checkENSN_9std_dequeEEEEENS1_14parser_contextINS1_5nil_tEEEEEST_NS1_7scannerISS_NS1_16scanner_policiesINS1_24skipper_iteration_policyINS1_16iteration_policyEEENS1_12match_policyENS1_13action_policyEEEEEEEEEEENS5_30get_definition_static_data_tagEE5data_E@Base 12.0.3
 _ZGVN5boost6spirit7classic7static_INS_19thread_specific_ptrINS_8weak_ptrINS1_4impl14grammar_helperINS1_7grammarIN11json_spirit12Json_grammerINS8_10Value_implINS8_10Config_mapINSt7__cxx1112basic_stringIcSt11char_traitsIcESaIcEEEEEEENS1_17position_iteratorIN9__gnu_cxx17__normal_iteratorIPKcSH_EENS1_18file_position_baseISH_EENS1_5nil_tEEEEENS1_14parser_contextISS_EEEESU_NS1_7scannerIST_NS1_16scanner_policiesINS1_24skipper_iteration_policyINS1_16iteration_policyEEENS1_12match_policyENS1_13action_policyEEEEEEEEEEENS5_30get_definition_static_data_tagEE5data_E@Base 12.0.3
 _ZGVN5boost6spirit7classic7static_INS_19thread_specific_ptrINS_8weak_ptrINS1_4impl14grammar_helperINS1_7grammarIN11json_spirit12Json_grammerINS8_10Value_implINS8_10Config_mapINSt7__cxx1112basic_stringIcSt11char_traitsIcESaIcEEEEEEENS1_17position_iteratorINS1_10multi_passISt16istream_iteratorIccSF_lENS1_19multi_pass_policies14input_iteratorENSO_11ref_countedENSO_12buf_id_checkENSO_9std_dequeEEENS1_18file_position_baseISH_EENS1_5nil_tEEEEENS1_14parser_contextISW_EEEESY_NS1_7scannerISX_NS1_16scanner_policiesINS1_24skipper_iteration_policyINS1_16iteration_policyEEENS1_12match_policyENS1_13action_policyEEEEEEEEEEENS5_30get_definition_static_data_tagEE5data_E@Base 12.0.3
 _ZGVN5boost6spirit7classic7static_INS_19thread_specific_ptrINS_8weak_ptrINS1_4impl14grammar_helperINS1_7grammarIN11json_spirit12Json_grammerINS8_10Value_implINS8_13Config_vectorINSt7__cxx1112basic_stringIcSt11char_traitsIcESaIcEEEEEEEN9__gnu_cxx17__normal_iteratorIPKcSH_EEEENS1_14parser_contextINS1_5nil_tEEEEESP_NS1_7scannerISO_NS1_16scanner_policiesINS1_24skipper_iteration_policyINS1_16iteration_policyEEENS1_12match_policyENS1_13action_policyEEEEEEEEEEENS5_30get_definition_static_data_tagEE5data_E@Base 12.0.3
 _ZGVN5boost6spirit7classic7static_INS_19thread_specific_ptrINS_8weak_ptrINS1_4impl14grammar_helperINS1_7grammarIN11json_spirit12Json_grammerINS8_10Value_implINS8_13Config_vectorINSt7__cxx1112basic_stringIcSt11char_traitsIcESaIcEEEEEEENS1_10multi_passISt16istream_iteratorIccSF_lENS1_19multi_pass_policies14input_iteratorENSN_11ref_countedENSN_12buf_id_checkENSN_9std_dequeEEEEENS1_14parser_contextINS1_5nil_tEEEEEST_NS1_7scannerISS_NS1_16scanner_policiesINS1_24skipper_iteration_policyINS1_16iteration_policyEEENS1_12match_policyENS1_13action_policyEEEEEEEEEEENS5_30get_definition_static_data_tagEE5data_E@Base 12.0.3
 _ZGVN5boost6spirit7classic7static_INS_19thread_specific_ptrINS_8weak_ptrINS1_4impl14grammar_helperINS1_7grammarIN11json_spirit12Json_grammerINS8_10Value_implINS8_13Config_vectorINSt7__cxx1112basic_stringIcSt11char_traitsIcESaIcEEEEEEENS1_17position_iteratorIN9__gnu_cxx17__normal_iteratorIPKcSH_EENS1_18file_position_baseISH_EENS1_5nil_tEEEEENS1_14parser_contextISS_EEEESU_NS1_7scannerIST_NS1_16scanner_policiesINS1_24skipper_iteration_policyINS1_16iteration_policyEEENS1_12match_policyENS1_13action_policyEEEEEEEEEEENS5_30get_definition_static_data_tagEE5data_E@Base 12.0.3
 _ZGVN5boost6spirit7classic7static_INS_19thread_specific_ptrINS_8weak_ptrINS1_4impl14grammar_helperINS1_7grammarIN11json_spirit12Json_grammerINS8_10Value_implINS8_13Config_vectorINSt7__cxx1112basic_stringIcSt11char_traitsIcESaIcEEEEEEENS1_17position_iteratorINS1_10multi_passISt16istream_iteratorIccSF_lENS1_19multi_pass_policies14input_iteratorENSO_11ref_countedENSO_12buf_id_checkENSO_9std_dequeEEENS1_18file_position_baseISH_EENS1_5nil_tEEEEENS1_14parser_contextISW_EEEESY_NS1_7scannerISX_NS1_16scanner_policiesINS1_24skipper_iteration_policyINS1_16iteration_policyEEENS1_12match_policyENS1_13action_policyEEEEEEEEEEENS5_30get_definition_static_data_tagEE5data_E@Base 12.0.3
 _ZGVZ9stringifyI10EntityNameENSt7__cxx1112basic_stringIcSt11char_traitsIcESaIcEEERKT_E2ssB5cxx11@Base 12.0.3
 _ZGVZ9stringifyI13entity_name_tENSt7__cxx1112basic_stringIcSt11char_traitsIcESaIcEEERKT_E2ssB5cxx11@Base 12.0.3
 _ZGVZ9stringifyI6si_u_tENSt7__cxx1112basic_stringIcSt11char_traitsIcESaIcEEERKT_E2ssB5cxx11@Base 12.0.3
 _ZGVZ9stringifyI6uuid_dENSt7__cxx1112basic_stringIcSt11char_traitsIcESaIcEEERKT_E2ssB5cxx11@Base 12.0.3
 _ZGVZ9stringifyI8byte_u_tENSt7__cxx1112basic_stringIcSt11char_traitsIcESaIcEEERKT_E2ssB5cxx11@Base 12.0.3
 _ZGVZ9stringifyIN5boost7variantINS0_5blankEJNSt7__cxx1112basic_stringIcSt11char_traitsIcESaIcEEEmldb13entity_addr_t16entity_addrvec_tNSt6chrono8durationIlSt5ratioILl1ELl1EEEEN6Option6size_tE6uuid_dEEEES8_RKT_E2ssB5cxx11@Base 12.0.3
 _ZGVZ9stringifyIPKcENSt7__cxx1112basic_stringIcSt11char_traitsIcESaIcEEERKT_E2ssB5cxx11@Base 12.0.3
 _ZGVZ9stringifyISt3setINSt7__cxx1112basic_stringIcSt11char_traitsIcESaIcEEESt4lessIS6_ESaIS6_EEES6_RKT_E2ssB5cxx11@Base 12.0.3
 _ZGVZ9stringifyIiENSt7__cxx1112basic_stringIcSt11char_traitsIcESaIcEEERKT_E2ssB5cxx11@Base 12.0.3
 _ZGVZ9stringifyIjENSt7__cxx1112basic_stringIcSt11char_traitsIcESaIcEEERKT_E2ssB5cxx11@Base 12.0.3
 _ZGVZ9stringifyIlENSt7__cxx1112basic_stringIcSt11char_traitsIcESaIcEEERKT_E2ssB5cxx11@Base 12.0.3
 _ZGVZ9stringifyImENSt7__cxx1112basic_stringIcSt11char_traitsIcESaIcEEERKT_E2ssB5cxx11@Base 12.0.3
 _ZGVZ9stringifyIyENSt7__cxx1112basic_stringIcSt11char_traitsIcESaIcEEERKT_E2ssB5cxx11@Base 12.0.3
 _ZGVZN14AsyncMessenger12_lookup_connERK16entity_addrvec_tE7nullref@Base 12.0.3
 _ZGVZN4ceph11DNSResolver12get_instanceEvE8instance@Base 12.0.3
 _ZGVZN4ceph4util13version_1_0_36detail6engineISt26linear_congruential_engineImLm16807ELm0ELm2147483647EEEERT_vE10rng_engine@Base 12.0.3
 _ZGVZN5boost3icl16identity_elementISt3setINSt7__cxx1112basic_stringIcSt11char_traitsIcESaIcEEESt4lessIS8_ESaIS8_EEE5valueEvE6_value@Base 12.0.3
 _ZGVZN5boost6spirit4impl14get_definitionI13crush_grammarNS0_14parser_contextINS0_5nil_tEEENS0_7scannerIPKcNS0_16scanner_policiesINS0_28skip_parser_iteration_policyINS0_12space_parserENS0_16iteration_policyEEENS0_16ast_match_policyIS9_NS0_21node_val_data_factoryIS5_EES5_EENS0_13action_policyEEEEEEERNT_10definitionIT1_EEPKNS0_7grammarISM_T0_EEE6helper@Base 12.0.3
 _ZGVZN5boost6spirit4impl19object_with_id_baseINS1_11grammar_tagEmE17acquire_object_idEvE13static_supply@Base 12.0.3
 _ZGVZN5boost6spirit7classic4impl17escape_char_parseIcE5parseINS1_7scannerIN9__gnu_cxx17__normal_iteratorIPKcNSt7__cxx1112basic_stringIcSt11char_traitsIcESaIcEEEEENS1_16scanner_policiesINS1_27no_skipper_iteration_policyINS1_24skipper_iteration_policyINS1_16iteration_policyEEEEENS1_12match_policyENS1_13action_policyEEEEENS1_18escape_char_parserILm2EcEEEENS1_13parser_resultIT0_T_E4typeERKSW_RKSV_E1p@Base 12.0.3
 _ZGVZN5boost6spirit7classic4impl17escape_char_parseIcE5parseINS1_7scannerINS1_10multi_passISt16istream_iteratorIccSt11char_traitsIcElENS1_19multi_pass_policies14input_iteratorENSC_11ref_countedENSC_12buf_id_checkENSC_9std_dequeEEENS1_16scanner_policiesINS1_27no_skipper_iteration_policyINS1_24skipper_iteration_policyINS1_16iteration_policyEEEEENS1_12match_policyENS1_13action_policyEEEEENS1_18escape_char_parserILm2EcEEEENS1_13parser_resultIT0_T_E4typeERKSW_RKSV_E1p@Base 12.0.3
 _ZGVZN5boost6spirit7classic4impl17escape_char_parseIcE5parseINS1_7scannerINS1_17position_iteratorIN9__gnu_cxx17__normal_iteratorIPKcNSt7__cxx1112basic_stringIcSt11char_traitsIcESaIcEEEEENS1_18file_position_baseISH_EENS1_5nil_tEEENS1_16scanner_policiesINS1_27no_skipper_iteration_policyINS1_24skipper_iteration_policyINS1_16iteration_policyEEEEENS1_12match_policyENS1_13action_policyEEEEENS1_18escape_char_parserILm2EcEEEENS1_13parser_resultIT0_T_E4typeERKS11_RKS10_E1p@Base 12.0.3
 _ZGVZN5boost6spirit7classic4impl17escape_char_parseIcE5parseINS1_7scannerINS1_17position_iteratorINS1_10multi_passISt16istream_iteratorIccSt11char_traitsIcElENS1_19multi_pass_policies14input_iteratorENSD_11ref_countedENSD_12buf_id_checkENSD_9std_dequeEEENS1_18file_position_baseINSt7__cxx1112basic_stringIcSB_SaIcEEEEENS1_5nil_tEEENS1_16scanner_policiesINS1_27no_skipper_iteration_policyINS1_24skipper_iteration_policyINS1_16iteration_policyEEEEENS1_12match_policyENS1_13action_policyEEEEENS1_18escape_char_parserILm2EcEEEENS1_13parser_resultIT0_T_E4typeERKS15_RKS14_E1p@Base 12.0.3
 _ZGVZN5boost6spirit7classic4impl19object_with_id_baseINS2_11grammar_tagEmE14mutex_instanceEvE5mutex@Base 12.0.3
 _ZGVZN5boost6spirit7classic4impl19object_with_id_baseINS2_11grammar_tagEmE17acquire_object_idEvE13static_supply@Base 12.0.3
 _ZGVZN5boost6spirit7classic7static_INS_19thread_specific_ptrINS_8weak_ptrINS1_4impl14grammar_helperINS1_7grammarIN11json_spirit12Json_grammerINS8_10Value_implINS8_10Config_mapINSt7__cxx1112basic_stringIcSt11char_traitsIcESaIcEEEEEEEN9__gnu_cxx17__normal_iteratorIPKcSH_EEEENS1_14parser_contextINS1_5nil_tEEEEESP_NS1_7scannerISO_NS1_16scanner_policiesINS1_24skipper_iteration_policyINS1_16iteration_policyEEENS1_12match_policyENS1_13action_policyEEEEEEEEEEENS5_30get_definition_static_data_tagEE12default_ctor9constructEvE1d@Base 12.0.3
 _ZGVZN5boost6spirit7classic7static_INS_19thread_specific_ptrINS_8weak_ptrINS1_4impl14grammar_helperINS1_7grammarIN11json_spirit12Json_grammerINS8_10Value_implINS8_10Config_mapINSt7__cxx1112basic_stringIcSt11char_traitsIcESaIcEEEEEEENS1_10multi_passISt16istream_iteratorIccSF_lENS1_19multi_pass_policies14input_iteratorENSN_11ref_countedENSN_12buf_id_checkENSN_9std_dequeEEEEENS1_14parser_contextINS1_5nil_tEEEEEST_NS1_7scannerISS_NS1_16scanner_policiesINS1_24skipper_iteration_policyINS1_16iteration_policyEEENS1_12match_policyENS1_13action_policyEEEEEEEEEEENS5_30get_definition_static_data_tagEE12default_ctor9constructEvE1d@Base 12.0.3
 _ZGVZN5boost6spirit7classic7static_INS_19thread_specific_ptrINS_8weak_ptrINS1_4impl14grammar_helperINS1_7grammarIN11json_spirit12Json_grammerINS8_10Value_implINS8_10Config_mapINSt7__cxx1112basic_stringIcSt11char_traitsIcESaIcEEEEEEENS1_17position_iteratorIN9__gnu_cxx17__normal_iteratorIPKcSH_EENS1_18file_position_baseISH_EENS1_5nil_tEEEEENS1_14parser_contextISS_EEEESU_NS1_7scannerIST_NS1_16scanner_policiesINS1_24skipper_iteration_policyINS1_16iteration_policyEEENS1_12match_policyENS1_13action_policyEEEEEEEEEEENS5_30get_definition_static_data_tagEE12default_ctor9constructEvE1d@Base 12.0.3
 _ZGVZN5boost6spirit7classic7static_INS_19thread_specific_ptrINS_8weak_ptrINS1_4impl14grammar_helperINS1_7grammarIN11json_spirit12Json_grammerINS8_10Value_implINS8_10Config_mapINSt7__cxx1112basic_stringIcSt11char_traitsIcESaIcEEEEEEENS1_17position_iteratorINS1_10multi_passISt16istream_iteratorIccSF_lENS1_19multi_pass_policies14input_iteratorENSO_11ref_countedENSO_12buf_id_checkENSO_9std_dequeEEENS1_18file_position_baseISH_EENS1_5nil_tEEEEENS1_14parser_contextISW_EEEESY_NS1_7scannerISX_NS1_16scanner_policiesINS1_24skipper_iteration_policyINS1_16iteration_policyEEENS1_12match_policyENS1_13action_policyEEEEEEEEEEENS5_30get_definition_static_data_tagEE12default_ctor9constructEvE1d@Base 12.0.3
 _ZGVZN5boost6spirit7classic7static_INS_19thread_specific_ptrINS_8weak_ptrINS1_4impl14grammar_helperINS1_7grammarIN11json_spirit12Json_grammerINS8_10Value_implINS8_13Config_vectorINSt7__cxx1112basic_stringIcSt11char_traitsIcESaIcEEEEEEEN9__gnu_cxx17__normal_iteratorIPKcSH_EEEENS1_14parser_contextINS1_5nil_tEEEEESP_NS1_7scannerISO_NS1_16scanner_policiesINS1_24skipper_iteration_policyINS1_16iteration_policyEEENS1_12match_policyENS1_13action_policyEEEEEEEEEEENS5_30get_definition_static_data_tagEE12default_ctor9constructEvE1d@Base 12.0.3
 _ZGVZN5boost6spirit7classic7static_INS_19thread_specific_ptrINS_8weak_ptrINS1_4impl14grammar_helperINS1_7grammarIN11json_spirit12Json_grammerINS8_10Value_implINS8_13Config_vectorINSt7__cxx1112basic_stringIcSt11char_traitsIcESaIcEEEEEEENS1_10multi_passISt16istream_iteratorIccSF_lENS1_19multi_pass_policies14input_iteratorENSN_11ref_countedENSN_12buf_id_checkENSN_9std_dequeEEEEENS1_14parser_contextINS1_5nil_tEEEEEST_NS1_7scannerISS_NS1_16scanner_policiesINS1_24skipper_iteration_policyINS1_16iteration_policyEEENS1_12match_policyENS1_13action_policyEEEEEEEEEEENS5_30get_definition_static_data_tagEE12default_ctor9constructEvE1d@Base 12.0.3
 _ZGVZN5boost6spirit7classic7static_INS_19thread_specific_ptrINS_8weak_ptrINS1_4impl14grammar_helperINS1_7grammarIN11json_spirit12Json_grammerINS8_10Value_implINS8_13Config_vectorINSt7__cxx1112basic_stringIcSt11char_traitsIcESaIcEEEEEEENS1_17position_iteratorIN9__gnu_cxx17__normal_iteratorIPKcSH_EENS1_18file_position_baseISH_EENS1_5nil_tEEEEENS1_14parser_contextISS_EEEESU_NS1_7scannerIST_NS1_16scanner_policiesINS1_24skipper_iteration_policyINS1_16iteration_policyEEENS1_12match_policyENS1_13action_policyEEEEEEEEEEENS5_30get_definition_static_data_tagEE12default_ctor9constructEvE1d@Base 12.0.3
 _ZGVZN5boost6spirit7classic7static_INS_19thread_specific_ptrINS_8weak_ptrINS1_4impl14grammar_helperINS1_7grammarIN11json_spirit12Json_grammerINS8_10Value_implINS8_13Config_vectorINSt7__cxx1112basic_stringIcSt11char_traitsIcESaIcEEEEEEENS1_17position_iteratorINS1_10multi_passISt16istream_iteratorIccSF_lENS1_19multi_pass_policies14input_iteratorENSO_11ref_countedENSO_12buf_id_checkENSO_9std_dequeEEENS1_18file_position_baseISH_EENS1_5nil_tEEEEENS1_14parser_contextISW_EEEESY_NS1_7scannerISX_NS1_16scanner_policiesINS1_24skipper_iteration_policyINS1_16iteration_policyEEENS1_12match_policyENS1_13action_policyEEEEEEEEEEENS5_30get_definition_static_data_tagEE12default_ctor9constructEvE1d@Base 12.0.3
 _ZGVZN5boost6system6detail15to_std_categoryERKNS0_14error_categoryEE15system_instance@Base 12.0.3
 _ZGVZN5boost6system6detail15to_std_categoryERKNS0_14error_categoryEE16generic_instance@Base 12.0.3
 _ZGVZN5boost6system6detail15to_std_categoryERKNS0_14error_categoryEE4map_@Base 12.0.3
 _ZGVZNK5boost5uuids16string_generator9get_valueEcE10digits_end@Base 12.0.3
 _ZGVZNK6OSDMap24get_erasure_code_profileERKNSt7__cxx1112basic_stringIcSt11char_traitsIcESaIcEEEE5emptyB5cxx11@Base 12.0.3
 _ZGVZNKSt8__detail11_AnyMatcherINSt7__cxx1112regex_traitsIcEELb0ELb0ELb0EEclEcE5__nul@Base 12.0.3
 _ZGVZNKSt8__detail11_AnyMatcherINSt7__cxx1112regex_traitsIcEELb0ELb0ELb1EEclEcE5__nul@Base 12.0.3
 _ZGVZNKSt8__detail11_AnyMatcherINSt7__cxx1112regex_traitsIcEELb0ELb1ELb0EEclEcE5__nul@Base 12.0.3
 _ZGVZNKSt8__detail11_AnyMatcherINSt7__cxx1112regex_traitsIcEELb0ELb1ELb1EEclEcE5__nul@Base 12.0.3
 _ZN10AuthServer13pick_con_modeEijRKSt6vectorIjSaIjEE@Base 12.0.3
 _ZN10AuthServer23get_supported_con_modesEijPSt6vectorIjSaIjEE@Base 12.0.3
 _ZN10AuthServer26get_supported_auth_methodsEiPSt6vectorIjSaIjEES3_@Base 12.0.3
 _ZN10AuthTicketD1Ev@Base 12.0.3
 _ZN10AuthTicketD2Ev@Base 12.0.3
 _ZN10C_SafeCond6finishEi@Base 12.0.3
 _ZN10C_SafeCondD0Ev@Base 12.0.3
 _ZN10C_SafeCondD1Ev@Base 12.0.3
 _ZN10C_SafeCondD2Ev@Base 12.0.3
 _ZN10Compressor17get_comp_alg_nameEi@Base 12.0.3
 _ZN10Compressor17get_comp_alg_typeERKNSt7__cxx1112basic_stringIcSt11char_traitsIcESaIcEEE@Base 12.0.3
 _ZN10Compressor18get_comp_mode_nameEi@Base 12.0.3
 _ZN10Compressor18get_comp_mode_typeERKNSt7__cxx1112basic_stringIcSt11char_traitsIcESaIcEEE@Base 12.0.3
 _ZN10Compressor6createEPN4ceph6common11CephContextERKNSt7__cxx1112basic_stringIcSt11char_traitsIcESaIcEEE@Base 12.0.3
 _ZN10Compressor6createEPN4ceph6common11CephContextEi@Base 12.0.3
 _ZN10Connection13send_message2EN5boost13intrusive_ptrI7MessageEE@Base 12.0.3
 _ZN10ConnectionD0Ev@Base 12.0.3
 _ZN10ConnectionD1Ev@Base 12.0.3
 _ZN10ConnectionD2Ev@Base 12.0.3
 _ZN10CryptoNone15get_key_handlerERKN4ceph6buffer7v15_2_03ptrERNSt7__cxx1112basic_stringIcSt11char_traitsIcESaIcEEE@Base 12.0.3
 _ZN10CryptoNone15validate_secretERKN4ceph6buffer7v15_2_03ptrE@Base 12.0.3
 _ZN10CryptoNone6createEP12CryptoRandomRN4ceph6buffer7v15_2_03ptrE@Base 12.0.3
 _ZN10CryptoNoneD0Ev@Base 12.0.3
 _ZN10CryptoNoneD1Ev@Base 12.0.3
 _ZN10CryptoNoneD2Ev@Base 12.0.3
 _ZN10Dispatcher11ms_dispatchEP7Message@Base 12.0.3
 _ZN10Dispatcher12ms_dispatch2ERKN5boost13intrusive_ptrI7MessageEE@Base 12.0.3
 _ZN10Dispatcher16ms_fast_dispatchEP7Message@Base 12.0.3
 _ZN10Dispatcher16ms_handle_acceptEP10Connection@Base 12.0.3
 _ZN10Dispatcher17ms_fast_dispatch2ERKN5boost13intrusive_ptrI7MessageEE@Base 12.0.3
 _ZN10Dispatcher17ms_handle_connectEP10Connection@Base 12.0.3
 _ZN10Dispatcher18ms_fast_preprocessEP7Message@Base 12.0.3
 _ZN10Dispatcher19ms_fast_preprocess2ERKN5boost13intrusive_ptrI7MessageEE@Base 12.0.3
 _ZN10Dispatcher21ms_handle_fast_acceptEP10Connection@Base 12.0.3
 _ZN10Dispatcher22ms_handle_fast_connectEP10Connection@Base 12.0.3
 _ZN10Dispatcher24ms_handle_authenticationEP10Connection@Base 12.0.3
 _ZN10ECSubWrite23generate_test_instancesERNSt7__cxx114listIPS_SaIS2_EEE@Base 12.0.3
 _ZN10ECSubWrite6decodeERN4ceph6buffer7v15_2_04list13iterator_implILb1EEE@Base 12.0.3
 _ZN10EntityName18STR_TO_ENTITY_TYPEE@Base 12.0.3
 _ZN10EntityName22get_valid_types_as_strB5cxx11Ev@Base 12.0.3
 _ZN10EntityName23str_to_ceph_entity_typeESt17basic_string_viewIcSt11char_traitsIcEE@Base 12.0.3
 _ZN10EntityName3setERKNSt7__cxx1112basic_stringIcSt11char_traitsIcESaIcEEES7_@Base 12.0.3
 _ZN10EntityName3setEjRKNSt7__cxx1112basic_stringIcSt11char_traitsIcESaIcEEE@Base 12.0.3
 _ZN10EntityName6set_idERKNSt7__cxx1112basic_stringIcSt11char_traitsIcESaIcEEE@Base 12.0.3
 _ZN10EntityName8from_strERKNSt7__cxx1112basic_stringIcSt11char_traitsIcESaIcEEE@Base 12.0.3
 _ZN10EntityName8set_nameE13entity_name_t@Base 12.0.3
 _ZN10EntityName8set_typeEPKc@Base 12.0.3
 _ZN10EntityName8set_typeEj@Base 12.0.3
 _ZN10EntityNameD1Ev@Base 12.0.3
 _ZN10EntityNameD2Ev@Base 12.0.3
 _ZN10Filesystem6decodeERN4ceph6buffer7v15_2_04list13iterator_implILb1EEE@Base 12.0.3
 _ZN10Infiniband13MemoryManager13PoolAllocator4freeEPc@Base 12.0.3
 _ZN10Infiniband13MemoryManager13PoolAllocator5g_ctxE@Base 12.0.3
 _ZN10Infiniband13MemoryManager13PoolAllocator6mallocEm@Base 12.0.3
 _ZN10Infiniband13MemoryManager13PoolAllocator8get_lockEv@Base 12.0.3
 _ZN10Infiniband13MemoryManager14MemPoolContext12update_statsEi@Base 12.0.3
 _ZN10Infiniband13MemoryManager14MemPoolContext15set_stat_loggerEPN4ceph6common12PerfCountersE@Base 12.0.3
 _ZN10Infiniband13MemoryManager14MemPoolContext9can_allocEj@Base 12.0.3
 _ZN10Infiniband13MemoryManager14create_tx_poolEjj@Base 12.0.3
 _ZN10Infiniband13MemoryManager15huge_pages_freeEPv@Base 12.0.3
 _ZN10Infiniband13MemoryManager16get_send_buffersERSt6vectorIPNS0_5ChunkESaIS3_EEm@Base 12.0.3
 _ZN10Infiniband13MemoryManager17huge_pages_mallocEm@Base 12.0.3
 _ZN10Infiniband13MemoryManager4freeEPv@Base 12.0.3
 _ZN10Infiniband13MemoryManager5Chunk10get_offsetEv@Base 12.0.3
 _ZN10Infiniband13MemoryManager5Chunk12prepare_readEj@Base 12.0.3
 _ZN10Infiniband13MemoryManager5Chunk16reset_read_chunkEv@Base 12.0.3
 _ZN10Infiniband13MemoryManager5Chunk17reset_write_chunkEv@Base 12.0.3
 _ZN10Infiniband13MemoryManager5Chunk4fullEv@Base 12.0.3
 _ZN10Infiniband13MemoryManager5Chunk4readEPcj@Base 12.0.3
 _ZN10Infiniband13MemoryManager5Chunk5writeEPcj@Base 12.0.3
 _ZN10Infiniband13MemoryManager5Chunk9get_boundEv@Base 12.0.3
 _ZN10Infiniband13MemoryManager5ChunkC1EP6ibv_mrjPcjjjPNS_9QueuePairE@Base 12.0.3
 _ZN10Infiniband13MemoryManager5ChunkC2EP6ibv_mrjPcjjjPNS_9QueuePairE@Base 12.0.3
 _ZN10Infiniband13MemoryManager5ChunkD1Ev@Base 12.0.3
 _ZN10Infiniband13MemoryManager5ChunkD2Ev@Base 12.0.3
 _ZN10Infiniband13MemoryManager6mallocEm@Base 12.0.3
 _ZN10Infiniband13MemoryManager7Cluster11get_buffersERSt6vectorIPNS0_5ChunkESaIS4_EEm@Base 12.0.3
 _ZN10Infiniband13MemoryManager7Cluster4fillEj@Base 12.0.3
 _ZN10Infiniband13MemoryManager7Cluster9take_backERSt6vectorIPNS0_5ChunkESaIS4_EE@Base 12.0.3
 _ZN10Infiniband13MemoryManager7ClusterC1ERS0_j@Base 12.0.3
 _ZN10Infiniband13MemoryManager7ClusterC2ERS0_j@Base 12.0.3
 _ZN10Infiniband13MemoryManager7ClusterD1Ev@Base 12.0.3
 _ZN10Infiniband13MemoryManager7ClusterD2Ev@Base 12.0.3
 _ZN10Infiniband13MemoryManager8mem_pool11slow_mallocEv@Base 12.0.3
 _ZN10Infiniband13MemoryManager9return_txERSt6vectorIPNS0_5ChunkESaIS3_EE@Base 12.0.3
 _ZN10Infiniband13MemoryManagerC1EPN4ceph6common11CephContextEP6DevicePNS_16ProtectionDomainE@Base 12.0.3
 _ZN10Infiniband13MemoryManagerC2EPN4ceph6common11CephContextEP6DevicePNS_16ProtectionDomainE@Base 12.0.3
 _ZN10Infiniband13MemoryManagerD1Ev@Base 12.0.3
 _ZN10Infiniband13MemoryManagerD2Ev@Base 12.0.3
 _ZN10Infiniband13verify_prereqEPN4ceph6common11CephContextE@Base 12.0.3
 _ZN10Infiniband14get_tx_buffersERSt6vectorIPNS_13MemoryManager5ChunkESaIS3_EEm@Base 12.0.3
 _ZN10Infiniband15CompletionQueue12rearm_notifyEb@Base 12.0.3
 _ZN10Infiniband15CompletionQueue4initEv@Base 12.0.3
 _ZN10Infiniband15CompletionQueue7poll_cqEiP6ibv_wc@Base 12.0.3
 _ZN10Infiniband15CompletionQueueD1Ev@Base 12.0.3
 _ZN10Infiniband15CompletionQueueD2Ev@Base 12.0.3
 _ZN10Infiniband15qp_state_stringEi@Base 12.0.3
 _ZN10Infiniband16ProtectionDomainC1EPN4ceph6common11CephContextEP6Device@Base 12.0.3
 _ZN10Infiniband16ProtectionDomainC2EPN4ceph6common11CephContextEP6Device@Base 12.0.3
 _ZN10Infiniband16ProtectionDomainD1Ev@Base 12.0.3
 _ZN10Infiniband16ProtectionDomainD2Ev@Base 12.0.3
 _ZN10Infiniband17CompletionChannel10ack_eventsEv@Base 12.0.3
 _ZN10Infiniband17CompletionChannel12get_cq_eventEv@Base 12.0.3
 _ZN10Infiniband17CompletionChannel4initEv@Base 12.0.3
 _ZN10Infiniband17CompletionChannelC1EPN4ceph6common11CephContextERS_@Base 12.0.3
 _ZN10Infiniband17CompletionChannelC2EPN4ceph6common11CephContextERS_@Base 12.0.3
 _ZN10Infiniband17CompletionChannelD1Ev@Base 12.0.3
 _ZN10Infiniband17CompletionChannelD2Ev@Base 12.0.3
 _ZN10Infiniband17create_comp_queueEPN4ceph6common11CephContextEPNS_17CompletionChannelE@Base 12.0.3
 _ZN10Infiniband17create_queue_pairEPN4ceph6common11CephContextEPNS_15CompletionQueueES5_11ibv_qp_typeP10rdma_cm_id@Base 12.0.3
 _ZN10Infiniband17post_chunks_to_rqEiPNS_9QueuePairE@Base 12.0.3
 _ZN10Infiniband19create_comp_channelEPN4ceph6common11CephContextE@Base 12.0.3
 _ZN10Infiniband19wc_status_to_stringEi@Base 12.0.3
 _ZN10Infiniband27create_shared_receive_queueEjj@Base 12.0.3
 _ZN10Infiniband4initEv@Base 12.0.3
 _ZN10Infiniband9QueuePair12recv_cm_metaEPN4ceph6common11CephContextEi@Base 12.0.3
 _ZN10Infiniband9QueuePair12send_cm_metaEPN4ceph6common11CephContextEi@Base 12.0.3
 _ZN10Infiniband9QueuePair15gid_to_wire_gidERK12ib_cm_meta_tPc@Base 12.0.3
 _ZN10Infiniband9QueuePair15wire_gid_to_gidEPKcP12ib_cm_meta_t@Base 12.0.3
 _ZN10Infiniband9QueuePair16modify_qp_to_rtrEv@Base 12.0.3
 _ZN10Infiniband9QueuePair16modify_qp_to_rtsEv@Base 12.0.3
 _ZN10Infiniband9QueuePair17modify_qp_to_initEv@Base 12.0.3
 _ZN10Infiniband9QueuePair18modify_qp_to_errorEv@Base 12.0.3
 _ZN10Infiniband9QueuePair4initEv@Base 12.0.3
 _ZN10Infiniband9QueuePair7to_deadEv@Base 12.0.3
 _ZN10Infiniband9QueuePairC1EPN4ceph6common11CephContextERS_11ibv_qp_typeiP7ibv_srqPNS_15CompletionQueueESA_jjP10rdma_cm_idj@Base 12.0.3
 _ZN10Infiniband9QueuePairC2EPN4ceph6common11CephContextERS_11ibv_qp_typeiP7ibv_srqPNS_15CompletionQueueESA_jjP10rdma_cm_idj@Base 12.0.3
 _ZN10Infiniband9QueuePairD1Ev@Base 12.0.3
 _ZN10Infiniband9QueuePairD2Ev@Base 12.0.3
 _ZN10InfinibandC1EPN4ceph6common11CephContextE@Base 12.0.3
 _ZN10InfinibandC2EPN4ceph6common11CephContextE@Base 12.0.3
 _ZN10InfinibandD1Ev@Base 12.0.3
 _ZN10InfinibandD2Ev@Base 12.0.3
 _ZN10JSONParser11handle_dataEPKci@Base 12.0.3
 _ZN10JSONParser5parseEPKc@Base 12.0.3
 _ZN10JSONParser5parseEPKci@Base 12.0.3
 _ZN10JSONParser5parseEi@Base 12.0.3
 _ZN10JSONParser5parseEv@Base 12.0.3
 _ZN10JSONParserC1Ev@Base 12.0.3
 _ZN10JSONParserC2Ev@Base 12.0.3
 _ZN10JSONParserD0Ev@Base 12.0.3
 _ZN10JSONParserD1Ev@Base 12.0.3
 _ZN10JSONParserD2Ev@Base 12.0.3
 _ZN10LogChannel13update_configERSt3mapINSt7__cxx1112basic_stringIcSt11char_traitsIcESaIcEEES6_St4lessIS6_ESaISt4pairIKS6_S6_EEESE_SE_SE_SE_SE_SE_R6uuid_dRS6_@Base 12.0.3
 _ZN10LogChannel6do_logE9clog_typeRKNSt7__cxx1112basic_stringIcSt11char_traitsIcESaIcEEE@Base 12.0.3
 _ZN10LogChannel6do_logE9clog_typeRNSt7__cxx1118basic_stringstreamIcSt11char_traitsIcESaIcEEE@Base 12.0.3
 _ZN10LogChannelC1EPN4ceph6common11CephContextEP9LogClientRKNSt7__cxx1112basic_stringIcSt11char_traitsIcESaIcEEE@Base 12.0.3
 _ZN10LogChannelC1EPN4ceph6common11CephContextEP9LogClientRKNSt7__cxx1112basic_stringIcSt11char_traitsIcESaIcEEESD_SD_@Base 12.0.3
 _ZN10LogChannelC2EPN4ceph6common11CephContextEP9LogClientRKNSt7__cxx1112basic_stringIcSt11char_traitsIcESaIcEEE@Base 12.0.3
 _ZN10LogChannelC2EPN4ceph6common11CephContextEP9LogClientRKNSt7__cxx1112basic_stringIcSt11char_traitsIcESaIcEEESD_SD_@Base 12.0.3
 _ZN10LogChannelD0Ev@Base 12.0.3
 _ZN10LogChannelD1Ev@Base 12.0.3
 _ZN10LogChannelD2Ev@Base 12.0.3
 _ZN10LogSummary23generate_test_instancesERNSt7__cxx114listIPS_SaIS2_EEE@Base 12.0.3
 _ZN10LogSummary6decodeERN4ceph6buffer7v15_2_04list13iterator_implILb1EEE@Base 12.0.3
 _ZN10MAuthReply14decode_payloadEv@Base 12.0.3
 _ZN10MAuthReply14encode_payloadEm@Base 12.0.3
 _ZN10MAuthReplyD0Ev@Base 12.0.3
 _ZN10MAuthReplyD1Ev@Base 12.0.3
 _ZN10MAuthReplyD2Ev@Base 12.0.3
 _ZN10MDirUpdate14decode_payloadEv@Base 12.0.3
 _ZN10MDirUpdate14encode_payloadEm@Base 12.0.3
 _ZN10MDirUpdateD0Ev@Base 12.0.3
 _ZN10MDirUpdateD1Ev@Base 12.0.3
 _ZN10MDirUpdateD2Ev@Base 12.0.3
 _ZN10MExportDir14decode_payloadEv@Base 12.0.3
 _ZN10MExportDir14encode_payloadEm@Base 12.0.3
 _ZN10MExportDirD0Ev@Base 12.0.3
 _ZN10MExportDirD1Ev@Base 12.0.3
 _ZN10MExportDirD2Ev@Base 12.0.3
 _ZN10MFSMapUser14decode_payloadEv@Base 12.0.3
 _ZN10MFSMapUser14encode_payloadEm@Base 12.0.3
 _ZN10MFSMapUserD0Ev@Base 12.0.3
 _ZN10MFSMapUserD1Ev@Base 12.0.3
 _ZN10MFSMapUserD2Ev@Base 12.0.3
 _ZN10MGetConfig14decode_payloadEv@Base 12.0.3
 _ZN10MGetConfig14encode_payloadEm@Base 12.0.3
 _ZN10MGetConfigD0Ev@Base 12.0.3
 _ZN10MGetConfigD1Ev@Base 12.0.3
 _ZN10MGetConfigD2Ev@Base 12.0.3
 _ZN10MHeartbeat14decode_payloadEv@Base 12.0.3
 _ZN10MHeartbeat14encode_payloadEm@Base 12.0.3
 _ZN10MHeartbeatD0Ev@Base 12.0.3
 _ZN10MHeartbeatD1Ev@Base 12.0.3
 _ZN10MHeartbeatD2Ev@Base 12.0.3
 _ZN10MMDSBeacon14decode_payloadEv@Base 12.0.3
 _ZN10MMDSBeacon14encode_payloadEm@Base 12.0.3
 _ZN10MMDSBeaconD0Ev@Base 12.0.3
 _ZN10MMDSBeaconD1Ev@Base 12.0.3
 _ZN10MMDSBeaconD2Ev@Base 12.0.3
 _ZN10MMgrBeacon14decode_payloadEv@Base 12.0.3
 _ZN10MMgrBeacon14encode_payloadEm@Base 12.0.3
 _ZN10MMgrBeaconD0Ev@Base 12.0.3
 _ZN10MMgrBeaconD1Ev@Base 12.0.3
 _ZN10MMgrBeaconD2Ev@Base 12.0.3
 _ZN10MMgrDigest14decode_payloadEv@Base 12.0.3
 _ZN10MMgrDigest14encode_payloadEm@Base 12.0.3
 _ZN10MMgrDigestD0Ev@Base 12.0.3
 _ZN10MMgrDigestD1Ev@Base 12.0.3
 _ZN10MMgrDigestD2Ev@Base 12.0.3
 _ZN10MMgrReport14decode_payloadEv@Base 12.0.3
 _ZN10MMgrReport14encode_payloadEm@Base 12.0.3
 _ZN10MMgrReportD0Ev@Base 12.0.3
 _ZN10MMgrReportD1Ev@Base 12.0.3
 _ZN10MMgrReportD2Ev@Base 12.0.3
 _ZN10MMonGetMap14decode_payloadEv@Base 12.0.3
 _ZN10MMonGetMap14encode_payloadEm@Base 12.0.3
 _ZN10MMonGetMapD0Ev@Base 12.0.3
 _ZN10MMonGetMapD1Ev@Base 12.0.3
 _ZN10MMonGetMapD2Ev@Base 12.0.3
 _ZN10MMonHealth14decode_payloadEv@Base 12.0.3
 _ZN10MMonHealth14encode_payloadEm@Base 12.0.3
 _ZN10MMonHealthD0Ev@Base 12.0.3
 _ZN10MMonHealthD1Ev@Base 12.0.3
 _ZN10MMonHealthD2Ev@Base 12.0.3
 _ZN10MNotifyRecD0Ev@Base 12.0.3
 _ZN10MNotifyRecD1Ev@Base 12.0.3
 _ZN10MNotifyRecD2Ev@Base 12.0.3
 _ZN10MOSDBeacon14decode_payloadEv@Base 12.0.3
 _ZN10MOSDBeacon14encode_payloadEm@Base 12.0.3
 _ZN10MOSDBeaconD0Ev@Base 12.0.3
 _ZN10MOSDBeaconD1Ev@Base 12.0.3
 _ZN10MOSDBeaconD2Ev@Base 12.0.3
 _ZN10MOSDPGInfo14decode_payloadEv@Base 12.0.3
 _ZN10MOSDPGInfo14encode_payloadEm@Base 12.0.3
 _ZN10MOSDPGInfoD0Ev@Base 12.0.3
 _ZN10MOSDPGInfoD1Ev@Base 12.0.3
 _ZN10MOSDPGInfoD2Ev@Base 12.0.3
 _ZN10MOSDPGPull14decode_payloadEv@Base 12.0.3
 _ZN10MOSDPGPull14encode_payloadEm@Base 12.0.3
 _ZN10MOSDPGPullD0Ev@Base 12.0.3
 _ZN10MOSDPGPullD1Ev@Base 12.0.3
 _ZN10MOSDPGPullD2Ev@Base 12.0.3
 _ZN10MOSDPGPush14decode_payloadEv@Base 12.0.3
 _ZN10MOSDPGPush14encode_payloadEm@Base 12.0.3
 _ZN10MOSDPGPushD0Ev@Base 12.0.3
 _ZN10MOSDPGPushD1Ev@Base 12.0.3
 _ZN10MOSDPGPushD2Ev@Base 12.0.3
 _ZN10MOSDPGScan14decode_payloadEv@Base 12.0.3
 _ZN10MOSDPGScan14encode_payloadEm@Base 12.0.3
 _ZN10MOSDPGScanD0Ev@Base 12.0.3
 _ZN10MOSDPGScanD1Ev@Base 12.0.3
 _ZN10MOSDPGScanD2Ev@Base 12.0.3
 _ZN10MOSDPGTemp14decode_payloadEv@Base 12.0.3
 _ZN10MOSDPGTemp14encode_payloadEm@Base 12.0.3
 _ZN10MOSDPGTempD0Ev@Base 12.0.3
 _ZN10MOSDPGTempD1Ev@Base 12.0.3
 _ZN10MOSDPGTempD2Ev@Base 12.0.3
 _ZN10MOSDPGTrim14decode_payloadEv@Base 12.0.3
 _ZN10MOSDPGTrim14encode_payloadEm@Base 12.0.3
 _ZN10MOSDPGTrim9get_eventEv@Base 12.0.3
 _ZN10MOSDPGTrimD0Ev@Base 12.0.3
 _ZN10MOSDPGTrimD1Ev@Base 12.0.3
 _ZN10MOSDPGTrimD2Ev@Base 12.0.3
 _ZN10MOSDScrub214decode_payloadEv@Base 12.0.3
 _ZN10MOSDScrub214encode_payloadEm@Base 12.0.3
 _ZN10MOSDScrub2D0Ev@Base 12.0.3
 _ZN10MOSDScrub2D1Ev@Base 12.0.3
 _ZN10MOSDScrub2D2Ev@Base 12.0.3
 _ZN10MTimeCheck14decode_payloadEv@Base 12.0.3
 _ZN10MTimeCheck14encode_payloadEm@Base 12.0.3
 _ZN10MTimeCheckD0Ev@Base 12.0.3
 _ZN10MTimeCheckD1Ev@Base 12.0.3
 _ZN10MTimeCheckD2Ev@Base 12.0.3
 _ZN10MgrCommandD1Ev@Base 12.0.3
 _ZN10MgrCommandD2Ev@Base 12.0.3
 _ZN10MonCommand6decodeERN4ceph6buffer7v15_2_04list13iterator_implILb1EEE@Base 12.0.3
 _ZN10PGLSFilterC1Ev@Base 12.0.3
 _ZN10PGLSFilterC2Ev@Base 12.0.3
 _ZN10PGLSFilterD0Ev@Base 12.0.3
 _ZN10PGLSFilterD1Ev@Base 12.0.3
 _ZN10PGLSFilterD2Ev@Base 12.0.3
 _ZN10ProtocolV110handle_seqEPci@Base 12.0.3
 _ZN10ProtocolV110read_eventEv@Base 12.0.3
 _ZN10ProtocolV111write_eventEv@Base 12.0.3
 _ZN10ProtocolV112_conn_prefixEPSo@Base 12.0.3
 _ZN10ProtocolV112client_readyEv@Base 12.0.3
 _ZN10ProtocolV112is_connectedEv@Base 12.0.3
 _ZN10ProtocolV112requeue_sentEv@Base 12.0.3
 _ZN10ProtocolV112send_messageEP7Message@Base 12.0.3
 _ZN10ProtocolV112server_readyEv@Base 12.0.3
 _ZN10ProtocolV112wait_ack_seqEv@Base 12.0.3
 _ZN10ProtocolV112wait_messageEv@Base 12.0.3
 _ZN10ProtocolV113session_resetEv@Base 12.0.3
 _ZN10ProtocolV113write_messageEP7MessageRN4ceph6buffer7v15_2_04listEb@Base 12.0.3
 _ZN10ProtocolV114handle_ack_seqEPci@Base 12.0.3
 _ZN10ProtocolV114handle_messageEPci@Base 12.0.3
 _ZN10ProtocolV114handle_tag_ackEPci@Base 12.0.3
 _ZN10ProtocolV114reset_securityEv@Base 12.0.3
 _ZN10ProtocolV114send_keepaliveEv@Base 12.0.3
 _ZN10ProtocolV114throttle_bytesEv@Base 12.0.3
 _ZN10ProtocolV116reset_recv_stateEv@Base 12.0.3
 _ZN10ProtocolV116run_continuationEP2CtIS_E@Base 12.0.3
 _ZN10ProtocolV116throttle_messageEv@Base 12.0.3
 _ZN10ProtocolV117discard_out_queueEv@Base 12.0.3
 _ZN10ProtocolV117handle_keepalive2EPci@Base 12.0.3
 _ZN10ProtocolV117randomize_out_seqEv@Base 12.0.3
 _ZN10ProtocolV117read_message_dataEv@Base 12.0.3
 _ZN10ProtocolV118_get_next_outgoingEPN4ceph6buffer7v15_2_04listE@Base 12.0.3
 _ZN10ProtocolV118read_message_frontEv@Base 12.0.3
 _ZN10ProtocolV118send_client_bannerEv@Base 12.0.3
 _ZN10ProtocolV118send_server_bannerEv@Base 12.0.3
 _ZN10ProtocolV118wait_client_bannerEv@Base 12.0.3
 _ZN10ProtocolV118wait_connect_replyEv@Base 12.0.3
 _ZN10ProtocolV118wait_server_bannerEv@Base 12.0.3
 _ZN10ProtocolV119handle_in_seq_writeEi@Base 12.0.3
 _ZN10ProtocolV119handle_message_dataEPci@Base 12.0.3
 _ZN10ProtocolV119read_message_footerEv@Base 12.0.3
 _ZN10ProtocolV119read_message_middleEv@Base 12.0.3
 _ZN10ProtocolV120handle_client_bannerEPci@Base 12.0.3
 _ZN10ProtocolV120handle_message_frontEPci@Base 12.0.3
 _ZN10ProtocolV120handle_my_addr_writeEi@Base 12.0.3
 _ZN10ProtocolV120prepare_send_messageEmP7MessageRN4ceph6buffer7v15_2_04listE@Base 12.0.3
 _ZN10ProtocolV120send_connect_messageEv@Base 12.0.3
 _ZN10ProtocolV120wait_connect_messageEv@Base 12.0.3
 _ZN10ProtocolV121handle_keepalive2_ackEPci@Base 12.0.3
 _ZN10ProtocolV121handle_message_footerEPci@Base 12.0.3
 _ZN10ProtocolV121handle_message_headerEPci@Base 12.0.3
 _ZN10ProtocolV121handle_message_middleEPci@Base 12.0.3
 _ZN10ProtocolV122discard_requeued_up_toEmm@Base 12.0.3
 _ZN10ProtocolV122handle_connect_reply_1EPci@Base 12.0.3
 _ZN10ProtocolV122handle_connect_reply_2Ev@Base 12.0.3
 _ZN10ProtocolV123append_keepalive_or_ackEbP7utime_t@Base 12.0.3
 _ZN10ProtocolV123throttle_dispatch_queueEv@Base 12.0.3
 _ZN10ProtocolV123wait_connect_reply_authEv@Base 12.0.3
 _ZN10ProtocolV124handle_connect_message_1EPci@Base 12.0.3
 _ZN10ProtocolV124handle_connect_message_2Ev@Base 12.0.3
 _ZN10ProtocolV125handle_connect_reply_authEPci@Base 12.0.3
 _ZN10ProtocolV125read_message_data_prepareEv@Base 12.0.3
 _ZN10ProtocolV125wait_connect_message_authEv@Base 12.0.3
 _ZN10ProtocolV126handle_client_banner_writeEi@Base 12.0.3
 _ZN10ProtocolV126handle_server_banner_writeEi@Base 12.0.3
 _ZN10ProtocolV126send_connect_message_replyEcR22ceph_msg_connect_replyRN4ceph6buffer7v15_2_04listE@Base 12.0.3
 _ZN10ProtocolV127handle_connect_message_authEPci@Base 12.0.3
 _ZN10ProtocolV128handle_connect_message_writeEi@Base 12.0.3
 _ZN10ProtocolV133handle_server_banner_and_identifyEPci@Base 12.0.3
 _ZN10ProtocolV134handle_connect_message_reply_writeEi@Base 12.0.3
 _ZN10ProtocolV140handle_ready_connect_message_reply_writeEi@Base 12.0.3
 _ZN10ProtocolV14openER22ceph_msg_connect_replyRN4ceph6buffer7v15_2_04listE@Base 12.0.3
 _ZN10ProtocolV14readER5CtFunIS_JPciEEiS1_@Base 12.0.3
 _ZN10ProtocolV14stopEv@Base 12.0.3
 _ZN10ProtocolV15faultEv@Base 12.0.3
 _ZN10ProtocolV15readyEv@Base 12.0.3
 _ZN10ProtocolV15writeER5CtFunIS_JiEERN4ceph6buffer7v15_2_04listE@Base 12.0.3
 _ZN10ProtocolV16acceptEv@Base 12.0.3
 _ZN10ProtocolV17connectEv@Base 12.0.3
 _ZN10ProtocolV17replaceERKN5boost13intrusive_ptrI15AsyncConnectionEER22ceph_msg_connect_replyRN4ceph6buffer7v15_2_04listE@Base 12.0.3
 _ZN10ProtocolV18wait_seqEv@Base 12.0.3
 _ZN10ProtocolV19is_queuedEv@Base 12.0.3
 _ZN10ProtocolV1C1EP15AsyncConnection@Base 12.0.3
 _ZN10ProtocolV1C2EP15AsyncConnection@Base 12.0.3
 _ZN10ProtocolV1D0Ev@Base 12.0.3
 _ZN10ProtocolV1D1Ev@Base 12.0.3
 _ZN10ProtocolV1D2Ev@Base 12.0.3
 _ZN10ProtocolV210read_eventEv@Base 12.0.3
 _ZN10ProtocolV210read_frameEv@Base 12.0.3
 _ZN10ProtocolV211finish_authEv@Base 12.0.3
 _ZN10ProtocolV211handle_waitERN4ceph6buffer7v15_2_04listE@Base 12.0.3
 _ZN10ProtocolV211write_eventEv@Base 12.0.3
 _ZN10ProtocolV212_conn_prefixEPSo@Base 12.0.3
 _ZN10ProtocolV212append_frameIN4ceph4msgr2v212MessageFrameEEEbRT_@Base 12.0.3
 _ZN10ProtocolV212append_frameIN4ceph4msgr2v214KeepAliveFrameEEEbRT_@Base 12.0.3
 _ZN10ProtocolV212append_frameIN4ceph4msgr2v217KeepAliveFrameAckEEEbRT_@Base 12.0.3
 _ZN10ProtocolV212append_frameIN4ceph4msgr2v28AckFrameEEEbRT_@Base 12.0.3
 _ZN10ProtocolV212handle_helloERN4ceph6buffer7v15_2_04listE@Base 12.0.3
 _ZN10ProtocolV212is_connectedEv@Base 12.0.3
 _ZN10ProtocolV212requeue_sentEv@Base 12.0.3
 _ZN10ProtocolV212send_messageEP7Message@Base 12.0.3
 _ZN10ProtocolV212server_readyEv@Base 12.0.3
 _ZN10ProtocolV213reset_sessionEv@Base 12.0.3
 _ZN10ProtocolV213write_messageEP7Messageb@Base 12.0.3
 _ZN10ProtocolV214handle_messageEv@Base 12.0.3
 _ZN10ProtocolV214reset_securityEv@Base 12.0.3
 _ZN10ProtocolV214reset_throttleEv@Base 12.0.3
 _ZN10ProtocolV214send_keepaliveEv@Base 12.0.3
 _ZN10ProtocolV214send_reconnectEv@Base 12.0.3
 _ZN10ProtocolV214throttle_bytesEv@Base 12.0.3
 _ZN10ProtocolV216_auth_bad_methodEi@Base 12.0.3
 _ZN10ProtocolV216_banner_exchangeER2CtIS_E@Base 12.0.3
 _ZN10ProtocolV216handle_auth_doneERN4ceph6buffer7v15_2_04listE@Base 12.0.3
 _ZN10ProtocolV216handle_reconnectERN4ceph6buffer7v15_2_04listE@Base 12.0.3
 _ZN10ProtocolV216reset_recv_stateEv@Base 12.0.3
 _ZN10ProtocolV216reuse_connectionERKN5boost13intrusive_ptrI15AsyncConnectionEEPS_@Base 12.0.3
 _ZN10ProtocolV216run_continuationEP2CtIS_E@Base 12.0.3
 _ZN10ProtocolV216run_continuationER2CtIS_E@Base 12.0.3
 _ZN10ProtocolV216throttle_messageEv@Base 12.0.3
 _ZN10ProtocolV217discard_out_queueEv@Base 12.0.3
 _ZN10ProtocolV217handle_keepalive2ERN4ceph6buffer7v15_2_04listE@Base 12.0.3
 _ZN10ProtocolV217send_auth_requestERSt6vectorIjSaIjEE@Base 12.0.3
 _ZN10ProtocolV217send_client_identEv@Base 12.0.3
 _ZN10ProtocolV217send_reconnect_okEv@Base 12.0.3
 _ZN10ProtocolV217send_server_identEv@Base 12.0.3
 _ZN10ProtocolV218_get_next_outgoingEv@Base 12.0.3
 _ZN10ProtocolV218finish_client_authEv@Base 12.0.3
 _ZN10ProtocolV218handle_message_ackERN4ceph6buffer7v15_2_04listE@Base 12.0.3
 _ZN10ProtocolV218handle_message_ackEm@Base 12.0.3
 _ZN10ProtocolV218read_frame_segmentEv@Base 12.0.3
 _ZN10ProtocolV219_handle_peer_bannerEOSt10unique_ptrIN4ceph6buffer7v15_2_08ptr_nodeENS4_8disposerEEi@Base 12.0.3
 _ZN10ProtocolV219handle_auth_requestERN4ceph6buffer7v15_2_04listE@Base 12.0.3
 _ZN10ProtocolV219handle_client_identERN4ceph6buffer7v15_2_04listE@Base 12.0.3
 _ZN10ProtocolV219handle_reconnect_okERN4ceph6buffer7v15_2_04listE@Base 12.0.3
 _ZN10ProtocolV219handle_server_identERN4ceph6buffer7v15_2_04listE@Base 12.0.3
 _ZN10ProtocolV220_handle_auth_requestERN4ceph6buffer7v15_2_04listEb@Base 12.0.3
 _ZN10ProtocolV220handle_frame_payloadEv@Base 12.0.3
 _ZN10ProtocolV220handle_session_resetERN4ceph6buffer7v15_2_04listE@Base 12.0.3
 _ZN10ProtocolV220handle_session_retryERN4ceph6buffer7v15_2_04listE@Base 12.0.3
 _ZN10ProtocolV220prepare_send_messageEmP7Message@Base 12.0.3
 _ZN10ProtocolV221_wait_for_peer_bannerEv@Base 12.0.3
 _ZN10ProtocolV221handle_auth_signatureERN4ceph6buffer7v15_2_04listE@Base 12.0.3
 _ZN10ProtocolV221handle_keepalive2_ackERN4ceph6buffer7v15_2_04listE@Base 12.0.3
 _ZN10ProtocolV222discard_requeued_up_toEmm@Base 12.0.3
 _ZN10ProtocolV222handle_auth_bad_methodERN4ceph6buffer7v15_2_04listE@Base 12.0.3
 _ZN10ProtocolV222handle_auth_reply_moreERN4ceph6buffer7v15_2_04listE@Base 12.0.3
 _ZN10ProtocolV223throttle_dispatch_queueEv@Base 12.0.3
 _ZN10ProtocolV224handle_auth_request_moreERN4ceph6buffer7v15_2_04listE@Base 12.0.3
 _ZN10ProtocolV225handle_read_frame_segmentEOSt10unique_ptrIN4ceph6buffer7v15_2_08ptr_nodeENS4_8disposerEEi@Base 12.0.3
 _ZN10ProtocolV226_handle_read_frame_segmentEv@Base 12.0.3
 _ZN10ProtocolV226handle_existing_connectionERKN5boost13intrusive_ptrI15AsyncConnectionEE@Base 12.0.3
 _ZN10ProtocolV226handle_read_frame_dispatchEv@Base 12.0.3
 _ZN10ProtocolV227_handle_peer_banner_payloadEOSt10unique_ptrIN4ceph6buffer7v15_2_08ptr_nodeENS4_8disposerEEi@Base 12.0.3
 _ZN10ProtocolV227handle_session_retry_globalERN4ceph6buffer7v15_2_04listE@Base 12.0.3
 _ZN10ProtocolV227post_client_banner_exchangeEv@Base 12.0.3
 _ZN10ProtocolV227post_server_banner_exchangeEv@Base 12.0.3
 _ZN10ProtocolV228start_client_banner_exchangeEv@Base 12.0.3
 _ZN10ProtocolV228start_server_banner_exchangeEv@Base 12.0.3
 _ZN10ProtocolV229handle_ident_missing_featuresERN4ceph6buffer7v15_2_04listE@Base 12.0.3
 _ZN10ProtocolV231handle_read_frame_epilogue_mainEOSt10unique_ptrIN4ceph6buffer7v15_2_08ptr_nodeENS4_8disposerEEi@Base 12.0.3
 _ZN10ProtocolV231handle_read_frame_preamble_mainEOSt10unique_ptrIN4ceph6buffer7v15_2_08ptr_nodeENS4_8disposerEEi@Base 12.0.3
 _ZN10ProtocolV232_handle_read_frame_epilogue_mainEv@Base 12.0.3
 _ZN10ProtocolV24readER8CtRxNodeIS_EOSt10unique_ptrIN4ceph6buffer7v15_2_08ptr_nodeENS7_8disposerEE@Base 12.0.3
 _ZN10ProtocolV24stopEv@Base 12.0.3
 _ZN10ProtocolV25faultEv@Base 12.0.3
 _ZN10ProtocolV25readyEv@Base 12.0.3
 _ZN10ProtocolV25writeERKNSt7__cxx1112basic_stringIcSt11char_traitsIcESaIcEEER5CtFunIS_JEERN4ceph6buffer7v15_2_04listE@Base 12.0.3
 _ZN10ProtocolV25writeIN4ceph4msgr2v210HelloFrameEEEP2CtIS_ERKNSt7__cxx1112basic_stringIcSt11char_traitsIcESaIcEEER5CtFunIS_JEERT_@Base 12.0.3
 _ZN10ProtocolV25writeIN4ceph4msgr2v210ResetFrameEEEP2CtIS_ERKNSt7__cxx1112basic_stringIcSt11char_traitsIcESaIcEEER5CtFunIS_JEERT_@Base 12.0.3
 _ZN10ProtocolV25writeIN4ceph4msgr2v210RetryFrameEEEP2CtIS_ERKNSt7__cxx1112basic_stringIcSt11char_traitsIcESaIcEEER5CtFunIS_JEERT_@Base 12.0.3
 _ZN10ProtocolV25writeIN4ceph4msgr2v213AuthDoneFrameEEEP2CtIS_ERKNSt7__cxx1112basic_stringIcSt11char_traitsIcESaIcEEER5CtFunIS_JEERT_@Base 12.0.3
 _ZN10ProtocolV25writeIN4ceph4msgr2v214ReconnectFrameEEEP2CtIS_ERKNSt7__cxx1112basic_stringIcSt11char_traitsIcESaIcEEER5CtFunIS_JEERT_@Base 12.0.3
 _ZN10ProtocolV25writeIN4ceph4msgr2v216AuthRequestFrameEEEP2CtIS_ERKNSt7__cxx1112basic_stringIcSt11char_traitsIcESaIcEEER5CtFunIS_JEERT_@Base 12.0.3
 _ZN10ProtocolV25writeIN4ceph4msgr2v216ClientIdentFrameEEEP2CtIS_ERKNSt7__cxx1112basic_stringIcSt11char_traitsIcESaIcEEER5CtFunIS_JEERT_@Base 12.0.3
 _ZN10ProtocolV25writeIN4ceph4msgr2v216ReconnectOkFrameEEEP2CtIS_ERKNSt7__cxx1112basic_stringIcSt11char_traitsIcESaIcEEER5CtFunIS_JEERT_@Base 12.0.3
 _ZN10ProtocolV25writeIN4ceph4msgr2v216RetryGlobalFrameEEEP2CtIS_ERKNSt7__cxx1112basic_stringIcSt11char_traitsIcESaIcEEER5CtFunIS_JEERT_@Base 12.0.3
 _ZN10ProtocolV25writeIN4ceph4msgr2v216ServerIdentFrameEEEP2CtIS_ERKNSt7__cxx1112basic_stringIcSt11char_traitsIcESaIcEEER5CtFunIS_JEERT_@Base 12.0.3
 _ZN10ProtocolV25writeIN4ceph4msgr2v218AuthBadMethodFrameEEEP2CtIS_ERKNSt7__cxx1112basic_stringIcSt11char_traitsIcESaIcEEER5CtFunIS_JEERT_@Base 12.0.3
 _ZN10ProtocolV25writeIN4ceph4msgr2v218AuthReplyMoreFrameEEEP2CtIS_ERKNSt7__cxx1112basic_stringIcSt11char_traitsIcESaIcEEER5CtFunIS_JEERT_@Base 12.0.3
 _ZN10ProtocolV25writeIN4ceph4msgr2v218AuthSignatureFrameEEEP2CtIS_ERKNSt7__cxx1112basic_stringIcSt11char_traitsIcESaIcEEER5CtFunIS_JEERT_@Base 12.0.3
 _ZN10ProtocolV25writeIN4ceph4msgr2v220AuthRequestMoreFrameEEEP2CtIS_ERKNSt7__cxx1112basic_stringIcSt11char_traitsIcESaIcEEER5CtFunIS_JEERT_@Base 12.0.3
 _ZN10ProtocolV25writeIN4ceph4msgr2v225IdentMissingFeaturesFrameEEEP2CtIS_ERKNSt7__cxx1112basic_stringIcSt11char_traitsIcESaIcEEER5CtFunIS_JEERT_@Base 12.0.3
 _ZN10ProtocolV25writeIN4ceph4msgr2v29WaitFrameEEEP2CtIS_ERKNSt7__cxx1112basic_stringIcSt11char_traitsIcESaIcEEER5CtFunIS_JEERT_@Base 12.0.3
 _ZN10ProtocolV26_faultEv@Base 12.0.3
 _ZN10ProtocolV26acceptEv@Base 12.0.3
 _ZN10ProtocolV27connectEv@Base 12.0.3
 _ZN10ProtocolV29is_queuedEv@Base 12.0.3
 _ZN10ProtocolV2C1EP15AsyncConnection@Base 12.0.3
 _ZN10ProtocolV2C2EP15AsyncConnection@Base 12.0.3
 _ZN10ProtocolV2D0Ev@Base 12.0.3
 _ZN10ProtocolV2D1Ev@Base 12.0.3
 _ZN10ProtocolV2D2Ev@Base 12.0.3
 _ZN10RDMAWorker10initializeEv@Base 12.0.3
 _ZN10RDMAWorker13get_reged_memEP23RDMAConnectedSocketImplRSt6vectorIPN10Infiniband13MemoryManager5ChunkESaIS6_EEm@Base 12.0.3
 _ZN10RDMAWorker14C_handle_cq_tx10do_requestEm@Base 12.0.3
 _ZN10RDMAWorker14C_handle_cq_txD0Ev@Base 12.0.3
 _ZN10RDMAWorker14C_handle_cq_txD1Ev@Base 12.0.3
 _ZN10RDMAWorker14C_handle_cq_txD2Ev@Base 12.0.3
 _ZN10RDMAWorker22handle_pending_messageEv@Base 12.0.3
 _ZN10RDMAWorker6listenER13entity_addr_tjRK13SocketOptionsP12ServerSocket@Base 12.0.3
 _ZN10RDMAWorker7connectERK13entity_addr_tRK13SocketOptionsP15ConnectedSocket@Base 12.0.3
 _ZN10RDMAWorkerC1EPN4ceph6common11CephContextEj@Base 12.0.3
 _ZN10RDMAWorkerC2EPN4ceph6common11CephContextEj@Base 12.0.3
 _ZN10RDMAWorkerD0Ev@Base 12.0.3
 _ZN10RDMAWorkerD1Ev@Base 12.0.3
 _ZN10RDMAWorkerD2Ev@Base 12.0.3
 _ZN10RabinChunk12end_of_chunkEmi@Base 12.0.3
 _ZN10RabinChunk14gen_rabin_hashEPcmm@Base 12.0.3
 _ZN10RabinChunk15do_rabin_chunksERN4ceph6buffer7v15_2_04listERSt6vectorISt4pairImmESaIS7_EEmm@Base 12.0.3
 _ZN10ServiceMap23generate_test_instancesERNSt7__cxx114listIPS_SaIS2_EEE@Base 12.0.3
 _ZN10ServiceMap6Daemon23generate_test_instancesERNSt7__cxx114listIPS0_SaIS3_EEE@Base 12.0.3
 _ZN10ServiceMap6Daemon6decodeERN4ceph6buffer7v15_2_04list13iterator_implILb1EEE@Base 12.0.3
 _ZN10ServiceMap6decodeERN4ceph6buffer7v15_2_04list13iterator_implILb1EEE@Base 12.0.3
 _ZN10ServiceMap7Service23generate_test_instancesERNSt7__cxx114listIPS0_SaIS3_EEE@Base 12.0.3
 _ZN10ServiceMap7Service6decodeERN4ceph6buffer7v15_2_04list13iterator_implILb1EEE@Base 12.0.3
 _ZN10SubProcess11add_cmd_argEPKc@Base 12.0.3
 _ZN10SubProcess11close_stdinEv@Base 12.0.3
 _ZN10SubProcess12add_cmd_argsEPKcz@Base 12.0.3
 _ZN10SubProcess12close_stderrEv@Base 12.0.3
 _ZN10SubProcess12close_stdoutEv@Base 12.0.3
 _ZN10SubProcess4execEv@Base 12.0.3
 _ZN10SubProcess4joinEv@Base 12.0.3
 _ZN10SubProcess5closeERi@Base 12.0.3
 _ZN10SubProcess5spawnEv@Base 12.0.3
 _ZN10SubProcessC1EPKcNS_9std_fd_opES2_S2_@Base 12.0.3
 _ZN10SubProcessC2EPKcNS_9std_fd_opES2_S2_@Base 12.0.3
 _ZN10SubProcessD0Ev@Base 12.0.3
 _ZN10SubProcessD1Ev@Base 12.0.3
 _ZN10SubProcessD2Ev@Base 12.0.3
 _ZN10ThreadPool10WorkThread5entryEv@Base 12.0.3
 _ZN10ThreadPool10WorkThreadD0Ev@Base 12.0.3
 _ZN10ThreadPool10WorkThreadD1Ev@Base 12.0.3
 _ZN10ThreadPool10WorkThreadD2Ev@Base 12.0.3
 _ZN10ThreadPool13start_threadsEv@Base 12.0.3
 _ZN10ThreadPool16join_old_threadsEv@Base 12.0.3
 _ZN10ThreadPool18handle_conf_changeERKN4ceph6common11ConfigProxyERKSt3setINSt7__cxx1112basic_stringIcSt11char_traitsIcESaIcEEESt4lessISB_ESaISB_EE@Base 12.0.3
 _ZN10ThreadPool4stopEb@Base 12.0.3
 _ZN10ThreadPool5drainEPNS_10WorkQueue_E@Base 12.0.3
 _ZN10ThreadPool5pauseEv@Base 12.0.3
 _ZN10ThreadPool5startEv@Base 12.0.3
 _ZN10ThreadPool6workerEPNS_10WorkThreadE@Base 12.0.3
 _ZN10ThreadPool7unpauseEv@Base 12.0.3
 _ZN10ThreadPool8TPHandle16reset_tp_timeoutEv@Base 12.0.3
 _ZN10ThreadPool8TPHandle18suspend_tp_timeoutEv@Base 12.0.3
 _ZN10ThreadPool8TPHandleD0Ev@Base 12.0.3
 _ZN10ThreadPool8TPHandleD1Ev@Base 12.0.3
 _ZN10ThreadPool8TPHandleD2Ev@Base 12.0.3
 _ZN10ThreadPool9WorkQueueIN16ParallelPGMapper4ItemEE13_void_dequeueEv@Base 12.0.3
 _ZN10ThreadPool9WorkQueueIN16ParallelPGMapper4ItemEE13_void_processEPvRNS_8TPHandleE@Base 12.0.3
 _ZN10ThreadPool9WorkQueueIN16ParallelPGMapper4ItemEE15_process_finishEPS2_@Base 12.0.3
 _ZN10ThreadPool9WorkQueueIN16ParallelPGMapper4ItemEE20_void_process_finishEPv@Base 12.0.3
 _ZN10ThreadPool9pause_newEv@Base 12.0.3
 _ZN10ThreadPoolC1EPN4ceph6common11CephContextENSt7__cxx1112basic_stringIcSt11char_traitsIcESaIcEEES9_iPKc@Base 12.0.3
 _ZN10ThreadPoolC2EPN4ceph6common11CephContextENSt7__cxx1112basic_stringIcSt11char_traitsIcESaIcEEES9_iPKc@Base 12.0.3
 _ZN10ThreadPoolD0Ev@Base 12.0.3
 _ZN10ThreadPoolD1Ev@Base 12.0.3
 _ZN10ThreadPoolD2Ev@Base 12.0.3
 _ZN10ghobject_t23generate_test_instancesERNSt7__cxx114listIPS_SaIS2_EEE@Base 12.0.3
 _ZN10ghobject_t5parseERKNSt7__cxx1112basic_stringIcSt11char_traitsIcESaIcEEE@Base 12.0.3
 _ZN10ghobject_t6decodeERN11json_spirit10Value_implINS0_13Config_vectorINSt7__cxx1112basic_stringIcSt11char_traitsIcESaIcEEEEEEE@Base 12.0.3
 _ZN10ghobject_t6decodeERN4ceph6buffer7v15_2_04list13iterator_implILb1EEE@Base 12.0.3
 _ZN10mds_load_t23generate_test_instancesERNSt7__cxx114listIPS_SaIS2_EEE@Base 12.0.3
 _ZN10mds_load_t6decodeERN4ceph6buffer7v15_2_04list13iterator_implILb1EEE@Base 12.0.3
 _ZN10mon_info_t6decodeERN4ceph6buffer7v15_2_04list13iterator_implILb1EEE@Base 12.0.3
 _ZN10mon_info_tD1Ev@Base 12.0.3
 _ZN10mon_info_tD2Ev@Base 12.0.3
 _ZN10osd_info_t23generate_test_instancesERNSt7__cxx114listIPS_SaIS2_EEE@Base 12.0.3
 _ZN10osd_info_t6decodeERN4ceph6buffer7v15_2_04list13iterator_implILb1EEE@Base 12.0.3
 _ZN10osd_stat_t23generate_test_instancesERNSt7__cxx114listIPS_SaIS2_EEE@Base 12.0.3
 _ZN10osd_stat_t3addERKS_@Base 12.0.3
 _ZN10osd_stat_t6decodeERN4ceph6buffer7v15_2_04list13iterator_implILb1EEE@Base 12.0.3
 _ZN10osd_stat_tC1ERKS_@Base 12.0.3
 _ZN10osd_stat_tC2ERKS_@Base 12.0.3
 _ZN10osd_stat_tD1Ev@Base 12.0.3
 _ZN10osd_stat_tD2Ev@Base 12.0.3
 _ZN10pg_lease_t23generate_test_instancesERNSt7__cxx114listIPS_SaIS2_EEE@Base 12.0.3
 _ZN10pg_lease_t6decodeERN4ceph6buffer7v15_2_04list13iterator_implILb1EEE@Base 12.0.3
 _ZN10pg_query_t23generate_test_instancesERNSt7__cxx114listIPS_SaIS2_EEE@Base 12.0.3
 _ZN10pg_query_t6decodeERN4ceph6buffer7v15_2_04list13iterator_implILb1EEE@Base 12.0.3
 _ZN10pg_shard_t6decodeERN4ceph6buffer7v15_2_04list13iterator_implILb1EEE@Base 12.0.3
 _ZN10shard_id_t8NO_SHARDE@Base 12.0.3
 _ZN11AdminSocket13do_tell_queueEv@Base 12.0.3
 _ZN11AdminSocket15bind_and_listenERKNSt7__cxx1112basic_stringIcSt11char_traitsIcESaIcEEEPi@Base 12.0.3
 _ZN11AdminSocket15execute_commandERKSt6vectorINSt7__cxx1112basic_stringIcSt11char_traitsIcESaIcEEESaIS6_EERKN4ceph6buffer7v15_2_04listERSoPSE_@Base 12.0.3
 _ZN11AdminSocket15execute_commandERKSt6vectorINSt7__cxx1112basic_stringIcSt11char_traitsIcESaIcEEESaIS6_EERKN4ceph6buffer7v15_2_04listESt8functionIFviRKS6_RSE_EE@Base 12.0.3
 _ZN11AdminSocket16register_commandESt17basic_string_viewIcSt11char_traitsIcEEP15AdminSocketHookS3_@Base 12.0.3
 _ZN11AdminSocket17find_matched_hookERNSt7__cxx1112basic_stringIcSt11char_traitsIcESaIcEEERKSt3mapIS5_N5boost7variantIS5_JbldSt6vectorIS5_SaIS5_EESA_IlSaIlEESA_IdSaIdEEEEESt4lessIvESaISt4pairIKS5_SH_EEE@Base 12.0.3
 _ZN11AdminSocket18create_wakeup_pipeB5cxx11EPiS0_@Base 12.0.3
 _ZN11AdminSocket18queue_tell_commandEN5boost13intrusive_ptrIK11MMonCommandEE@Base 12.0.3
 _ZN11AdminSocket18queue_tell_commandEN5boost13intrusive_ptrIK8MCommandEE@Base 12.0.3
 _ZN11AdminSocket19destroy_wakeup_pipeB5cxx11Ev@Base 12.0.3
 _ZN11AdminSocket19unregister_commandsEPK15AdminSocketHook@Base 12.0.3
 _ZN11AdminSocket4initERKNSt7__cxx1112basic_stringIcSt11char_traitsIcESaIcEEE@Base 12.0.3
 _ZN11AdminSocket5chmodEj@Base 12.0.3
 _ZN11AdminSocket5chownEjj@Base 12.0.3
 _ZN11AdminSocket5entryEv@Base 12.0.3
 _ZN11AdminSocket6wakeupEv@Base 12.0.3
 _ZN11AdminSocket8shutdownEv@Base 12.0.3
 _ZN11AdminSocket9do_acceptEv@Base 12.0.3
 _ZN11AdminSocketC1EPN4ceph6common11CephContextE@Base 12.0.3
 _ZN11AdminSocketC2EPN4ceph6common11CephContextE@Base 12.0.3
 _ZN11AdminSocketD1Ev@Base 12.0.3
 _ZN11AdminSocketD2Ev@Base 12.0.3
 _ZN11BloomHitSet4sealEv@Base 12.0.3
 _ZN11BloomHitSet6Params6decodeERN4ceph6buffer7v15_2_04list13iterator_implILb1EEE@Base 12.0.3
 _ZN11BloomHitSet6ParamsD0Ev@Base 12.0.3
 _ZN11BloomHitSet6ParamsD1Ev@Base 12.0.3
 _ZN11BloomHitSet6ParamsD2Ev@Base 12.0.3
 _ZN11BloomHitSet6decodeERN4ceph6buffer7v15_2_04list13iterator_implILb1EEE@Base 12.0.3
 _ZN11BloomHitSet6insertERK9hobject_t@Base 12.0.3
 _ZN11BloomHitSetD0Ev@Base 12.0.3
 _ZN11BloomHitSetD1Ev@Base 12.0.3
 _ZN11BloomHitSetD2Ev@Base 12.0.3
 _ZN11C_SaferCond6finishEi@Base 12.0.3
 _ZN11C_SaferCond8completeEi@Base 12.0.3
 _ZN11C_SaferCondD0Ev@Base 12.0.3
 _ZN11C_SaferCondD1Ev@Base 12.0.3
 _ZN11C_SaferCondD2Ev@Base 12.0.3
 _ZN11CrushTester14adjust_weightsERSt6vectorIjSaIjEE@Base 12.0.3
 _ZN11CrushTester14test_with_forkEi@Base 12.0.3
 _ZN11CrushTester15tester_data_setD1Ev@Base 12.0.3
 _ZN11CrushTester15tester_data_setD2Ev@Base 12.0.3
 _ZN11CrushTester16random_placementEiRSt6vectorIiSaIiEEiRS0_IjSaIjEE@Base 12.0.3
 _ZN11CrushTester17set_device_weightEif@Base 12.0.3
 _ZN11CrushTester21check_valid_placementEiSt6vectorIiSaIiEERKS0_IjSaIjEE@Base 12.0.3
 _ZN11CrushTester21get_collapsed_mappingEv@Base 12.0.3
 _ZN11CrushTester21write_data_set_to_csvENSt7__cxx1112basic_stringIcSt11char_traitsIcESaIcEEERNS_15tester_data_setE@Base 12.0.3
 _ZN11CrushTester28get_maximum_affected_by_ruleEi@Base 12.0.3
 _ZN11CrushTester40write_integer_indexed_scalar_data_stringERSt6vectorINSt7__cxx1112basic_stringIcSt11char_traitsIcESaIcEEESaIS6_EEif@Base 12.0.3
 _ZN11CrushTester40write_integer_indexed_scalar_data_stringERSt6vectorINSt7__cxx1112basic_stringIcSt11char_traitsIcESaIcEEESaIS6_EEii@Base 12.0.3
 _ZN11CrushTester40write_integer_indexed_vector_data_stringERSt6vectorINSt7__cxx1112basic_stringIcSt11char_traitsIcESaIcEEESaIS6_EEiS0_IfSaIfEE@Base 12.0.3
 _ZN11CrushTester40write_integer_indexed_vector_data_stringERSt6vectorINSt7__cxx1112basic_stringIcSt11char_traitsIcESaIcEEESaIS6_EEiS0_IiSaIiEE@Base 12.0.3
 _ZN11CrushTester4testEv@Base 12.0.3
 _ZN11CrushTester7compareER12CrushWrapper@Base 12.0.3
 _ZN11DumpVisitor12try_rmobjectEm@Base 12.0.3
 _ZN11DumpVisitor12update_snapsERKSt3setI8snapid_tSt4lessIS1_ESaIS1_EE@Base 12.0.3
 _ZN11DumpVisitor16rollback_extentsEmRKSt6vectorISt4pairImmESaIS2_EE@Base 12.0.3
 _ZN11DumpVisitor6appendEm@Base 12.0.3
 _ZN11DumpVisitor6createEv@Base 12.0.3
 _ZN11DumpVisitor8rmobjectEm@Base 12.0.3
 _ZN11DumpVisitor8setattrsERSt3mapINSt7__cxx1112basic_stringIcSt11char_traitsIcESaIcEEESt8optionalIN4ceph6buffer7v15_2_04listEESt4lessIS6_ESaISt4pairIKS6_SC_EEE@Base 12.0.3
 _ZN11DumpVisitorD0Ev@Base 12.0.3
 _ZN11DumpVisitorD1Ev@Base 12.0.3
 _ZN11DumpVisitorD2Ev@Base 12.0.3
 _ZN11EpollDriver10event_waitERSt6vectorI14FiredFileEventSaIS1_EEP7timeval@Base 12.0.3
 _ZN11EpollDriver13resize_eventsEi@Base 12.0.3
 _ZN11EpollDriver4initEP11EventCenteri@Base 12.0.3
 _ZN11EpollDriver9add_eventEiii@Base 12.0.3
 _ZN11EpollDriver9del_eventEiii@Base 12.0.3
 _ZN11EpollDriverD0Ev@Base 12.0.3
 _ZN11EpollDriverD1Ev@Base 12.0.3
 _ZN11EpollDriverD2Ev@Base 12.0.3
 _ZN11EventCenter13_event_prefixEPSo@Base 12.0.3
 _ZN11EventCenter14process_eventsEjPNSt6chrono8durationImSt5ratioILl1ELl1000000000EEEE@Base 12.0.3
 _ZN11EventCenter17create_file_eventEiiP13EventCallback@Base 12.0.3
 _ZN11EventCenter17create_time_eventEmP13EventCallback@Base 12.0.3
 _ZN11EventCenter17delete_file_eventEii@Base 12.0.3
 _ZN11EventCenter17delete_time_eventEm@Base 12.0.3
 _ZN11EventCenter19process_time_eventsEv@Base 12.0.3
 _ZN11EventCenter23dispatch_event_externalEP13EventCallback@Base 12.0.3
 _ZN11EventCenter4initEijRKNSt7__cxx1112basic_stringIcSt11char_traitsIcESaIcEEE@Base 12.0.3
 _ZN11EventCenter6PollerC1EPS_RKNSt7__cxx1112basic_stringIcSt11char_traitsIcESaIcEEE@Base 12.0.3
 _ZN11EventCenter6PollerC2EPS_RKNSt7__cxx1112basic_stringIcSt11char_traitsIcESaIcEEE@Base 12.0.3
 _ZN11EventCenter6PollerD0Ev@Base 12.0.3
 _ZN11EventCenter6PollerD1Ev@Base 12.0.3
 _ZN11EventCenter6PollerD2Ev@Base 12.0.3
 _ZN11EventCenter6wakeupEv@Base 12.0.3
 _ZN11EventCenter9set_ownerEv@Base 12.0.3
 _ZN11EventCenterD1Ev@Base 12.0.3
 _ZN11EventCenterD2Ev@Base 12.0.3
 _ZN11EventDriver11need_wakeupEv@Base 12.0.3
 _ZN11JSONDecoder3errD0Ev@Base 12.0.3
 _ZN11JSONDecoder3errD1Ev@Base 12.0.3
 _ZN11JSONDecoder3errD2Ev@Base 12.0.3
 _ZN11JSONObjIter3setERKSt17_Rb_tree_iteratorISt4pairIKNSt7__cxx1112basic_stringIcSt11char_traitsIcESaIcEEEP7JSONObjEESE_@Base 12.0.3
 _ZN11JSONObjIterC1Ev@Base 12.0.3
 _ZN11JSONObjIterC2Ev@Base 12.0.3
 _ZN11JSONObjIterD1Ev@Base 12.0.3
 _ZN11JSONObjIterD2Ev@Base 12.0.3
 _ZN11JSONObjIterdeEv@Base 12.0.3
 _ZN11JSONObjIterppEv@Base 12.0.3
 _ZN11LogEntryKey23generate_test_instancesERNSt7__cxx114listIPS_SaIS2_EEE@Base 12.0.3
 _ZN11MClientCaps14decode_payloadEv@Base 12.0.3
 _ZN11MClientCaps14encode_payloadEm@Base 12.0.3
 _ZN11MClientCapsD0Ev@Base 12.0.3
 _ZN11MClientCapsD1Ev@Base 12.0.3
 _ZN11MClientCapsD2Ev@Base 12.0.3
 _ZN11MClientSnap14decode_payloadEv@Base 12.0.3
 _ZN11MClientSnap14encode_payloadEm@Base 12.0.3
 _ZN11MClientSnapD0Ev@Base 12.0.3
 _ZN11MClientSnapD1Ev@Base 12.0.3
 _ZN11MClientSnapD2Ev@Base 12.0.3
 _ZN11MDentryLink14decode_payloadEv@Base 12.0.3
 _ZN11MDentryLink14encode_payloadEm@Base 12.0.3
 _ZN11MDentryLinkD0Ev@Base 12.0.3
 _ZN11MDentryLinkD1Ev@Base 12.0.3
 _ZN11MDentryLinkD2Ev@Base 12.0.3
 _ZN11MExportCaps14decode_payloadEv@Base 12.0.3
 _ZN11MExportCaps14encode_payloadEm@Base 12.0.3
 _ZN11MExportCapsD0Ev@Base 12.0.3
 _ZN11MExportCapsD1Ev@Base 12.0.3
 _ZN11MExportCapsD2Ev@Base 12.0.3
 _ZN11MGatherCaps14decode_payloadEv@Base 12.0.3
 _ZN11MGatherCaps14encode_payloadEm@Base 12.0.3
 _ZN11MGatherCapsD0Ev@Base 12.0.3
 _ZN11MGatherCapsD1Ev@Base 12.0.3
 _ZN11MGatherCapsD2Ev@Base 12.0.3
 _ZN11MMDSFindIno14decode_payloadEv@Base 12.0.3
 _ZN11MMDSFindIno14encode_payloadEm@Base 12.0.3
 _ZN11MMDSFindInoD0Ev@Base 12.0.3
 _ZN11MMDSFindInoD1Ev@Base 12.0.3
 _ZN11MMDSFindInoD2Ev@Base 12.0.3
 _ZN11MMDSOpenIno14decode_payloadEv@Base 12.0.3
 _ZN11MMDSOpenIno14encode_payloadEm@Base 12.0.3
 _ZN11MMDSOpenInoD0Ev@Base 12.0.3
 _ZN11MMDSOpenInoD1Ev@Base 12.0.3
 _ZN11MMDSOpenInoD2Ev@Base 12.0.3
 _ZN11MMDSResolve13slave_request6decodeERN4ceph6buffer7v15_2_04list13iterator_implILb1EEE@Base 12.0.3
 _ZN11MMDSResolve14decode_payloadEv@Base 12.0.3
 _ZN11MMDSResolve14encode_payloadEm@Base 12.0.3
 _ZN11MMDSResolveD0Ev@Base 12.0.3
 _ZN11MMDSResolveD1Ev@Base 12.0.3
 _ZN11MMDSResolveD2Ev@Base 12.0.3
 _ZN11MMgrCommand14decode_payloadEv@Base 12.0.3
 _ZN11MMgrCommand14encode_payloadEm@Base 12.0.3
 _ZN11MMgrCommandD0Ev@Base 12.0.3
 _ZN11MMgrCommandD1Ev@Base 12.0.3
 _ZN11MMgrCommandD2Ev@Base 12.0.3
 _ZN11MMonCommand14decode_payloadEv@Base 12.0.3
 _ZN11MMonCommand14encode_payloadEm@Base 12.0.3
 _ZN11MMonCommandD0Ev@Base 12.0.3
 _ZN11MMonCommandD1Ev@Base 12.0.3
 _ZN11MMonCommandD2Ev@Base 12.0.3
 _ZN11MOSDBackoff14decode_payloadEv@Base 12.0.3
 _ZN11MOSDBackoff14encode_payloadEm@Base 12.0.3
 _ZN11MOSDBackoffD0Ev@Base 12.0.3
 _ZN11MOSDBackoffD1Ev@Base 12.0.3
 _ZN11MOSDBackoffD2Ev@Base 12.0.3
 _ZN11MOSDFailure14decode_payloadEv@Base 12.0.3
 _ZN11MOSDFailure14encode_payloadEm@Base 12.0.3
 _ZN11MOSDFailureD0Ev@Base 12.0.3
 _ZN11MOSDFailureD1Ev@Base 12.0.3
 _ZN11MOSDFailureD2Ev@Base 12.0.3
 _ZN11MOSDOpReply14decode_payloadEv@Base 12.0.3
 _ZN11MOSDOpReply14encode_payloadEm@Base 12.0.3
 _ZN11MOSDOpReplyD0Ev@Base 12.0.3
 _ZN11MOSDOpReplyD1Ev@Base 12.0.3
 _ZN11MOSDOpReplyD2Ev@Base 12.0.3
 _ZN11MOSDPGInfo214decode_payloadEv@Base 12.0.3
 _ZN11MOSDPGInfo214encode_payloadEm@Base 12.0.3
 _ZN11MOSDPGInfo29get_eventEv@Base 12.0.3
 _ZN11MOSDPGInfo2D0Ev@Base 12.0.3
 _ZN11MOSDPGInfo2D1Ev@Base 12.0.3
 _ZN11MOSDPGInfo2D2Ev@Base 12.0.3
 _ZN11MOSDPGLease14decode_payloadEv@Base 12.0.3
 _ZN11MOSDPGLease14encode_payloadEm@Base 12.0.3
 _ZN11MOSDPGLease9get_eventEv@Base 12.0.3
 _ZN11MOSDPGLeaseD0Ev@Base 12.0.3
 _ZN11MOSDPGLeaseD1Ev@Base 12.0.3
 _ZN11MOSDPGLeaseD2Ev@Base 12.0.3
 _ZN11MOSDPGQuery14decode_payloadEv@Base 12.0.3
 _ZN11MOSDPGQuery14encode_payloadEm@Base 12.0.3
 _ZN11MOSDPGQueryD0Ev@Base 12.0.3
 _ZN11MOSDPGQueryD1Ev@Base 12.0.3
 _ZN11MOSDPGQueryD2Ev@Base 12.0.3
 _ZN11MPGStatsAck14decode_payloadEv@Base 12.0.3
 _ZN11MPGStatsAck14encode_payloadEm@Base 12.0.3
 _ZN11MPGStatsAckD0Ev@Base 12.0.3
 _ZN11MPGStatsAckD1Ev@Base 12.0.3
 _ZN11MPGStatsAckD2Ev@Base 12.0.3
 _ZN11MServiceMap14decode_payloadEv@Base 12.0.3
 _ZN11MServiceMap14encode_payloadEm@Base 12.0.3
 _ZN11MServiceMapD0Ev@Base 12.0.3
 _ZN11MServiceMapD1Ev@Base 12.0.3
 _ZN11MServiceMapD2Ev@Base 12.0.3
 _ZN11MTimeCheck214decode_payloadEv@Base 12.0.3
 _ZN11MTimeCheck214encode_payloadEm@Base 12.0.3
 _ZN11MTimeCheck2D0Ev@Base 12.0.3
 _ZN11MTimeCheck2D1Ev@Base 12.0.3
 _ZN11MTimeCheck2D2Ev@Base 12.0.3
 _ZN11MonCapGrant13parse_networkEv@Base 12.0.3
 _ZN11MonCapGrantC1ENSt7__cxx1112basic_stringIcSt11char_traitsIcESaIcEEE10mon_rwxa_t@Base 12.0.3
 _ZN11MonCapGrantC1ENSt7__cxx1112basic_stringIcSt11char_traitsIcESaIcEEE@Base 12.0.3
 _ZN11MonCapGrantC1ENSt7__cxx1112basic_stringIcSt11char_traitsIcESaIcEEES5_16StringConstraint@Base 12.0.3
 _ZN11MonCapGrantC1ERKS_@Base 12.0.3
 _ZN11MonCapGrantC2ENSt7__cxx1112basic_stringIcSt11char_traitsIcESaIcEEE10mon_rwxa_t@Base 12.0.3
 _ZN11MonCapGrantC2ENSt7__cxx1112basic_stringIcSt11char_traitsIcESaIcEEE@Base 12.0.3
 _ZN11MonCapGrantC2ENSt7__cxx1112basic_stringIcSt11char_traitsIcESaIcEEES5_16StringConstraint@Base 12.0.3
 _ZN11MonCapGrantC2ERKS_@Base 12.0.3
 _ZN11MonCapGrantD1Ev@Base 12.0.3
 _ZN11MonCapGrantD2Ev@Base 12.0.3
 _ZN11ObserverMgrIN4ceph18md_config_obs_implINS0_6common11ConfigProxyEEEE12add_observerEPS4_@Base 12.0.3
 _ZN11ObserverMgrIN4ceph18md_config_obs_implINS0_6common11ConfigProxyEEEE15for_each_changeIS3_EEvRKSt3setINSt7__cxx1112basic_stringIcSt11char_traitsIcESaIcEEESt4lessISD_ESaISD_EERT_St8functionIFvPS4_RKSD_EEPSo@Base 12.0.3
 _ZN11ObserverMgrIN4ceph18md_config_obs_implINS0_6common11ConfigProxyEEEED0Ev@Base 12.0.3
 _ZN11ObserverMgrIN4ceph18md_config_obs_implINS0_6common11ConfigProxyEEEED1Ev@Base 12.0.3
 _ZN11ObserverMgrIN4ceph18md_config_obs_implINS0_6common11ConfigProxyEEEED2Ev@Base 12.0.3
 _ZN11OstreamTempC1E9clog_typePNS_15OstreamTempSinkE@Base 12.0.3
 _ZN11OstreamTempC2E9clog_typePNS_15OstreamTempSinkE@Base 12.0.3
 _ZN11OstreamTempD1Ev@Base 12.0.3
 _ZN11OstreamTempD2Ev@Base 12.0.3
 _ZN11PGMapDigest20dump_object_stat_sumER9TextTablePN4ceph9FormatterERK11pool_stat_tmfbbbPK9pg_pool_t@Base 12.0.3
 _ZN11PGMapDigest23generate_test_instancesERNSt7__cxx114listIPS_SaIS2_EEE@Base 12.0.3
 _ZN11PGMapDigest6decodeERN4ceph6buffer7v15_2_04list13iterator_implILb1EEE@Base 12.0.3
 _ZN11PGMapDigestC1Ev@Base 12.0.3
 _ZN11PGMapDigestC2Ev@Base 12.0.3
 _ZN11PGMapDigestD0Ev@Base 12.0.3
 _ZN11PGMapDigestD1Ev@Base 12.0.3
 _ZN11PGMapDigestD2Ev@Base 12.0.3
 _ZN11PGMapDigestdlEPv@Base 12.0.3
 _ZN11PGMapDigestnwEm@Base 12.0.3
 _ZN11PosixWorker10initializeEv@Base 12.0.3
 _ZN11PosixWorker6listenER13entity_addr_tjRK13SocketOptionsP12ServerSocket@Base 12.0.3
 _ZN11PosixWorker7connectERK13entity_addr_tRK13SocketOptionsP15ConnectedSocket@Base 12.0.3
 _ZN11PosixWorkerD0Ev@Base 12.0.3
 _ZN11PosixWorkerD1Ev@Base 12.0.3
 _ZN11PosixWorkerD2Ev@Base 12.0.3
 _ZN11PushReplyOp23generate_test_instancesERNSt7__cxx114listIPS_SaIS2_EEE@Base 12.0.3
 _ZN11PushReplyOp6decodeERN4ceph6buffer7v15_2_04list13iterator_implILb1EEE@Base 12.0.3
 _ZN11ScrubResult6decodeERN4ceph6buffer7v15_2_04list13iterator_implILb1EEE@Base 12.0.3
 _ZN11SnapContext23generate_test_instancesERNSt7__cxx114listIPS_SaIS2_EEE@Base 12.0.3
 _ZN11VersionHook4callESt17basic_string_viewIcSt11char_traitsIcEERKSt3mapINSt7__cxx1112basic_stringIcS2_SaIcEEEN5boost7variantIS8_JbldSt6vectorIS8_SaIS8_EESB_IlSaIlEESB_IdSaIdEEEEESt4lessIvESaISt4pairIKS8_SI_EEEPN4ceph9FormatterERSoRNSS_6buffer7v15_2_04listE@Base 12.0.3
 _ZN11VersionHookD0Ev@Base 12.0.3
 _ZN11VersionHookD1Ev@Base 12.0.3
 _ZN11VersionHookD2Ev@Base 12.0.3
 _ZN11conf_line_tC1ERKNSt7__cxx1112basic_stringIcSt11char_traitsIcESaIcEEES7_@Base 12.0.3
 _ZN11conf_line_tC2ERKNSt7__cxx1112basic_stringIcSt11char_traitsIcESaIcEEES7_@Base 12.0.3
 _ZN11conf_line_tD1Ev@Base 12.0.3
 _ZN11conf_line_tD2Ev@Base 12.0.3
 _ZN11denc_traitsISt6vectorI29OSDPerfMetricSubKeyDescriptorSaIS1_EEvE6decodeERS3_RN4ceph6buffer7v15_2_03ptr13iterator_implILb1EEE@Base 12.0.3
 _ZN11frag_info_t23generate_test_instancesERNSt7__cxx114listIPS_SaIS2_EEE@Base 12.0.3
 _ZN11frag_info_t6decodeERN4ceph6buffer7v15_2_04list13iterator_implILb1EEE@Base 12.0.3
 _ZN11json_spirit10Value_implINS_10Config_mapINSt7__cxx1112basic_stringIcSt11char_traitsIcESaIcEEEEEEaSERKS9_@Base 12.0.3
 _ZN11json_spirit10Value_implINS_13Config_vectorINSt7__cxx1112basic_stringIcSt11char_traitsIcESaIcEEEEEEaSERKS9_@Base 12.0.3
 _ZN11json_spirit10read_rangeIN9__gnu_cxx17__normal_iteratorIPKcNSt7__cxx1112basic_stringIcSt11char_traitsIcESaIcEEEEENS_10Value_implINS_10Config_mapISA_EEEEEEbRT_SG_RT0_@Base 12.0.3
 _ZN11json_spirit10read_rangeIN9__gnu_cxx17__normal_iteratorIPKcNSt7__cxx1112basic_stringIcSt11char_traitsIcESaIcEEEEENS_10Value_implINS_13Config_vectorISA_EEEEEEbRT_SG_RT0_@Base 12.0.3
 _ZN11json_spirit11read_streamISiNS_10Value_implINS_10Config_mapINSt7__cxx1112basic_stringIcSt11char_traitsIcESaIcEEEEEEEEEbRT_RT0_@Base 12.0.3
 _ZN11json_spirit11read_streamISiNS_10Value_implINS_13Config_vectorINSt7__cxx1112basic_stringIcSt11char_traitsIcESaIcEEEEEEEEEbRT_RT0_@Base 12.0.3
 _ZN11json_spirit11throw_errorIN5boost6spirit7classic10multi_passISt16istream_iteratorIccSt11char_traitsIcElENS3_19multi_pass_policies14input_iteratorENS9_11ref_countedENS9_12buf_id_checkENS9_9std_dequeEEEEEvNS3_17position_iteratorIT_NS3_18file_position_baseINSt7__cxx1112basic_stringINSt15iterator_traitsISG_E10value_typeES6_ISM_ESaISM_EEEEENS3_5nil_tEEERKNSJ_IcS7_SaIcEEE@Base 12.0.3
 _ZN11json_spirit11throw_errorIN9__gnu_cxx17__normal_iteratorIPKcNSt7__cxx1112basic_stringIcSt11char_traitsIcESaIcEEEEEEEvN5boost6spirit7classic17position_iteratorIT_NSE_18file_position_baseINS6_INSt15iterator_traitsISG_E10value_typeES7_ISK_ESaISK_EEEEENSE_5nil_tEEERKSA_@Base 12.0.3
 _ZN11json_spirit12Json_grammerINS_10Value_implINS_10Config_mapINSt7__cxx1112basic_stringIcSt11char_traitsIcESaIcEEEEEEEN5boost6spirit7classic10multi_passISt16istream_iteratorIccS6_lENSD_19multi_pass_policies14input_iteratorENSH_11ref_countedENSH_12buf_id_checkENSH_9std_dequeEEEE10definitionINSD_7scannerISM_NSD_16scanner_policiesINSD_24skipper_iteration_policyINSD_16iteration_policyEEENSD_12match_policyENSD_13action_policyEEEEEEC1ERKSN_@Base 12.0.3
 _ZN11json_spirit12Json_grammerINS_10Value_implINS_10Config_mapINSt7__cxx1112basic_stringIcSt11char_traitsIcESaIcEEEEEEEN5boost6spirit7classic10multi_passISt16istream_iteratorIccS6_lENSD_19multi_pass_policies14input_iteratorENSH_11ref_countedENSH_12buf_id_checkENSH_9std_dequeEEEE10definitionINSD_7scannerISM_NSD_16scanner_policiesINSD_24skipper_iteration_policyINSD_16iteration_policyEEENSD_12match_policyENSD_13action_policyEEEEEEC2ERKSN_@Base 12.0.3
 _ZN11json_spirit12Json_grammerINS_10Value_implINS_10Config_mapINSt7__cxx1112basic_stringIcSt11char_traitsIcESaIcEEEEEEEN5boost6spirit7classic10multi_passISt16istream_iteratorIccS6_lENSD_19multi_pass_policies14input_iteratorENSH_11ref_countedENSH_12buf_id_checkENSH_9std_dequeEEEE10definitionINSD_7scannerISM_NSD_16scanner_policiesINSD_24skipper_iteration_policyINSD_16iteration_policyEEENSD_12match_policyENSD_13action_policyEEEEEED1Ev@Base 12.0.3
 _ZN11json_spirit12Json_grammerINS_10Value_implINS_10Config_mapINSt7__cxx1112basic_stringIcSt11char_traitsIcESaIcEEEEEEEN5boost6spirit7classic10multi_passISt16istream_iteratorIccS6_lENSD_19multi_pass_policies14input_iteratorENSH_11ref_countedENSH_12buf_id_checkENSH_9std_dequeEEEE10definitionINSD_7scannerISM_NSD_16scanner_policiesINSD_24skipper_iteration_policyINSD_16iteration_policyEEENSD_12match_policyENSD_13action_policyEEEEEED2Ev@Base 12.0.3
 _ZN11json_spirit12Json_grammerINS_10Value_implINS_10Config_mapINSt7__cxx1112basic_stringIcSt11char_traitsIcESaIcEEEEEEEN5boost6spirit7classic10multi_passISt16istream_iteratorIccS6_lENSD_19multi_pass_policies14input_iteratorENSH_11ref_countedENSH_12buf_id_checkENSH_9std_dequeEEEE15throw_not_arrayESM_SM_@Base 12.0.3
 _ZN11json_spirit12Json_grammerINS_10Value_implINS_10Config_mapINSt7__cxx1112basic_stringIcSt11char_traitsIcESaIcEEEEEEEN5boost6spirit7classic10multi_passISt16istream_iteratorIccS6_lENSD_19multi_pass_policies14input_iteratorENSH_11ref_countedENSH_12buf_id_checkENSH_9std_dequeEEEE15throw_not_colonESM_SM_@Base 12.0.3
 _ZN11json_spirit12Json_grammerINS_10Value_implINS_10Config_mapINSt7__cxx1112basic_stringIcSt11char_traitsIcESaIcEEEEEEEN5boost6spirit7classic10multi_passISt16istream_iteratorIccS6_lENSD_19multi_pass_policies14input_iteratorENSH_11ref_countedENSH_12buf_id_checkENSH_9std_dequeEEEE15throw_not_valueESM_SM_@Base 12.0.3
 _ZN11json_spirit12Json_grammerINS_10Value_implINS_10Config_mapINSt7__cxx1112basic_stringIcSt11char_traitsIcESaIcEEEEEEEN5boost6spirit7classic10multi_passISt16istream_iteratorIccS6_lENSD_19multi_pass_policies14input_iteratorENSH_11ref_countedENSH_12buf_id_checkENSH_9std_dequeEEEE16throw_not_objectESM_SM_@Base 12.0.3
 _ZN11json_spirit12Json_grammerINS_10Value_implINS_10Config_mapINSt7__cxx1112basic_stringIcSt11char_traitsIcESaIcEEEEEEEN5boost6spirit7classic17position_iteratorIN9__gnu_cxx17__normal_iteratorIPKcS8_EENSD_18file_position_baseIS8_EENSD_5nil_tEEEE10definitionINSD_7scannerISN_NSD_16scanner_policiesINSD_24skipper_iteration_policyINSD_16iteration_policyEEENSD_12match_policyENSD_13action_policyEEEEEEC1ERKSO_@Base 12.0.3
 _ZN11json_spirit12Json_grammerINS_10Value_implINS_10Config_mapINSt7__cxx1112basic_stringIcSt11char_traitsIcESaIcEEEEEEEN5boost6spirit7classic17position_iteratorIN9__gnu_cxx17__normal_iteratorIPKcS8_EENSD_18file_position_baseIS8_EENSD_5nil_tEEEE10definitionINSD_7scannerISN_NSD_16scanner_policiesINSD_24skipper_iteration_policyINSD_16iteration_policyEEENSD_12match_policyENSD_13action_policyEEEEEEC2ERKSO_@Base 12.0.3
 _ZN11json_spirit12Json_grammerINS_10Value_implINS_10Config_mapINSt7__cxx1112basic_stringIcSt11char_traitsIcESaIcEEEEEEEN5boost6spirit7classic17position_iteratorIN9__gnu_cxx17__normal_iteratorIPKcS8_EENSD_18file_position_baseIS8_EENSD_5nil_tEEEE10definitionINSD_7scannerISN_NSD_16scanner_policiesINSD_24skipper_iteration_policyINSD_16iteration_policyEEENSD_12match_policyENSD_13action_policyEEEEEED1Ev@Base 12.0.3
 _ZN11json_spirit12Json_grammerINS_10Value_implINS_10Config_mapINSt7__cxx1112basic_stringIcSt11char_traitsIcESaIcEEEEEEEN5boost6spirit7classic17position_iteratorIN9__gnu_cxx17__normal_iteratorIPKcS8_EENSD_18file_position_baseIS8_EENSD_5nil_tEEEE10definitionINSD_7scannerISN_NSD_16scanner_policiesINSD_24skipper_iteration_policyINSD_16iteration_policyEEENSD_12match_policyENSD_13action_policyEEEEEED2Ev@Base 12.0.3
 _ZN11json_spirit12Json_grammerINS_10Value_implINS_10Config_mapINSt7__cxx1112basic_stringIcSt11char_traitsIcESaIcEEEEEEEN5boost6spirit7classic17position_iteratorIN9__gnu_cxx17__normal_iteratorIPKcS8_EENSD_18file_position_baseIS8_EENSD_5nil_tEEEE15throw_not_arrayESN_SN_@Base 12.0.3
 _ZN11json_spirit12Json_grammerINS_10Value_implINS_10Config_mapINSt7__cxx1112basic_stringIcSt11char_traitsIcESaIcEEEEEEEN5boost6spirit7classic17position_iteratorIN9__gnu_cxx17__normal_iteratorIPKcS8_EENSD_18file_position_baseIS8_EENSD_5nil_tEEEE15throw_not_colonESN_SN_@Base 12.0.3
 _ZN11json_spirit12Json_grammerINS_10Value_implINS_10Config_mapINSt7__cxx1112basic_stringIcSt11char_traitsIcESaIcEEEEEEEN5boost6spirit7classic17position_iteratorIN9__gnu_cxx17__normal_iteratorIPKcS8_EENSD_18file_position_baseIS8_EENSD_5nil_tEEEE15throw_not_valueESN_SN_@Base 12.0.3
 _ZN11json_spirit12Json_grammerINS_10Value_implINS_10Config_mapINSt7__cxx1112basic_stringIcSt11char_traitsIcESaIcEEEEEEEN5boost6spirit7classic17position_iteratorIN9__gnu_cxx17__normal_iteratorIPKcS8_EENSD_18file_position_baseIS8_EENSD_5nil_tEEEE16throw_not_objectESN_SN_@Base 12.0.3
 _ZN11json_spirit12Json_grammerINS_10Value_implINS_10Config_mapINSt7__cxx1112basic_stringIcSt11char_traitsIcESaIcEEEEEEEN5boost6spirit7classic17position_iteratorINSD_10multi_passISt16istream_iteratorIccS6_lENSD_19multi_pass_policies14input_iteratorENSI_11ref_countedENSI_12buf_id_checkENSI_9std_dequeEEENSD_18file_position_baseIS8_EENSD_5nil_tEEEE10definitionINSD_7scannerISR_NSD_16scanner_policiesINSD_24skipper_iteration_policyINSD_16iteration_policyEEENSD_12match_policyENSD_13action_policyEEEEEEC1ERKSS_@Base 12.0.3
 _ZN11json_spirit12Json_grammerINS_10Value_implINS_10Config_mapINSt7__cxx1112basic_stringIcSt11char_traitsIcESaIcEEEEEEEN5boost6spirit7classic17position_iteratorINSD_10multi_passISt16istream_iteratorIccS6_lENSD_19multi_pass_policies14input_iteratorENSI_11ref_countedENSI_12buf_id_checkENSI_9std_dequeEEENSD_18file_position_baseIS8_EENSD_5nil_tEEEE10definitionINSD_7scannerISR_NSD_16scanner_policiesINSD_24skipper_iteration_policyINSD_16iteration_policyEEENSD_12match_policyENSD_13action_policyEEEEEEC2ERKSS_@Base 12.0.3
 _ZN11json_spirit12Json_grammerINS_10Value_implINS_10Config_mapINSt7__cxx1112basic_stringIcSt11char_traitsIcESaIcEEEEEEEN5boost6spirit7classic17position_iteratorINSD_10multi_passISt16istream_iteratorIccS6_lENSD_19multi_pass_policies14input_iteratorENSI_11ref_countedENSI_12buf_id_checkENSI_9std_dequeEEENSD_18file_position_baseIS8_EENSD_5nil_tEEEE10definitionINSD_7scannerISR_NSD_16scanner_policiesINSD_24skipper_iteration_policyINSD_16iteration_policyEEENSD_12match_policyENSD_13action_policyEEEEEED1Ev@Base 12.0.3
 _ZN11json_spirit12Json_grammerINS_10Value_implINS_10Config_mapINSt7__cxx1112basic_stringIcSt11char_traitsIcESaIcEEEEEEEN5boost6spirit7classic17position_iteratorINSD_10multi_passISt16istream_iteratorIccS6_lENSD_19multi_pass_policies14input_iteratorENSI_11ref_countedENSI_12buf_id_checkENSI_9std_dequeEEENSD_18file_position_baseIS8_EENSD_5nil_tEEEE10definitionINSD_7scannerISR_NSD_16scanner_policiesINSD_24skipper_iteration_policyINSD_16iteration_policyEEENSD_12match_policyENSD_13action_policyEEEEEED2Ev@Base 12.0.3
 _ZN11json_spirit12Json_grammerINS_10Value_implINS_10Config_mapINSt7__cxx1112basic_stringIcSt11char_traitsIcESaIcEEEEEEEN5boost6spirit7classic17position_iteratorINSD_10multi_passISt16istream_iteratorIccS6_lENSD_19multi_pass_policies14input_iteratorENSI_11ref_countedENSI_12buf_id_checkENSI_9std_dequeEEENSD_18file_position_baseIS8_EENSD_5nil_tEEEE15throw_not_arrayESR_SR_@Base 12.0.3
 _ZN11json_spirit12Json_grammerINS_10Value_implINS_10Config_mapINSt7__cxx1112basic_stringIcSt11char_traitsIcESaIcEEEEEEEN5boost6spirit7classic17position_iteratorINSD_10multi_passISt16istream_iteratorIccS6_lENSD_19multi_pass_policies14input_iteratorENSI_11ref_countedENSI_12buf_id_checkENSI_9std_dequeEEENSD_18file_position_baseIS8_EENSD_5nil_tEEEE15throw_not_colonESR_SR_@Base 12.0.3
 _ZN11json_spirit12Json_grammerINS_10Value_implINS_10Config_mapINSt7__cxx1112basic_stringIcSt11char_traitsIcESaIcEEEEEEEN5boost6spirit7classic17position_iteratorINSD_10multi_passISt16istream_iteratorIccS6_lENSD_19multi_pass_policies14input_iteratorENSI_11ref_countedENSI_12buf_id_checkENSI_9std_dequeEEENSD_18file_position_baseIS8_EENSD_5nil_tEEEE15throw_not_valueESR_SR_@Base 12.0.3
 _ZN11json_spirit12Json_grammerINS_10Value_implINS_10Config_mapINSt7__cxx1112basic_stringIcSt11char_traitsIcESaIcEEEEEEEN5boost6spirit7classic17position_iteratorINSD_10multi_passISt16istream_iteratorIccS6_lENSD_19multi_pass_policies14input_iteratorENSI_11ref_countedENSI_12buf_id_checkENSI_9std_dequeEEENSD_18file_position_baseIS8_EENSD_5nil_tEEEE16throw_not_objectESR_SR_@Base 12.0.3
 _ZN11json_spirit12Json_grammerINS_10Value_implINS_10Config_mapINSt7__cxx1112basic_stringIcSt11char_traitsIcESaIcEEEEEEEN9__gnu_cxx17__normal_iteratorIPKcS8_EEE10definitionIN5boost6spirit7classic7scannerISF_NSK_16scanner_policiesINSK_24skipper_iteration_policyINSK_16iteration_policyEEENSK_12match_policyENSK_13action_policyEEEEEEC1ERKSG_@Base 12.0.3
 _ZN11json_spirit12Json_grammerINS_10Value_implINS_10Config_mapINSt7__cxx1112basic_stringIcSt11char_traitsIcESaIcEEEEEEEN9__gnu_cxx17__normal_iteratorIPKcS8_EEE10definitionIN5boost6spirit7classic7scannerISF_NSK_16scanner_policiesINSK_24skipper_iteration_policyINSK_16iteration_policyEEENSK_12match_policyENSK_13action_policyEEEEEEC2ERKSG_@Base 12.0.3
 _ZN11json_spirit12Json_grammerINS_10Value_implINS_10Config_mapINSt7__cxx1112basic_stringIcSt11char_traitsIcESaIcEEEEEEEN9__gnu_cxx17__normal_iteratorIPKcS8_EEE10definitionIN5boost6spirit7classic7scannerISF_NSK_16scanner_policiesINSK_24skipper_iteration_policyINSK_16iteration_policyEEENSK_12match_policyENSK_13action_policyEEEEEED1Ev@Base 12.0.3
 _ZN11json_spirit12Json_grammerINS_10Value_implINS_10Config_mapINSt7__cxx1112basic_stringIcSt11char_traitsIcESaIcEEEEEEEN9__gnu_cxx17__normal_iteratorIPKcS8_EEE10definitionIN5boost6spirit7classic7scannerISF_NSK_16scanner_policiesINSK_24skipper_iteration_policyINSK_16iteration_policyEEENSK_12match_policyENSK_13action_policyEEEEEED2Ev@Base 12.0.3
 _ZN11json_spirit12Json_grammerINS_10Value_implINS_10Config_mapINSt7__cxx1112basic_stringIcSt11char_traitsIcESaIcEEEEEEEN9__gnu_cxx17__normal_iteratorIPKcS8_EEE15throw_not_arrayESF_SF_@Base 12.0.3
 _ZN11json_spirit12Json_grammerINS_10Value_implINS_10Config_mapINSt7__cxx1112basic_stringIcSt11char_traitsIcESaIcEEEEEEEN9__gnu_cxx17__normal_iteratorIPKcS8_EEE15throw_not_colonESF_SF_@Base 12.0.3
 _ZN11json_spirit12Json_grammerINS_10Value_implINS_10Config_mapINSt7__cxx1112basic_stringIcSt11char_traitsIcESaIcEEEEEEEN9__gnu_cxx17__normal_iteratorIPKcS8_EEE15throw_not_valueESF_SF_@Base 12.0.3
 _ZN11json_spirit12Json_grammerINS_10Value_implINS_10Config_mapINSt7__cxx1112basic_stringIcSt11char_traitsIcESaIcEEEEEEEN9__gnu_cxx17__normal_iteratorIPKcS8_EEE16throw_not_objectESF_SF_@Base 12.0.3
 _ZN11json_spirit12Json_grammerINS_10Value_implINS_13Config_vectorINSt7__cxx1112basic_stringIcSt11char_traitsIcESaIcEEEEEEEN5boost6spirit7classic10multi_passISt16istream_iteratorIccS6_lENSD_19multi_pass_policies14input_iteratorENSH_11ref_countedENSH_12buf_id_checkENSH_9std_dequeEEEE10definitionINSD_7scannerISM_NSD_16scanner_policiesINSD_24skipper_iteration_policyINSD_16iteration_policyEEENSD_12match_policyENSD_13action_policyEEEEEEC1ERKSN_@Base 12.0.3
 _ZN11json_spirit12Json_grammerINS_10Value_implINS_13Config_vectorINSt7__cxx1112basic_stringIcSt11char_traitsIcESaIcEEEEEEEN5boost6spirit7classic10multi_passISt16istream_iteratorIccS6_lENSD_19multi_pass_policies14input_iteratorENSH_11ref_countedENSH_12buf_id_checkENSH_9std_dequeEEEE10definitionINSD_7scannerISM_NSD_16scanner_policiesINSD_24skipper_iteration_policyINSD_16iteration_policyEEENSD_12match_policyENSD_13action_policyEEEEEEC2ERKSN_@Base 12.0.3
 _ZN11json_spirit12Json_grammerINS_10Value_implINS_13Config_vectorINSt7__cxx1112basic_stringIcSt11char_traitsIcESaIcEEEEEEEN5boost6spirit7classic10multi_passISt16istream_iteratorIccS6_lENSD_19multi_pass_policies14input_iteratorENSH_11ref_countedENSH_12buf_id_checkENSH_9std_dequeEEEE10definitionINSD_7scannerISM_NSD_16scanner_policiesINSD_24skipper_iteration_policyINSD_16iteration_policyEEENSD_12match_policyENSD_13action_policyEEEEEED1Ev@Base 12.0.3
 _ZN11json_spirit12Json_grammerINS_10Value_implINS_13Config_vectorINSt7__cxx1112basic_stringIcSt11char_traitsIcESaIcEEEEEEEN5boost6spirit7classic10multi_passISt16istream_iteratorIccS6_lENSD_19multi_pass_policies14input_iteratorENSH_11ref_countedENSH_12buf_id_checkENSH_9std_dequeEEEE10definitionINSD_7scannerISM_NSD_16scanner_policiesINSD_24skipper_iteration_policyINSD_16iteration_policyEEENSD_12match_policyENSD_13action_policyEEEEEED2Ev@Base 12.0.3
 _ZN11json_spirit12Json_grammerINS_10Value_implINS_13Config_vectorINSt7__cxx1112basic_stringIcSt11char_traitsIcESaIcEEEEEEEN5boost6spirit7classic10multi_passISt16istream_iteratorIccS6_lENSD_19multi_pass_policies14input_iteratorENSH_11ref_countedENSH_12buf_id_checkENSH_9std_dequeEEEE15throw_not_arrayESM_SM_@Base 12.0.3
 _ZN11json_spirit12Json_grammerINS_10Value_implINS_13Config_vectorINSt7__cxx1112basic_stringIcSt11char_traitsIcESaIcEEEEEEEN5boost6spirit7classic10multi_passISt16istream_iteratorIccS6_lENSD_19multi_pass_policies14input_iteratorENSH_11ref_countedENSH_12buf_id_checkENSH_9std_dequeEEEE15throw_not_colonESM_SM_@Base 12.0.3
 _ZN11json_spirit12Json_grammerINS_10Value_implINS_13Config_vectorINSt7__cxx1112basic_stringIcSt11char_traitsIcESaIcEEEEEEEN5boost6spirit7classic10multi_passISt16istream_iteratorIccS6_lENSD_19multi_pass_policies14input_iteratorENSH_11ref_countedENSH_12buf_id_checkENSH_9std_dequeEEEE15throw_not_valueESM_SM_@Base 12.0.3
 _ZN11json_spirit12Json_grammerINS_10Value_implINS_13Config_vectorINSt7__cxx1112basic_stringIcSt11char_traitsIcESaIcEEEEEEEN5boost6spirit7classic10multi_passISt16istream_iteratorIccS6_lENSD_19multi_pass_policies14input_iteratorENSH_11ref_countedENSH_12buf_id_checkENSH_9std_dequeEEEE16throw_not_objectESM_SM_@Base 12.0.3
 _ZN11json_spirit12Json_grammerINS_10Value_implINS_13Config_vectorINSt7__cxx1112basic_stringIcSt11char_traitsIcESaIcEEEEEEEN5boost6spirit7classic17position_iteratorIN9__gnu_cxx17__normal_iteratorIPKcS8_EENSD_18file_position_baseIS8_EENSD_5nil_tEEEE10definitionINSD_7scannerISN_NSD_16scanner_policiesINSD_24skipper_iteration_policyINSD_16iteration_policyEEENSD_12match_policyENSD_13action_policyEEEEEEC1ERKSO_@Base 12.0.3
 _ZN11json_spirit12Json_grammerINS_10Value_implINS_13Config_vectorINSt7__cxx1112basic_stringIcSt11char_traitsIcESaIcEEEEEEEN5boost6spirit7classic17position_iteratorIN9__gnu_cxx17__normal_iteratorIPKcS8_EENSD_18file_position_baseIS8_EENSD_5nil_tEEEE10definitionINSD_7scannerISN_NSD_16scanner_policiesINSD_24skipper_iteration_policyINSD_16iteration_policyEEENSD_12match_policyENSD_13action_policyEEEEEEC2ERKSO_@Base 12.0.3
 _ZN11json_spirit12Json_grammerINS_10Value_implINS_13Config_vectorINSt7__cxx1112basic_stringIcSt11char_traitsIcESaIcEEEEEEEN5boost6spirit7classic17position_iteratorIN9__gnu_cxx17__normal_iteratorIPKcS8_EENSD_18file_position_baseIS8_EENSD_5nil_tEEEE10definitionINSD_7scannerISN_NSD_16scanner_policiesINSD_24skipper_iteration_policyINSD_16iteration_policyEEENSD_12match_policyENSD_13action_policyEEEEEED1Ev@Base 12.0.3
 _ZN11json_spirit12Json_grammerINS_10Value_implINS_13Config_vectorINSt7__cxx1112basic_stringIcSt11char_traitsIcESaIcEEEEEEEN5boost6spirit7classic17position_iteratorIN9__gnu_cxx17__normal_iteratorIPKcS8_EENSD_18file_position_baseIS8_EENSD_5nil_tEEEE10definitionINSD_7scannerISN_NSD_16scanner_policiesINSD_24skipper_iteration_policyINSD_16iteration_policyEEENSD_12match_policyENSD_13action_policyEEEEEED2Ev@Base 12.0.3
 _ZN11json_spirit12Json_grammerINS_10Value_implINS_13Config_vectorINSt7__cxx1112basic_stringIcSt11char_traitsIcESaIcEEEEEEEN5boost6spirit7classic17position_iteratorIN9__gnu_cxx17__normal_iteratorIPKcS8_EENSD_18file_position_baseIS8_EENSD_5nil_tEEEE15throw_not_arrayESN_SN_@Base 12.0.3
 _ZN11json_spirit12Json_grammerINS_10Value_implINS_13Config_vectorINSt7__cxx1112basic_stringIcSt11char_traitsIcESaIcEEEEEEEN5boost6spirit7classic17position_iteratorIN9__gnu_cxx17__normal_iteratorIPKcS8_EENSD_18file_position_baseIS8_EENSD_5nil_tEEEE15throw_not_colonESN_SN_@Base 12.0.3
 _ZN11json_spirit12Json_grammerINS_10Value_implINS_13Config_vectorINSt7__cxx1112basic_stringIcSt11char_traitsIcESaIcEEEEEEEN5boost6spirit7classic17position_iteratorIN9__gnu_cxx17__normal_iteratorIPKcS8_EENSD_18file_position_baseIS8_EENSD_5nil_tEEEE15throw_not_valueESN_SN_@Base 12.0.3
 _ZN11json_spirit12Json_grammerINS_10Value_implINS_13Config_vectorINSt7__cxx1112basic_stringIcSt11char_traitsIcESaIcEEEEEEEN5boost6spirit7classic17position_iteratorIN9__gnu_cxx17__normal_iteratorIPKcS8_EENSD_18file_position_baseIS8_EENSD_5nil_tEEEE16throw_not_objectESN_SN_@Base 12.0.3
 _ZN11json_spirit12Json_grammerINS_10Value_implINS_13Config_vectorINSt7__cxx1112basic_stringIcSt11char_traitsIcESaIcEEEEEEEN5boost6spirit7classic17position_iteratorINSD_10multi_passISt16istream_iteratorIccS6_lENSD_19multi_pass_policies14input_iteratorENSI_11ref_countedENSI_12buf_id_checkENSI_9std_dequeEEENSD_18file_position_baseIS8_EENSD_5nil_tEEEE10definitionINSD_7scannerISR_NSD_16scanner_policiesINSD_24skipper_iteration_policyINSD_16iteration_policyEEENSD_12match_policyENSD_13action_policyEEEEEEC1ERKSS_@Base 12.0.3
 _ZN11json_spirit12Json_grammerINS_10Value_implINS_13Config_vectorINSt7__cxx1112basic_stringIcSt11char_traitsIcESaIcEEEEEEEN5boost6spirit7classic17position_iteratorINSD_10multi_passISt16istream_iteratorIccS6_lENSD_19multi_pass_policies14input_iteratorENSI_11ref_countedENSI_12buf_id_checkENSI_9std_dequeEEENSD_18file_position_baseIS8_EENSD_5nil_tEEEE10definitionINSD_7scannerISR_NSD_16scanner_policiesINSD_24skipper_iteration_policyINSD_16iteration_policyEEENSD_12match_policyENSD_13action_policyEEEEEEC2ERKSS_@Base 12.0.3
 _ZN11json_spirit12Json_grammerINS_10Value_implINS_13Config_vectorINSt7__cxx1112basic_stringIcSt11char_traitsIcESaIcEEEEEEEN5boost6spirit7classic17position_iteratorINSD_10multi_passISt16istream_iteratorIccS6_lENSD_19multi_pass_policies14input_iteratorENSI_11ref_countedENSI_12buf_id_checkENSI_9std_dequeEEENSD_18file_position_baseIS8_EENSD_5nil_tEEEE10definitionINSD_7scannerISR_NSD_16scanner_policiesINSD_24skipper_iteration_policyINSD_16iteration_policyEEENSD_12match_policyENSD_13action_policyEEEEEED1Ev@Base 12.0.3
 _ZN11json_spirit12Json_grammerINS_10Value_implINS_13Config_vectorINSt7__cxx1112basic_stringIcSt11char_traitsIcESaIcEEEEEEEN5boost6spirit7classic17position_iteratorINSD_10multi_passISt16istream_iteratorIccS6_lENSD_19multi_pass_policies14input_iteratorENSI_11ref_countedENSI_12buf_id_checkENSI_9std_dequeEEENSD_18file_position_baseIS8_EENSD_5nil_tEEEE10definitionINSD_7scannerISR_NSD_16scanner_policiesINSD_24skipper_iteration_policyINSD_16iteration_policyEEENSD_12match_policyENSD_13action_policyEEEEEED2Ev@Base 12.0.3
 _ZN11json_spirit12Json_grammerINS_10Value_implINS_13Config_vectorINSt7__cxx1112basic_stringIcSt11char_traitsIcESaIcEEEEEEEN5boost6spirit7classic17position_iteratorINSD_10multi_passISt16istream_iteratorIccS6_lENSD_19multi_pass_policies14input_iteratorENSI_11ref_countedENSI_12buf_id_checkENSI_9std_dequeEEENSD_18file_position_baseIS8_EENSD_5nil_tEEEE15throw_not_arrayESR_SR_@Base 12.0.3
 _ZN11json_spirit12Json_grammerINS_10Value_implINS_13Config_vectorINSt7__cxx1112basic_stringIcSt11char_traitsIcESaIcEEEEEEEN5boost6spirit7classic17position_iteratorINSD_10multi_passISt16istream_iteratorIccS6_lENSD_19multi_pass_policies14input_iteratorENSI_11ref_countedENSI_12buf_id_checkENSI_9std_dequeEEENSD_18file_position_baseIS8_EENSD_5nil_tEEEE15throw_not_colonESR_SR_@Base 12.0.3
 _ZN11json_spirit12Json_grammerINS_10Value_implINS_13Config_vectorINSt7__cxx1112basic_stringIcSt11char_traitsIcESaIcEEEEEEEN5boost6spirit7classic17position_iteratorINSD_10multi_passISt16istream_iteratorIccS6_lENSD_19multi_pass_policies14input_iteratorENSI_11ref_countedENSI_12buf_id_checkENSI_9std_dequeEEENSD_18file_position_baseIS8_EENSD_5nil_tEEEE15throw_not_valueESR_SR_@Base 12.0.3
 _ZN11json_spirit12Json_grammerINS_10Value_implINS_13Config_vectorINSt7__cxx1112basic_stringIcSt11char_traitsIcESaIcEEEEEEEN5boost6spirit7classic17position_iteratorINSD_10multi_passISt16istream_iteratorIccS6_lENSD_19multi_pass_policies14input_iteratorENSI_11ref_countedENSI_12buf_id_checkENSI_9std_dequeEEENSD_18file_position_baseIS8_EENSD_5nil_tEEEE16throw_not_objectESR_SR_@Base 12.0.3
 _ZN11json_spirit12Json_grammerINS_10Value_implINS_13Config_vectorINSt7__cxx1112basic_stringIcSt11char_traitsIcESaIcEEEEEEEN9__gnu_cxx17__normal_iteratorIPKcS8_EEE10definitionIN5boost6spirit7classic7scannerISF_NSK_16scanner_policiesINSK_24skipper_iteration_policyINSK_16iteration_policyEEENSK_12match_policyENSK_13action_policyEEEEEEC1ERKSG_@Base 12.0.3
 _ZN11json_spirit12Json_grammerINS_10Value_implINS_13Config_vectorINSt7__cxx1112basic_stringIcSt11char_traitsIcESaIcEEEEEEEN9__gnu_cxx17__normal_iteratorIPKcS8_EEE10definitionIN5boost6spirit7classic7scannerISF_NSK_16scanner_policiesINSK_24skipper_iteration_policyINSK_16iteration_policyEEENSK_12match_policyENSK_13action_policyEEEEEEC2ERKSG_@Base 12.0.3
 _ZN11json_spirit12Json_grammerINS_10Value_implINS_13Config_vectorINSt7__cxx1112basic_stringIcSt11char_traitsIcESaIcEEEEEEEN9__gnu_cxx17__normal_iteratorIPKcS8_EEE10definitionIN5boost6spirit7classic7scannerISF_NSK_16scanner_policiesINSK_24skipper_iteration_policyINSK_16iteration_policyEEENSK_12match_policyENSK_13action_policyEEEEEED1Ev@Base 12.0.3
 _ZN11json_spirit12Json_grammerINS_10Value_implINS_13Config_vectorINSt7__cxx1112basic_stringIcSt11char_traitsIcESaIcEEEEEEEN9__gnu_cxx17__normal_iteratorIPKcS8_EEE10definitionIN5boost6spirit7classic7scannerISF_NSK_16scanner_policiesINSK_24skipper_iteration_policyINSK_16iteration_policyEEENSK_12match_policyENSK_13action_policyEEEEEED2Ev@Base 12.0.3
 _ZN11json_spirit12Json_grammerINS_10Value_implINS_13Config_vectorINSt7__cxx1112basic_stringIcSt11char_traitsIcESaIcEEEEEEEN9__gnu_cxx17__normal_iteratorIPKcS8_EEE15throw_not_arrayESF_SF_@Base 12.0.3
 _ZN11json_spirit12Json_grammerINS_10Value_implINS_13Config_vectorINSt7__cxx1112basic_stringIcSt11char_traitsIcESaIcEEEEEEEN9__gnu_cxx17__normal_iteratorIPKcS8_EEE15throw_not_colonESF_SF_@Base 12.0.3
 _ZN11json_spirit12Json_grammerINS_10Value_implINS_13Config_vectorINSt7__cxx1112basic_stringIcSt11char_traitsIcESaIcEEEEEEEN9__gnu_cxx17__normal_iteratorIPKcS8_EEE15throw_not_valueESF_SF_@Base 12.0.3
 _ZN11json_spirit12Json_grammerINS_10Value_implINS_13Config_vectorINSt7__cxx1112basic_stringIcSt11char_traitsIcESaIcEEEEEEEN9__gnu_cxx17__normal_iteratorIPKcS8_EEE16throw_not_objectESF_SF_@Base 12.0.3
 _ZN11json_spirit12add_esc_charIcNSt7__cxx1112basic_stringIcSt11char_traitsIcESaIcEEEEEbT_RT0_@Base 12.0.3
 _ZN11json_spirit12write_streamINS_10Value_implINS_10Config_mapINSt7__cxx1112basic_stringIcSt11char_traitsIcESaIcEEEEEEESoEEvRKT_RT0_j@Base 12.0.3
 _ZN11json_spirit12write_streamINS_10Value_implINS_13Config_vectorINSt7__cxx1112basic_stringIcSt11char_traitsIcESaIcEEEEEEENS3_19basic_ostringstreamIcS6_S7_EEEEvRKT_RT0_j@Base 12.0.3
 _ZN11json_spirit12write_streamINS_10Value_implINS_13Config_vectorINSt7__cxx1112basic_stringIcSt11char_traitsIcESaIcEEEEEEESoEEvRKT_RT0_j@Base 12.0.3
 _ZN11json_spirit12write_stringINS_10Value_implINS_10Config_mapINSt7__cxx1112basic_stringIcSt11char_traitsIcESaIcEEEEEEEEENT_11String_typeERKSB_j@Base 12.0.3
 _ZN11json_spirit12write_stringINS_10Value_implINS_13Config_vectorINSt7__cxx1112basic_stringIcSt11char_traitsIcESaIcEEEEEEEEENT_11String_typeERKSB_j@Base 12.0.3
 _ZN11json_spirit13add_esc_charsINSt7__cxx1112basic_stringIcSt11char_traitsIcESaIcEEEEET_RKS7_b@Base 12.0.3
 _ZN11json_spirit13append_doubleINSt7__cxx1119basic_ostringstreamIcSt11char_traitsIcESaIcEEEEEvRT_di@Base 12.0.3
 _ZN11json_spirit13append_doubleISoEEvRT_di@Base 12.0.3
 _ZN11json_spirit13read_or_throwERKNSt7__cxx1112basic_stringIcSt11char_traitsIcESaIcEEERNS_10Value_implINS_10Config_mapIS5_EEEE@Base 12.0.3
 _ZN11json_spirit13read_or_throwERKNSt7__cxx1112basic_stringIcSt11char_traitsIcESaIcEEERNS_10Value_implINS_13Config_vectorIS5_EEEE@Base 12.0.3
 _ZN11json_spirit13read_or_throwERN9__gnu_cxx17__normal_iteratorIPKcNSt7__cxx1112basic_stringIcSt11char_traitsIcESaIcEEEEESA_RNS_10Value_implINS_10Config_mapIS9_EEEE@Base 12.0.3
 _ZN11json_spirit13read_or_throwERN9__gnu_cxx17__normal_iteratorIPKcNSt7__cxx1112basic_stringIcSt11char_traitsIcESaIcEEEEESA_RNS_10Value_implINS_13Config_vectorIS9_EEEE@Base 12.0.3
 _ZN11json_spirit13read_or_throwERSiRNS_10Value_implINS_10Config_mapINSt7__cxx1112basic_stringIcSt11char_traitsIcESaIcEEEEEEE@Base 12.0.3
 _ZN11json_spirit13read_or_throwERSiRNS_10Value_implINS_13Config_vectorINSt7__cxx1112basic_stringIcSt11char_traitsIcESaIcEEEEEEE@Base 12.0.3
 _ZN11json_spirit14Error_positionD1Ev@Base 12.0.3
 _ZN11json_spirit14Error_positionD2Ev@Base 12.0.3
 _ZN11json_spirit15remove_trailingINSt7__cxx1112basic_stringIcSt11char_traitsIcESaIcEEEEEvRT_@Base 12.0.3
 _ZN11json_spirit15write_formattedERKNS_10Value_implINS_10Config_mapINSt7__cxx1112basic_stringIcSt11char_traitsIcESaIcEEEEEEE@Base 12.0.3
 _ZN11json_spirit15write_formattedERKNS_10Value_implINS_10Config_mapINSt7__cxx1112basic_stringIcSt11char_traitsIcESaIcEEEEEEERSo@Base 12.0.3
 _ZN11json_spirit15write_formattedERKNS_10Value_implINS_13Config_vectorINSt7__cxx1112basic_stringIcSt11char_traitsIcESaIcEEEEEEE@Base 12.0.3
 _ZN11json_spirit15write_formattedERKNS_10Value_implINS_13Config_vectorINSt7__cxx1112basic_stringIcSt11char_traitsIcESaIcEEEEEEERSo@Base 12.0.3
 _ZN11json_spirit16Multi_pass_itersISiEC1ERSi@Base 12.0.3
 _ZN11json_spirit16Multi_pass_itersISiEC2ERSi@Base 12.0.3
 _ZN11json_spirit16Semantic_actionsINS_10Value_implINS_10Config_mapINSt7__cxx1112basic_stringIcSt11char_traitsIcESaIcEEEEEEEN5boost6spirit7classic10multi_passISt16istream_iteratorIccS6_lENSD_19multi_pass_policies14input_iteratorENSH_11ref_countedENSH_12buf_id_checkENSH_9std_dequeEEEE10new_uint64Em@Base 12.0.3
 _ZN11json_spirit16Semantic_actionsINS_10Value_implINS_10Config_mapINSt7__cxx1112basic_stringIcSt11char_traitsIcESaIcEEEEEEEN5boost6spirit7classic10multi_passISt16istream_iteratorIccS6_lENSD_19multi_pass_policies14input_iteratorENSH_11ref_countedENSH_12buf_id_checkENSH_9std_dequeEEEE11begin_arrayEc@Base 12.0.3
 _ZN11json_spirit16Semantic_actionsINS_10Value_implINS_10Config_mapINSt7__cxx1112basic_stringIcSt11char_traitsIcESaIcEEEEEEEN5boost6spirit7classic10multi_passISt16istream_iteratorIccS6_lENSD_19multi_pass_policies14input_iteratorENSH_11ref_countedENSH_12buf_id_checkENSH_9std_dequeEEEE14add_to_currentERKSA_@Base 12.0.3
 _ZN11json_spirit16Semantic_actionsINS_10Value_implINS_10Config_mapINSt7__cxx1112basic_stringIcSt11char_traitsIcESaIcEEEEEEEN5boost6spirit7classic10multi_passISt16istream_iteratorIccS6_lENSD_19multi_pass_policies14input_iteratorENSH_11ref_countedENSH_12buf_id_checkENSH_9std_dequeEEEE7end_objEc@Base 12.0.3
 _ZN11json_spirit16Semantic_actionsINS_10Value_implINS_10Config_mapINSt7__cxx1112basic_stringIcSt11char_traitsIcESaIcEEEEEEEN5boost6spirit7classic10multi_passISt16istream_iteratorIccS6_lENSD_19multi_pass_policies14input_iteratorENSH_11ref_countedENSH_12buf_id_checkENSH_9std_dequeEEEE7new_intEl@Base 12.0.3
 _ZN11json_spirit16Semantic_actionsINS_10Value_implINS_10Config_mapINSt7__cxx1112basic_stringIcSt11char_traitsIcESaIcEEEEEEEN5boost6spirit7classic10multi_passISt16istream_iteratorIccS6_lENSD_19multi_pass_policies14input_iteratorENSH_11ref_countedENSH_12buf_id_checkENSH_9std_dequeEEEE7new_strESM_SM_@Base 12.0.3
 _ZN11json_spirit16Semantic_actionsINS_10Value_implINS_10Config_mapINSt7__cxx1112basic_stringIcSt11char_traitsIcESaIcEEEEEEEN5boost6spirit7classic10multi_passISt16istream_iteratorIccS6_lENSD_19multi_pass_policies14input_iteratorENSH_11ref_countedENSH_12buf_id_checkENSH_9std_dequeEEEE8new_nameESM_SM_@Base 12.0.3
 _ZN11json_spirit16Semantic_actionsINS_10Value_implINS_10Config_mapINSt7__cxx1112basic_stringIcSt11char_traitsIcESaIcEEEEEEEN5boost6spirit7classic10multi_passISt16istream_iteratorIccS6_lENSD_19multi_pass_policies14input_iteratorENSH_11ref_countedENSH_12buf_id_checkENSH_9std_dequeEEEE8new_nullESM_SM_@Base 12.0.3
 _ZN11json_spirit16Semantic_actionsINS_10Value_implINS_10Config_mapINSt7__cxx1112basic_stringIcSt11char_traitsIcESaIcEEEEEEEN5boost6spirit7classic10multi_passISt16istream_iteratorIccS6_lENSD_19multi_pass_policies14input_iteratorENSH_11ref_countedENSH_12buf_id_checkENSH_9std_dequeEEEE8new_realEd@Base 12.0.3
 _ZN11json_spirit16Semantic_actionsINS_10Value_implINS_10Config_mapINSt7__cxx1112basic_stringIcSt11char_traitsIcESaIcEEEEEEEN5boost6spirit7classic10multi_passISt16istream_iteratorIccS6_lENSD_19multi_pass_policies14input_iteratorENSH_11ref_countedENSH_12buf_id_checkENSH_9std_dequeEEEE8new_trueESM_SM_@Base 12.0.3
 _ZN11json_spirit16Semantic_actionsINS_10Value_implINS_10Config_mapINSt7__cxx1112basic_stringIcSt11char_traitsIcESaIcEEEEEEEN5boost6spirit7classic10multi_passISt16istream_iteratorIccS6_lENSD_19multi_pass_policies14input_iteratorENSH_11ref_countedENSH_12buf_id_checkENSH_9std_dequeEEEE9begin_objEc@Base 12.0.3
 _ZN11json_spirit16Semantic_actionsINS_10Value_implINS_10Config_mapINSt7__cxx1112basic_stringIcSt11char_traitsIcESaIcEEEEEEEN5boost6spirit7classic10multi_passISt16istream_iteratorIccS6_lENSD_19multi_pass_policies14input_iteratorENSH_11ref_countedENSH_12buf_id_checkENSH_9std_dequeEEEE9end_arrayEc@Base 12.0.3
 _ZN11json_spirit16Semantic_actionsINS_10Value_implINS_10Config_mapINSt7__cxx1112basic_stringIcSt11char_traitsIcESaIcEEEEEEEN5boost6spirit7classic10multi_passISt16istream_iteratorIccS6_lENSD_19multi_pass_policies14input_iteratorENSH_11ref_countedENSH_12buf_id_checkENSH_9std_dequeEEEE9new_falseESM_SM_@Base 12.0.3
 _ZN11json_spirit16Semantic_actionsINS_10Value_implINS_10Config_mapINSt7__cxx1112basic_stringIcSt11char_traitsIcESaIcEEEEEEEN5boost6spirit7classic17position_iteratorIN9__gnu_cxx17__normal_iteratorIPKcS8_EENSD_18file_position_baseIS8_EENSD_5nil_tEEEE10new_uint64Em@Base 12.0.3
 _ZN11json_spirit16Semantic_actionsINS_10Value_implINS_10Config_mapINSt7__cxx1112basic_stringIcSt11char_traitsIcESaIcEEEEEEEN5boost6spirit7classic17position_iteratorIN9__gnu_cxx17__normal_iteratorIPKcS8_EENSD_18file_position_baseIS8_EENSD_5nil_tEEEE11begin_arrayEc@Base 12.0.3
 _ZN11json_spirit16Semantic_actionsINS_10Value_implINS_10Config_mapINSt7__cxx1112basic_stringIcSt11char_traitsIcESaIcEEEEEEEN5boost6spirit7classic17position_iteratorIN9__gnu_cxx17__normal_iteratorIPKcS8_EENSD_18file_position_baseIS8_EENSD_5nil_tEEEE14add_to_currentERKSA_@Base 12.0.3
 _ZN11json_spirit16Semantic_actionsINS_10Value_implINS_10Config_mapINSt7__cxx1112basic_stringIcSt11char_traitsIcESaIcEEEEEEEN5boost6spirit7classic17position_iteratorIN9__gnu_cxx17__normal_iteratorIPKcS8_EENSD_18file_position_baseIS8_EENSD_5nil_tEEEE7end_objEc@Base 12.0.3
 _ZN11json_spirit16Semantic_actionsINS_10Value_implINS_10Config_mapINSt7__cxx1112basic_stringIcSt11char_traitsIcESaIcEEEEEEEN5boost6spirit7classic17position_iteratorIN9__gnu_cxx17__normal_iteratorIPKcS8_EENSD_18file_position_baseIS8_EENSD_5nil_tEEEE7new_intEl@Base 12.0.3
 _ZN11json_spirit16Semantic_actionsINS_10Value_implINS_10Config_mapINSt7__cxx1112basic_stringIcSt11char_traitsIcESaIcEEEEEEEN5boost6spirit7classic17position_iteratorIN9__gnu_cxx17__normal_iteratorIPKcS8_EENSD_18file_position_baseIS8_EENSD_5nil_tEEEE7new_strESN_SN_@Base 12.0.3
 _ZN11json_spirit16Semantic_actionsINS_10Value_implINS_10Config_mapINSt7__cxx1112basic_stringIcSt11char_traitsIcESaIcEEEEEEEN5boost6spirit7classic17position_iteratorIN9__gnu_cxx17__normal_iteratorIPKcS8_EENSD_18file_position_baseIS8_EENSD_5nil_tEEEE8new_nameESN_SN_@Base 12.0.3
 _ZN11json_spirit16Semantic_actionsINS_10Value_implINS_10Config_mapINSt7__cxx1112basic_stringIcSt11char_traitsIcESaIcEEEEEEEN5boost6spirit7classic17position_iteratorIN9__gnu_cxx17__normal_iteratorIPKcS8_EENSD_18file_position_baseIS8_EENSD_5nil_tEEEE8new_nullESN_SN_@Base 12.0.3
 _ZN11json_spirit16Semantic_actionsINS_10Value_implINS_10Config_mapINSt7__cxx1112basic_stringIcSt11char_traitsIcESaIcEEEEEEEN5boost6spirit7classic17position_iteratorIN9__gnu_cxx17__normal_iteratorIPKcS8_EENSD_18file_position_baseIS8_EENSD_5nil_tEEEE8new_realEd@Base 12.0.3
 _ZN11json_spirit16Semantic_actionsINS_10Value_implINS_10Config_mapINSt7__cxx1112basic_stringIcSt11char_traitsIcESaIcEEEEEEEN5boost6spirit7classic17position_iteratorIN9__gnu_cxx17__normal_iteratorIPKcS8_EENSD_18file_position_baseIS8_EENSD_5nil_tEEEE8new_trueESN_SN_@Base 12.0.3
 _ZN11json_spirit16Semantic_actionsINS_10Value_implINS_10Config_mapINSt7__cxx1112basic_stringIcSt11char_traitsIcESaIcEEEEEEEN5boost6spirit7classic17position_iteratorIN9__gnu_cxx17__normal_iteratorIPKcS8_EENSD_18file_position_baseIS8_EENSD_5nil_tEEEE9begin_objEc@Base 12.0.3
 _ZN11json_spirit16Semantic_actionsINS_10Value_implINS_10Config_mapINSt7__cxx1112basic_stringIcSt11char_traitsIcESaIcEEEEEEEN5boost6spirit7classic17position_iteratorIN9__gnu_cxx17__normal_iteratorIPKcS8_EENSD_18file_position_baseIS8_EENSD_5nil_tEEEE9end_arrayEc@Base 12.0.3
 _ZN11json_spirit16Semantic_actionsINS_10Value_implINS_10Config_mapINSt7__cxx1112basic_stringIcSt11char_traitsIcESaIcEEEEEEEN5boost6spirit7classic17position_iteratorIN9__gnu_cxx17__normal_iteratorIPKcS8_EENSD_18file_position_baseIS8_EENSD_5nil_tEEEE9new_falseESN_SN_@Base 12.0.3
 _ZN11json_spirit16Semantic_actionsINS_10Value_implINS_10Config_mapINSt7__cxx1112basic_stringIcSt11char_traitsIcESaIcEEEEEEEN5boost6spirit7classic17position_iteratorINSD_10multi_passISt16istream_iteratorIccS6_lENSD_19multi_pass_policies14input_iteratorENSI_11ref_countedENSI_12buf_id_checkENSI_9std_dequeEEENSD_18file_position_baseIS8_EENSD_5nil_tEEEE10new_uint64Em@Base 12.0.3
 _ZN11json_spirit16Semantic_actionsINS_10Value_implINS_10Config_mapINSt7__cxx1112basic_stringIcSt11char_traitsIcESaIcEEEEEEEN5boost6spirit7classic17position_iteratorINSD_10multi_passISt16istream_iteratorIccS6_lENSD_19multi_pass_policies14input_iteratorENSI_11ref_countedENSI_12buf_id_checkENSI_9std_dequeEEENSD_18file_position_baseIS8_EENSD_5nil_tEEEE11begin_arrayEc@Base 12.0.3
 _ZN11json_spirit16Semantic_actionsINS_10Value_implINS_10Config_mapINSt7__cxx1112basic_stringIcSt11char_traitsIcESaIcEEEEEEEN5boost6spirit7classic17position_iteratorINSD_10multi_passISt16istream_iteratorIccS6_lENSD_19multi_pass_policies14input_iteratorENSI_11ref_countedENSI_12buf_id_checkENSI_9std_dequeEEENSD_18file_position_baseIS8_EENSD_5nil_tEEEE14add_to_currentERKSA_@Base 12.0.3
 _ZN11json_spirit16Semantic_actionsINS_10Value_implINS_10Config_mapINSt7__cxx1112basic_stringIcSt11char_traitsIcESaIcEEEEEEEN5boost6spirit7classic17position_iteratorINSD_10multi_passISt16istream_iteratorIccS6_lENSD_19multi_pass_policies14input_iteratorENSI_11ref_countedENSI_12buf_id_checkENSI_9std_dequeEEENSD_18file_position_baseIS8_EENSD_5nil_tEEEE7end_objEc@Base 12.0.3
 _ZN11json_spirit16Semantic_actionsINS_10Value_implINS_10Config_mapINSt7__cxx1112basic_stringIcSt11char_traitsIcESaIcEEEEEEEN5boost6spirit7classic17position_iteratorINSD_10multi_passISt16istream_iteratorIccS6_lENSD_19multi_pass_policies14input_iteratorENSI_11ref_countedENSI_12buf_id_checkENSI_9std_dequeEEENSD_18file_position_baseIS8_EENSD_5nil_tEEEE7new_intEl@Base 12.0.3
 _ZN11json_spirit16Semantic_actionsINS_10Value_implINS_10Config_mapINSt7__cxx1112basic_stringIcSt11char_traitsIcESaIcEEEEEEEN5boost6spirit7classic17position_iteratorINSD_10multi_passISt16istream_iteratorIccS6_lENSD_19multi_pass_policies14input_iteratorENSI_11ref_countedENSI_12buf_id_checkENSI_9std_dequeEEENSD_18file_position_baseIS8_EENSD_5nil_tEEEE7new_strESR_SR_@Base 12.0.3
 _ZN11json_spirit16Semantic_actionsINS_10Value_implINS_10Config_mapINSt7__cxx1112basic_stringIcSt11char_traitsIcESaIcEEEEEEEN5boost6spirit7classic17position_iteratorINSD_10multi_passISt16istream_iteratorIccS6_lENSD_19multi_pass_policies14input_iteratorENSI_11ref_countedENSI_12buf_id_checkENSI_9std_dequeEEENSD_18file_position_baseIS8_EENSD_5nil_tEEEE8new_nameESR_SR_@Base 12.0.3
 _ZN11json_spirit16Semantic_actionsINS_10Value_implINS_10Config_mapINSt7__cxx1112basic_stringIcSt11char_traitsIcESaIcEEEEEEEN5boost6spirit7classic17position_iteratorINSD_10multi_passISt16istream_iteratorIccS6_lENSD_19multi_pass_policies14input_iteratorENSI_11ref_countedENSI_12buf_id_checkENSI_9std_dequeEEENSD_18file_position_baseIS8_EENSD_5nil_tEEEE8new_nullESR_SR_@Base 12.0.3
 _ZN11json_spirit16Semantic_actionsINS_10Value_implINS_10Config_mapINSt7__cxx1112basic_stringIcSt11char_traitsIcESaIcEEEEEEEN5boost6spirit7classic17position_iteratorINSD_10multi_passISt16istream_iteratorIccS6_lENSD_19multi_pass_policies14input_iteratorENSI_11ref_countedENSI_12buf_id_checkENSI_9std_dequeEEENSD_18file_position_baseIS8_EENSD_5nil_tEEEE8new_realEd@Base 12.0.3
 _ZN11json_spirit16Semantic_actionsINS_10Value_implINS_10Config_mapINSt7__cxx1112basic_stringIcSt11char_traitsIcESaIcEEEEEEEN5boost6spirit7classic17position_iteratorINSD_10multi_passISt16istream_iteratorIccS6_lENSD_19multi_pass_policies14input_iteratorENSI_11ref_countedENSI_12buf_id_checkENSI_9std_dequeEEENSD_18file_position_baseIS8_EENSD_5nil_tEEEE8new_trueESR_SR_@Base 12.0.3
 _ZN11json_spirit16Semantic_actionsINS_10Value_implINS_10Config_mapINSt7__cxx1112basic_stringIcSt11char_traitsIcESaIcEEEEEEEN5boost6spirit7classic17position_iteratorINSD_10multi_passISt16istream_iteratorIccS6_lENSD_19multi_pass_policies14input_iteratorENSI_11ref_countedENSI_12buf_id_checkENSI_9std_dequeEEENSD_18file_position_baseIS8_EENSD_5nil_tEEEE9begin_objEc@Base 12.0.3
 _ZN11json_spirit16Semantic_actionsINS_10Value_implINS_10Config_mapINSt7__cxx1112basic_stringIcSt11char_traitsIcESaIcEEEEEEEN5boost6spirit7classic17position_iteratorINSD_10multi_passISt16istream_iteratorIccS6_lENSD_19multi_pass_policies14input_iteratorENSI_11ref_countedENSI_12buf_id_checkENSI_9std_dequeEEENSD_18file_position_baseIS8_EENSD_5nil_tEEEE9end_arrayEc@Base 12.0.3
 _ZN11json_spirit16Semantic_actionsINS_10Value_implINS_10Config_mapINSt7__cxx1112basic_stringIcSt11char_traitsIcESaIcEEEEEEEN5boost6spirit7classic17position_iteratorINSD_10multi_passISt16istream_iteratorIccS6_lENSD_19multi_pass_policies14input_iteratorENSI_11ref_countedENSI_12buf_id_checkENSI_9std_dequeEEENSD_18file_position_baseIS8_EENSD_5nil_tEEEE9new_falseESR_SR_@Base 12.0.3
 _ZN11json_spirit16Semantic_actionsINS_10Value_implINS_10Config_mapINSt7__cxx1112basic_stringIcSt11char_traitsIcESaIcEEEEEEEN9__gnu_cxx17__normal_iteratorIPKcS8_EEE10new_uint64Em@Base 12.0.3
 _ZN11json_spirit16Semantic_actionsINS_10Value_implINS_10Config_mapINSt7__cxx1112basic_stringIcSt11char_traitsIcESaIcEEEEEEEN9__gnu_cxx17__normal_iteratorIPKcS8_EEE11begin_arrayEc@Base 12.0.3
 _ZN11json_spirit16Semantic_actionsINS_10Value_implINS_10Config_mapINSt7__cxx1112basic_stringIcSt11char_traitsIcESaIcEEEEEEEN9__gnu_cxx17__normal_iteratorIPKcS8_EEE14add_to_currentERKSA_@Base 12.0.3
 _ZN11json_spirit16Semantic_actionsINS_10Value_implINS_10Config_mapINSt7__cxx1112basic_stringIcSt11char_traitsIcESaIcEEEEEEEN9__gnu_cxx17__normal_iteratorIPKcS8_EEE7end_objEc@Base 12.0.3
 _ZN11json_spirit16Semantic_actionsINS_10Value_implINS_10Config_mapINSt7__cxx1112basic_stringIcSt11char_traitsIcESaIcEEEEEEEN9__gnu_cxx17__normal_iteratorIPKcS8_EEE7new_intEl@Base 12.0.3
 _ZN11json_spirit16Semantic_actionsINS_10Value_implINS_10Config_mapINSt7__cxx1112basic_stringIcSt11char_traitsIcESaIcEEEEEEEN9__gnu_cxx17__normal_iteratorIPKcS8_EEE7new_strESF_SF_@Base 12.0.3
 _ZN11json_spirit16Semantic_actionsINS_10Value_implINS_10Config_mapINSt7__cxx1112basic_stringIcSt11char_traitsIcESaIcEEEEEEEN9__gnu_cxx17__normal_iteratorIPKcS8_EEE8new_nameESF_SF_@Base 12.0.3
 _ZN11json_spirit16Semantic_actionsINS_10Value_implINS_10Config_mapINSt7__cxx1112basic_stringIcSt11char_traitsIcESaIcEEEEEEEN9__gnu_cxx17__normal_iteratorIPKcS8_EEE8new_nullESF_SF_@Base 12.0.3
 _ZN11json_spirit16Semantic_actionsINS_10Value_implINS_10Config_mapINSt7__cxx1112basic_stringIcSt11char_traitsIcESaIcEEEEEEEN9__gnu_cxx17__normal_iteratorIPKcS8_EEE8new_realEd@Base 12.0.3
 _ZN11json_spirit16Semantic_actionsINS_10Value_implINS_10Config_mapINSt7__cxx1112basic_stringIcSt11char_traitsIcESaIcEEEEEEEN9__gnu_cxx17__normal_iteratorIPKcS8_EEE8new_trueESF_SF_@Base 12.0.3
 _ZN11json_spirit16Semantic_actionsINS_10Value_implINS_10Config_mapINSt7__cxx1112basic_stringIcSt11char_traitsIcESaIcEEEEEEEN9__gnu_cxx17__normal_iteratorIPKcS8_EEE9begin_objEc@Base 12.0.3
 _ZN11json_spirit16Semantic_actionsINS_10Value_implINS_10Config_mapINSt7__cxx1112basic_stringIcSt11char_traitsIcESaIcEEEEEEEN9__gnu_cxx17__normal_iteratorIPKcS8_EEE9end_arrayEc@Base 12.0.3
 _ZN11json_spirit16Semantic_actionsINS_10Value_implINS_10Config_mapINSt7__cxx1112basic_stringIcSt11char_traitsIcESaIcEEEEEEEN9__gnu_cxx17__normal_iteratorIPKcS8_EEE9new_falseESF_SF_@Base 12.0.3
 _ZN11json_spirit16Semantic_actionsINS_10Value_implINS_13Config_vectorINSt7__cxx1112basic_stringIcSt11char_traitsIcESaIcEEEEEEEN5boost6spirit7classic10multi_passISt16istream_iteratorIccS6_lENSD_19multi_pass_policies14input_iteratorENSH_11ref_countedENSH_12buf_id_checkENSH_9std_dequeEEEE10new_uint64Em@Base 12.0.3
 _ZN11json_spirit16Semantic_actionsINS_10Value_implINS_13Config_vectorINSt7__cxx1112basic_stringIcSt11char_traitsIcESaIcEEEEEEEN5boost6spirit7classic10multi_passISt16istream_iteratorIccS6_lENSD_19multi_pass_policies14input_iteratorENSH_11ref_countedENSH_12buf_id_checkENSH_9std_dequeEEEE11begin_arrayEc@Base 12.0.3
 _ZN11json_spirit16Semantic_actionsINS_10Value_implINS_13Config_vectorINSt7__cxx1112basic_stringIcSt11char_traitsIcESaIcEEEEEEEN5boost6spirit7classic10multi_passISt16istream_iteratorIccS6_lENSD_19multi_pass_policies14input_iteratorENSH_11ref_countedENSH_12buf_id_checkENSH_9std_dequeEEEE14add_to_currentERKSA_@Base 12.0.3
 _ZN11json_spirit16Semantic_actionsINS_10Value_implINS_13Config_vectorINSt7__cxx1112basic_stringIcSt11char_traitsIcESaIcEEEEEEEN5boost6spirit7classic10multi_passISt16istream_iteratorIccS6_lENSD_19multi_pass_policies14input_iteratorENSH_11ref_countedENSH_12buf_id_checkENSH_9std_dequeEEEE7end_objEc@Base 12.0.3
 _ZN11json_spirit16Semantic_actionsINS_10Value_implINS_13Config_vectorINSt7__cxx1112basic_stringIcSt11char_traitsIcESaIcEEEEEEEN5boost6spirit7classic10multi_passISt16istream_iteratorIccS6_lENSD_19multi_pass_policies14input_iteratorENSH_11ref_countedENSH_12buf_id_checkENSH_9std_dequeEEEE7new_intEl@Base 12.0.3
 _ZN11json_spirit16Semantic_actionsINS_10Value_implINS_13Config_vectorINSt7__cxx1112basic_stringIcSt11char_traitsIcESaIcEEEEEEEN5boost6spirit7classic10multi_passISt16istream_iteratorIccS6_lENSD_19multi_pass_policies14input_iteratorENSH_11ref_countedENSH_12buf_id_checkENSH_9std_dequeEEEE7new_strESM_SM_@Base 12.0.3
 _ZN11json_spirit16Semantic_actionsINS_10Value_implINS_13Config_vectorINSt7__cxx1112basic_stringIcSt11char_traitsIcESaIcEEEEEEEN5boost6spirit7classic10multi_passISt16istream_iteratorIccS6_lENSD_19multi_pass_policies14input_iteratorENSH_11ref_countedENSH_12buf_id_checkENSH_9std_dequeEEEE8new_nameESM_SM_@Base 12.0.3
 _ZN11json_spirit16Semantic_actionsINS_10Value_implINS_13Config_vectorINSt7__cxx1112basic_stringIcSt11char_traitsIcESaIcEEEEEEEN5boost6spirit7classic10multi_passISt16istream_iteratorIccS6_lENSD_19multi_pass_policies14input_iteratorENSH_11ref_countedENSH_12buf_id_checkENSH_9std_dequeEEEE8new_nullESM_SM_@Base 12.0.3
 _ZN11json_spirit16Semantic_actionsINS_10Value_implINS_13Config_vectorINSt7__cxx1112basic_stringIcSt11char_traitsIcESaIcEEEEEEEN5boost6spirit7classic10multi_passISt16istream_iteratorIccS6_lENSD_19multi_pass_policies14input_iteratorENSH_11ref_countedENSH_12buf_id_checkENSH_9std_dequeEEEE8new_realEd@Base 12.0.3
 _ZN11json_spirit16Semantic_actionsINS_10Value_implINS_13Config_vectorINSt7__cxx1112basic_stringIcSt11char_traitsIcESaIcEEEEEEEN5boost6spirit7classic10multi_passISt16istream_iteratorIccS6_lENSD_19multi_pass_policies14input_iteratorENSH_11ref_countedENSH_12buf_id_checkENSH_9std_dequeEEEE8new_trueESM_SM_@Base 12.0.3
 _ZN11json_spirit16Semantic_actionsINS_10Value_implINS_13Config_vectorINSt7__cxx1112basic_stringIcSt11char_traitsIcESaIcEEEEEEEN5boost6spirit7classic10multi_passISt16istream_iteratorIccS6_lENSD_19multi_pass_policies14input_iteratorENSH_11ref_countedENSH_12buf_id_checkENSH_9std_dequeEEEE9begin_objEc@Base 12.0.3
 _ZN11json_spirit16Semantic_actionsINS_10Value_implINS_13Config_vectorINSt7__cxx1112basic_stringIcSt11char_traitsIcESaIcEEEEEEEN5boost6spirit7classic10multi_passISt16istream_iteratorIccS6_lENSD_19multi_pass_policies14input_iteratorENSH_11ref_countedENSH_12buf_id_checkENSH_9std_dequeEEEE9end_arrayEc@Base 12.0.3
 _ZN11json_spirit16Semantic_actionsINS_10Value_implINS_13Config_vectorINSt7__cxx1112basic_stringIcSt11char_traitsIcESaIcEEEEEEEN5boost6spirit7classic10multi_passISt16istream_iteratorIccS6_lENSD_19multi_pass_policies14input_iteratorENSH_11ref_countedENSH_12buf_id_checkENSH_9std_dequeEEEE9new_falseESM_SM_@Base 12.0.3
 _ZN11json_spirit16Semantic_actionsINS_10Value_implINS_13Config_vectorINSt7__cxx1112basic_stringIcSt11char_traitsIcESaIcEEEEEEEN5boost6spirit7classic17position_iteratorIN9__gnu_cxx17__normal_iteratorIPKcS8_EENSD_18file_position_baseIS8_EENSD_5nil_tEEEE10new_uint64Em@Base 12.0.3
 _ZN11json_spirit16Semantic_actionsINS_10Value_implINS_13Config_vectorINSt7__cxx1112basic_stringIcSt11char_traitsIcESaIcEEEEEEEN5boost6spirit7classic17position_iteratorIN9__gnu_cxx17__normal_iteratorIPKcS8_EENSD_18file_position_baseIS8_EENSD_5nil_tEEEE11begin_arrayEc@Base 12.0.3
 _ZN11json_spirit16Semantic_actionsINS_10Value_implINS_13Config_vectorINSt7__cxx1112basic_stringIcSt11char_traitsIcESaIcEEEEEEEN5boost6spirit7classic17position_iteratorIN9__gnu_cxx17__normal_iteratorIPKcS8_EENSD_18file_position_baseIS8_EENSD_5nil_tEEEE14add_to_currentERKSA_@Base 12.0.3
 _ZN11json_spirit16Semantic_actionsINS_10Value_implINS_13Config_vectorINSt7__cxx1112basic_stringIcSt11char_traitsIcESaIcEEEEEEEN5boost6spirit7classic17position_iteratorIN9__gnu_cxx17__normal_iteratorIPKcS8_EENSD_18file_position_baseIS8_EENSD_5nil_tEEEE7end_objEc@Base 12.0.3
 _ZN11json_spirit16Semantic_actionsINS_10Value_implINS_13Config_vectorINSt7__cxx1112basic_stringIcSt11char_traitsIcESaIcEEEEEEEN5boost6spirit7classic17position_iteratorIN9__gnu_cxx17__normal_iteratorIPKcS8_EENSD_18file_position_baseIS8_EENSD_5nil_tEEEE7new_intEl@Base 12.0.3
 _ZN11json_spirit16Semantic_actionsINS_10Value_implINS_13Config_vectorINSt7__cxx1112basic_stringIcSt11char_traitsIcESaIcEEEEEEEN5boost6spirit7classic17position_iteratorIN9__gnu_cxx17__normal_iteratorIPKcS8_EENSD_18file_position_baseIS8_EENSD_5nil_tEEEE7new_strESN_SN_@Base 12.0.3
 _ZN11json_spirit16Semantic_actionsINS_10Value_implINS_13Config_vectorINSt7__cxx1112basic_stringIcSt11char_traitsIcESaIcEEEEEEEN5boost6spirit7classic17position_iteratorIN9__gnu_cxx17__normal_iteratorIPKcS8_EENSD_18file_position_baseIS8_EENSD_5nil_tEEEE8new_nameESN_SN_@Base 12.0.3
 _ZN11json_spirit16Semantic_actionsINS_10Value_implINS_13Config_vectorINSt7__cxx1112basic_stringIcSt11char_traitsIcESaIcEEEEEEEN5boost6spirit7classic17position_iteratorIN9__gnu_cxx17__normal_iteratorIPKcS8_EENSD_18file_position_baseIS8_EENSD_5nil_tEEEE8new_nullESN_SN_@Base 12.0.3
 _ZN11json_spirit16Semantic_actionsINS_10Value_implINS_13Config_vectorINSt7__cxx1112basic_stringIcSt11char_traitsIcESaIcEEEEEEEN5boost6spirit7classic17position_iteratorIN9__gnu_cxx17__normal_iteratorIPKcS8_EENSD_18file_position_baseIS8_EENSD_5nil_tEEEE8new_realEd@Base 12.0.3
 _ZN11json_spirit16Semantic_actionsINS_10Value_implINS_13Config_vectorINSt7__cxx1112basic_stringIcSt11char_traitsIcESaIcEEEEEEEN5boost6spirit7classic17position_iteratorIN9__gnu_cxx17__normal_iteratorIPKcS8_EENSD_18file_position_baseIS8_EENSD_5nil_tEEEE8new_trueESN_SN_@Base 12.0.3
 _ZN11json_spirit16Semantic_actionsINS_10Value_implINS_13Config_vectorINSt7__cxx1112basic_stringIcSt11char_traitsIcESaIcEEEEEEEN5boost6spirit7classic17position_iteratorIN9__gnu_cxx17__normal_iteratorIPKcS8_EENSD_18file_position_baseIS8_EENSD_5nil_tEEEE9begin_objEc@Base 12.0.3
 _ZN11json_spirit16Semantic_actionsINS_10Value_implINS_13Config_vectorINSt7__cxx1112basic_stringIcSt11char_traitsIcESaIcEEEEEEEN5boost6spirit7classic17position_iteratorIN9__gnu_cxx17__normal_iteratorIPKcS8_EENSD_18file_position_baseIS8_EENSD_5nil_tEEEE9end_arrayEc@Base 12.0.3
 _ZN11json_spirit16Semantic_actionsINS_10Value_implINS_13Config_vectorINSt7__cxx1112basic_stringIcSt11char_traitsIcESaIcEEEEEEEN5boost6spirit7classic17position_iteratorIN9__gnu_cxx17__normal_iteratorIPKcS8_EENSD_18file_position_baseIS8_EENSD_5nil_tEEEE9new_falseESN_SN_@Base 12.0.3
 _ZN11json_spirit16Semantic_actionsINS_10Value_implINS_13Config_vectorINSt7__cxx1112basic_stringIcSt11char_traitsIcESaIcEEEEEEEN5boost6spirit7classic17position_iteratorINSD_10multi_passISt16istream_iteratorIccS6_lENSD_19multi_pass_policies14input_iteratorENSI_11ref_countedENSI_12buf_id_checkENSI_9std_dequeEEENSD_18file_position_baseIS8_EENSD_5nil_tEEEE10new_uint64Em@Base 12.0.3
 _ZN11json_spirit16Semantic_actionsINS_10Value_implINS_13Config_vectorINSt7__cxx1112basic_stringIcSt11char_traitsIcESaIcEEEEEEEN5boost6spirit7classic17position_iteratorINSD_10multi_passISt16istream_iteratorIccS6_lENSD_19multi_pass_policies14input_iteratorENSI_11ref_countedENSI_12buf_id_checkENSI_9std_dequeEEENSD_18file_position_baseIS8_EENSD_5nil_tEEEE11begin_arrayEc@Base 12.0.3
 _ZN11json_spirit16Semantic_actionsINS_10Value_implINS_13Config_vectorINSt7__cxx1112basic_stringIcSt11char_traitsIcESaIcEEEEEEEN5boost6spirit7classic17position_iteratorINSD_10multi_passISt16istream_iteratorIccS6_lENSD_19multi_pass_policies14input_iteratorENSI_11ref_countedENSI_12buf_id_checkENSI_9std_dequeEEENSD_18file_position_baseIS8_EENSD_5nil_tEEEE14add_to_currentERKSA_@Base 12.0.3
 _ZN11json_spirit16Semantic_actionsINS_10Value_implINS_13Config_vectorINSt7__cxx1112basic_stringIcSt11char_traitsIcESaIcEEEEEEEN5boost6spirit7classic17position_iteratorINSD_10multi_passISt16istream_iteratorIccS6_lENSD_19multi_pass_policies14input_iteratorENSI_11ref_countedENSI_12buf_id_checkENSI_9std_dequeEEENSD_18file_position_baseIS8_EENSD_5nil_tEEEE7end_objEc@Base 12.0.3
 _ZN11json_spirit16Semantic_actionsINS_10Value_implINS_13Config_vectorINSt7__cxx1112basic_stringIcSt11char_traitsIcESaIcEEEEEEEN5boost6spirit7classic17position_iteratorINSD_10multi_passISt16istream_iteratorIccS6_lENSD_19multi_pass_policies14input_iteratorENSI_11ref_countedENSI_12buf_id_checkENSI_9std_dequeEEENSD_18file_position_baseIS8_EENSD_5nil_tEEEE7new_intEl@Base 12.0.3
 _ZN11json_spirit16Semantic_actionsINS_10Value_implINS_13Config_vectorINSt7__cxx1112basic_stringIcSt11char_traitsIcESaIcEEEEEEEN5boost6spirit7classic17position_iteratorINSD_10multi_passISt16istream_iteratorIccS6_lENSD_19multi_pass_policies14input_iteratorENSI_11ref_countedENSI_12buf_id_checkENSI_9std_dequeEEENSD_18file_position_baseIS8_EENSD_5nil_tEEEE7new_strESR_SR_@Base 12.0.3
 _ZN11json_spirit16Semantic_actionsINS_10Value_implINS_13Config_vectorINSt7__cxx1112basic_stringIcSt11char_traitsIcESaIcEEEEEEEN5boost6spirit7classic17position_iteratorINSD_10multi_passISt16istream_iteratorIccS6_lENSD_19multi_pass_policies14input_iteratorENSI_11ref_countedENSI_12buf_id_checkENSI_9std_dequeEEENSD_18file_position_baseIS8_EENSD_5nil_tEEEE8new_nameESR_SR_@Base 12.0.3
 _ZN11json_spirit16Semantic_actionsINS_10Value_implINS_13Config_vectorINSt7__cxx1112basic_stringIcSt11char_traitsIcESaIcEEEEEEEN5boost6spirit7classic17position_iteratorINSD_10multi_passISt16istream_iteratorIccS6_lENSD_19multi_pass_policies14input_iteratorENSI_11ref_countedENSI_12buf_id_checkENSI_9std_dequeEEENSD_18file_position_baseIS8_EENSD_5nil_tEEEE8new_nullESR_SR_@Base 12.0.3
 _ZN11json_spirit16Semantic_actionsINS_10Value_implINS_13Config_vectorINSt7__cxx1112basic_stringIcSt11char_traitsIcESaIcEEEEEEEN5boost6spirit7classic17position_iteratorINSD_10multi_passISt16istream_iteratorIccS6_lENSD_19multi_pass_policies14input_iteratorENSI_11ref_countedENSI_12buf_id_checkENSI_9std_dequeEEENSD_18file_position_baseIS8_EENSD_5nil_tEEEE8new_realEd@Base 12.0.3
 _ZN11json_spirit16Semantic_actionsINS_10Value_implINS_13Config_vectorINSt7__cxx1112basic_stringIcSt11char_traitsIcESaIcEEEEEEEN5boost6spirit7classic17position_iteratorINSD_10multi_passISt16istream_iteratorIccS6_lENSD_19multi_pass_policies14input_iteratorENSI_11ref_countedENSI_12buf_id_checkENSI_9std_dequeEEENSD_18file_position_baseIS8_EENSD_5nil_tEEEE8new_trueESR_SR_@Base 12.0.3
 _ZN11json_spirit16Semantic_actionsINS_10Value_implINS_13Config_vectorINSt7__cxx1112basic_stringIcSt11char_traitsIcESaIcEEEEEEEN5boost6spirit7classic17position_iteratorINSD_10multi_passISt16istream_iteratorIccS6_lENSD_19multi_pass_policies14input_iteratorENSI_11ref_countedENSI_12buf_id_checkENSI_9std_dequeEEENSD_18file_position_baseIS8_EENSD_5nil_tEEEE9begin_objEc@Base 12.0.3
 _ZN11json_spirit16Semantic_actionsINS_10Value_implINS_13Config_vectorINSt7__cxx1112basic_stringIcSt11char_traitsIcESaIcEEEEEEEN5boost6spirit7classic17position_iteratorINSD_10multi_passISt16istream_iteratorIccS6_lENSD_19multi_pass_policies14input_iteratorENSI_11ref_countedENSI_12buf_id_checkENSI_9std_dequeEEENSD_18file_position_baseIS8_EENSD_5nil_tEEEE9end_arrayEc@Base 12.0.3
 _ZN11json_spirit16Semantic_actionsINS_10Value_implINS_13Config_vectorINSt7__cxx1112basic_stringIcSt11char_traitsIcESaIcEEEEEEEN5boost6spirit7classic17position_iteratorINSD_10multi_passISt16istream_iteratorIccS6_lENSD_19multi_pass_policies14input_iteratorENSI_11ref_countedENSI_12buf_id_checkENSI_9std_dequeEEENSD_18file_position_baseIS8_EENSD_5nil_tEEEE9new_falseESR_SR_@Base 12.0.3
 _ZN11json_spirit16Semantic_actionsINS_10Value_implINS_13Config_vectorINSt7__cxx1112basic_stringIcSt11char_traitsIcESaIcEEEEEEEN9__gnu_cxx17__normal_iteratorIPKcS8_EEE10new_uint64Em@Base 12.0.3
 _ZN11json_spirit16Semantic_actionsINS_10Value_implINS_13Config_vectorINSt7__cxx1112basic_stringIcSt11char_traitsIcESaIcEEEEEEEN9__gnu_cxx17__normal_iteratorIPKcS8_EEE11begin_arrayEc@Base 12.0.3
 _ZN11json_spirit16Semantic_actionsINS_10Value_implINS_13Config_vectorINSt7__cxx1112basic_stringIcSt11char_traitsIcESaIcEEEEEEEN9__gnu_cxx17__normal_iteratorIPKcS8_EEE14add_to_currentERKSA_@Base 12.0.3
 _ZN11json_spirit16Semantic_actionsINS_10Value_implINS_13Config_vectorINSt7__cxx1112basic_stringIcSt11char_traitsIcESaIcEEEEEEEN9__gnu_cxx17__normal_iteratorIPKcS8_EEE7end_objEc@Base 12.0.3
 _ZN11json_spirit16Semantic_actionsINS_10Value_implINS_13Config_vectorINSt7__cxx1112basic_stringIcSt11char_traitsIcESaIcEEEEEEEN9__gnu_cxx17__normal_iteratorIPKcS8_EEE7new_intEl@Base 12.0.3
 _ZN11json_spirit16Semantic_actionsINS_10Value_implINS_13Config_vectorINSt7__cxx1112basic_stringIcSt11char_traitsIcESaIcEEEEEEEN9__gnu_cxx17__normal_iteratorIPKcS8_EEE7new_strESF_SF_@Base 12.0.3
 _ZN11json_spirit16Semantic_actionsINS_10Value_implINS_13Config_vectorINSt7__cxx1112basic_stringIcSt11char_traitsIcESaIcEEEEEEEN9__gnu_cxx17__normal_iteratorIPKcS8_EEE8new_nameESF_SF_@Base 12.0.3
 _ZN11json_spirit16Semantic_actionsINS_10Value_implINS_13Config_vectorINSt7__cxx1112basic_stringIcSt11char_traitsIcESaIcEEEEEEEN9__gnu_cxx17__normal_iteratorIPKcS8_EEE8new_nullESF_SF_@Base 12.0.3
 _ZN11json_spirit16Semantic_actionsINS_10Value_implINS_13Config_vectorINSt7__cxx1112basic_stringIcSt11char_traitsIcESaIcEEEEEEEN9__gnu_cxx17__normal_iteratorIPKcS8_EEE8new_realEd@Base 12.0.3
 _ZN11json_spirit16Semantic_actionsINS_10Value_implINS_13Config_vectorINSt7__cxx1112basic_stringIcSt11char_traitsIcESaIcEEEEEEEN9__gnu_cxx17__normal_iteratorIPKcS8_EEE8new_trueESF_SF_@Base 12.0.3
 _ZN11json_spirit16Semantic_actionsINS_10Value_implINS_13Config_vectorINSt7__cxx1112basic_stringIcSt11char_traitsIcESaIcEEEEEEEN9__gnu_cxx17__normal_iteratorIPKcS8_EEE9begin_objEc@Base 12.0.3
 _ZN11json_spirit16Semantic_actionsINS_10Value_implINS_13Config_vectorINSt7__cxx1112basic_stringIcSt11char_traitsIcESaIcEEEEEEEN9__gnu_cxx17__normal_iteratorIPKcS8_EEE9end_arrayEc@Base 12.0.3
 _ZN11json_spirit16Semantic_actionsINS_10Value_implINS_13Config_vectorINSt7__cxx1112basic_stringIcSt11char_traitsIcESaIcEEEEEEEN9__gnu_cxx17__normal_iteratorIPKcS8_EEE9new_falseESF_SF_@Base 12.0.3
 _ZN11json_spirit19read_range_or_throwIN5boost6spirit7classic10multi_passISt16istream_iteratorIccSt11char_traitsIcElENS3_19multi_pass_policies14input_iteratorENS9_11ref_countedENS9_12buf_id_checkENS9_9std_dequeEEENS_10Value_implINS_10Config_mapINSt7__cxx1112basic_stringIcS7_SaIcEEEEEEEEET_SN_SN_RT0_@Base 12.0.3
 _ZN11json_spirit19read_range_or_throwIN5boost6spirit7classic10multi_passISt16istream_iteratorIccSt11char_traitsIcElENS3_19multi_pass_policies14input_iteratorENS9_11ref_countedENS9_12buf_id_checkENS9_9std_dequeEEENS_10Value_implINS_13Config_vectorINSt7__cxx1112basic_stringIcS7_SaIcEEEEEEEEET_SN_SN_RT0_@Base 12.0.3
 _ZN11json_spirit19read_range_or_throwIN5boost6spirit7classic17position_iteratorIN9__gnu_cxx17__normal_iteratorIPKcNSt7__cxx1112basic_stringIcSt11char_traitsIcESaIcEEEEENS3_18file_position_baseISE_EENS3_5nil_tEEENS_10Value_implINS_10Config_mapISE_EEEEEET_SO_SO_RT0_@Base 12.0.3
 _ZN11json_spirit19read_range_or_throwIN5boost6spirit7classic17position_iteratorIN9__gnu_cxx17__normal_iteratorIPKcNSt7__cxx1112basic_stringIcSt11char_traitsIcESaIcEEEEENS3_18file_position_baseISE_EENS3_5nil_tEEENS_10Value_implINS_13Config_vectorISE_EEEEEET_SO_SO_RT0_@Base 12.0.3
 _ZN11json_spirit19read_range_or_throwIN5boost6spirit7classic17position_iteratorINS3_10multi_passISt16istream_iteratorIccSt11char_traitsIcElENS3_19multi_pass_policies14input_iteratorENSA_11ref_countedENSA_12buf_id_checkENSA_9std_dequeEEENS3_18file_position_baseINSt7__cxx1112basic_stringIcS8_SaIcEEEEENS3_5nil_tEEENS_10Value_implINS_10Config_mapISK_EEEEEET_SS_SS_RT0_@Base 12.0.3
 _ZN11json_spirit19read_range_or_throwIN5boost6spirit7classic17position_iteratorINS3_10multi_passISt16istream_iteratorIccSt11char_traitsIcElENS3_19multi_pass_policies14input_iteratorENSA_11ref_countedENSA_12buf_id_checkENSA_9std_dequeEEENS3_18file_position_baseINSt7__cxx1112basic_stringIcS8_SaIcEEEEENS3_5nil_tEEENS_10Value_implINS_13Config_vectorISK_EEEEEET_SS_SS_RT0_@Base 12.0.3
 _ZN11json_spirit19read_range_or_throwIN9__gnu_cxx17__normal_iteratorIPKcNSt7__cxx1112basic_stringIcSt11char_traitsIcESaIcEEEEENS_10Value_implINS_10Config_mapISA_EEEEEET_SG_SG_RT0_@Base 12.0.3
 _ZN11json_spirit19read_range_or_throwIN9__gnu_cxx17__normal_iteratorIPKcNSt7__cxx1112basic_stringIcSt11char_traitsIcESaIcEEEEENS_10Value_implINS_13Config_vectorISA_EEEEEET_SG_SG_RT0_@Base 12.0.3
 _ZN11json_spirit19unicode_str_to_utf8INSt7__cxx1112basic_stringIcSt11char_traitsIcESaIcEEEN9__gnu_cxx17__normal_iteratorIPKcS6_EEEET_RT0_@Base 12.0.3
 _ZN11json_spirit20read_stream_or_throwISiNS_10Value_implINS_10Config_mapINSt7__cxx1112basic_stringIcSt11char_traitsIcESaIcEEEEEEEEEvRT_RT0_@Base 12.0.3
 _ZN11json_spirit20read_stream_or_throwISiNS_10Value_implINS_13Config_vectorINSt7__cxx1112basic_stringIcSt11char_traitsIcESaIcEEEEEEEEEvRT_RT0_@Base 12.0.3
 _ZN11json_spirit20substitute_esc_charsINSt7__cxx1112basic_stringIcSt11char_traitsIcESaIcEEEEET_NS7_14const_iteratorES8_@Base 12.0.3
 _ZN11json_spirit23non_printable_to_stringINSt7__cxx1112basic_stringIcSt11char_traitsIcESaIcEEEEET_j@Base 12.0.3
 _ZN11json_spirit29append_esc_char_and_incr_iterINSt7__cxx1112basic_stringIcSt11char_traitsIcESaIcEEEEEvRT_RNS7_14const_iteratorES9_@Base 12.0.3
 _ZN11json_spirit37add_posn_iter_and_read_range_or_throwIN5boost6spirit7classic10multi_passISt16istream_iteratorIccSt11char_traitsIcElENS3_19multi_pass_policies14input_iteratorENS9_11ref_countedENS9_12buf_id_checkENS9_9std_dequeEEENS_10Value_implINS_10Config_mapINSt7__cxx1112basic_stringIcS7_SaIcEEEEEEEEEvT_SN_RT0_@Base 12.0.3
 _ZN11json_spirit37add_posn_iter_and_read_range_or_throwIN5boost6spirit7classic10multi_passISt16istream_iteratorIccSt11char_traitsIcElENS3_19multi_pass_policies14input_iteratorENS9_11ref_countedENS9_12buf_id_checkENS9_9std_dequeEEENS_10Value_implINS_13Config_vectorINSt7__cxx1112basic_stringIcS7_SaIcEEEEEEEEEvT_SN_RT0_@Base 12.0.3
 _ZN11json_spirit37add_posn_iter_and_read_range_or_throwIN9__gnu_cxx17__normal_iteratorIPKcNSt7__cxx1112basic_stringIcSt11char_traitsIcESaIcEEEEENS_10Value_implINS_10Config_mapISA_EEEEEEvT_SG_RT0_@Base 12.0.3
 _ZN11json_spirit37add_posn_iter_and_read_range_or_throwIN9__gnu_cxx17__normal_iteratorIPKcNSt7__cxx1112basic_stringIcSt11char_traitsIcESaIcEEEEENS_10Value_implINS_13Config_vectorISA_EEEEEEvT_SG_RT0_@Base 12.0.3
 _ZN11json_spirit4readERKNSt7__cxx1112basic_stringIcSt11char_traitsIcESaIcEEERNS_10Value_implINS_10Config_mapIS5_EEEE@Base 12.0.3
 _ZN11json_spirit4readERKNSt7__cxx1112basic_stringIcSt11char_traitsIcESaIcEEERNS_10Value_implINS_13Config_vectorIS5_EEEE@Base 12.0.3
 _ZN11json_spirit4readERN9__gnu_cxx17__normal_iteratorIPKcNSt7__cxx1112basic_stringIcSt11char_traitsIcESaIcEEEEESA_RNS_10Value_implINS_10Config_mapIS9_EEEE@Base 12.0.3
 _ZN11json_spirit4readERN9__gnu_cxx17__normal_iteratorIPKcNSt7__cxx1112basic_stringIcSt11char_traitsIcESaIcEEEEESA_RNS_10Value_implINS_13Config_vectorIS9_EEEE@Base 12.0.3
 _ZN11json_spirit4readERSiRNS_10Value_implINS_10Config_mapINSt7__cxx1112basic_stringIcSt11char_traitsIcESaIcEEEEEEE@Base 12.0.3
 _ZN11json_spirit4readERSiRNS_10Value_implINS_13Config_vectorINSt7__cxx1112basic_stringIcSt11char_traitsIcESaIcEEEEEEE@Base 12.0.3
 _ZN11json_spirit5is_eqIN5boost6spirit7classic10multi_passISt16istream_iteratorIccSt11char_traitsIcElENS3_19multi_pass_policies14input_iteratorENS9_11ref_countedENS9_12buf_id_checkENS9_9std_dequeEEEEEbT_SF_PKc@Base 12.0.3
 _ZN11json_spirit5is_eqIN5boost6spirit7classic17position_iteratorIN9__gnu_cxx17__normal_iteratorIPKcNSt7__cxx1112basic_stringIcSt11char_traitsIcESaIcEEEEENS3_18file_position_baseISE_EENS3_5nil_tEEEEEbT_SK_S8_@Base 12.0.3
 _ZN11json_spirit5is_eqIN5boost6spirit7classic17position_iteratorINS3_10multi_passISt16istream_iteratorIccSt11char_traitsIcElENS3_19multi_pass_policies14input_iteratorENSA_11ref_countedENSA_12buf_id_checkENSA_9std_dequeEEENS3_18file_position_baseINSt7__cxx1112basic_stringIcS8_SaIcEEEEENS3_5nil_tEEEEEbT_SO_PKc@Base 12.0.3
 _ZN11json_spirit5writeERKNS_10Value_implINS_10Config_mapINSt7__cxx1112basic_stringIcSt11char_traitsIcESaIcEEEEEEERSoj@Base 12.0.3
 _ZN11json_spirit5writeERKNS_10Value_implINS_10Config_mapINSt7__cxx1112basic_stringIcSt11char_traitsIcESaIcEEEEEEEj@Base 12.0.3
 _ZN11json_spirit5writeERKNS_10Value_implINS_13Config_vectorINSt7__cxx1112basic_stringIcSt11char_traitsIcESaIcEEEEEEERSoj@Base 12.0.3
 _ZN11json_spirit5writeERKNS_10Value_implINS_13Config_vectorINSt7__cxx1112basic_stringIcSt11char_traitsIcESaIcEEEEEEEj@Base 12.0.3
 _ZN11json_spirit6to_strINSt7__cxx1112basic_stringIcSt11char_traitsIcESaIcEEEEET_PKc@Base 12.0.3
 _ZN11json_spirit7get_strINSt7__cxx1112basic_stringIcSt11char_traitsIcESaIcEEEN5boost6spirit7classic10multi_passISt16istream_iteratorIccS4_lENS9_19multi_pass_policies14input_iteratorENSD_11ref_countedENSD_12buf_id_checkENSD_9std_dequeEEEEET_T0_SK_@Base 12.0.3
 _ZN11json_spirit7get_strINSt7__cxx1112basic_stringIcSt11char_traitsIcESaIcEEEN5boost6spirit7classic17position_iteratorIN9__gnu_cxx17__normal_iteratorIPKcS6_EENS9_18file_position_baseIS6_EENS9_5nil_tEEEEET_T0_SL_@Base 12.0.3
 _ZN11json_spirit7get_strINSt7__cxx1112basic_stringIcSt11char_traitsIcESaIcEEEN5boost6spirit7classic17position_iteratorINS9_10multi_passISt16istream_iteratorIccS4_lENS9_19multi_pass_policies14input_iteratorENSE_11ref_countedENSE_12buf_id_checkENSE_9std_dequeEEENS9_18file_position_baseIS6_EENS9_5nil_tEEEEET_T0_SP_@Base 12.0.3
 _ZN11json_spirit7get_strINSt7__cxx1112basic_stringIcSt11char_traitsIcESaIcEEEN9__gnu_cxx17__normal_iteratorIPKcS6_EEEET_T0_SD_@Base 12.0.3
 _ZN11json_spirit8get_str_INSt7__cxx1112basic_stringIcSt11char_traitsIcESaIcEEEEET_NS7_14const_iteratorES8_@Base 12.0.3
 _ZN11json_spirit9GeneratorINS_10Value_implINS_10Config_mapINSt7__cxx1112basic_stringIcSt11char_traitsIcESaIcEEEEEEENS3_19basic_ostringstreamIcS6_S7_EEE6outputERKSA_@Base 12.0.3
 _ZN11json_spirit9GeneratorINS_10Value_implINS_10Config_mapINSt7__cxx1112basic_stringIcSt11char_traitsIcESaIcEEEEEEENS3_19basic_ostringstreamIcS6_S7_EEE6outputEd@Base 12.0.3
 _ZN11json_spirit9GeneratorINS_10Value_implINS_10Config_mapINSt7__cxx1112basic_stringIcSt11char_traitsIcESaIcEEEEEEESoE6outputERKSA_@Base 12.0.3
 _ZN11json_spirit9GeneratorINS_10Value_implINS_10Config_mapINSt7__cxx1112basic_stringIcSt11char_traitsIcESaIcEEEEEEESoE6outputEd@Base 12.0.3
 _ZN11json_spirit9GeneratorINS_10Value_implINS_13Config_vectorINSt7__cxx1112basic_stringIcSt11char_traitsIcESaIcEEEEEEENS3_19basic_ostringstreamIcS6_S7_EEE6outputERKSA_@Base 12.0.3
 _ZN11json_spirit9GeneratorINS_10Value_implINS_13Config_vectorINSt7__cxx1112basic_stringIcSt11char_traitsIcESaIcEEEEEEENS3_19basic_ostringstreamIcS6_S7_EEE6outputEd@Base 12.0.3
 _ZN11json_spirit9GeneratorINS_10Value_implINS_13Config_vectorINSt7__cxx1112basic_stringIcSt11char_traitsIcESaIcEEEEEEESoE6outputERKSA_@Base 12.0.3
 _ZN11json_spirit9GeneratorINS_10Value_implINS_13Config_vectorINSt7__cxx1112basic_stringIcSt11char_traitsIcESaIcEEEEEEESoE6outputEd@Base 12.0.3
 _ZN11json_spirit9Pair_implINS_13Config_vectorINSt7__cxx1112basic_stringIcSt11char_traitsIcESaIcEEEEEED1Ev@Base 12.0.3
 _ZN11json_spirit9Pair_implINS_13Config_vectorINSt7__cxx1112basic_stringIcSt11char_traitsIcESaIcEEEEEED2Ev@Base 12.0.3
 _ZN11md_config_t10injectargsER12ConfigValuesRK13ConfigTrackerRKNSt7__cxx1112basic_stringIcSt11char_traitsIcESaIcEEEPSo@Base 12.0.3
 _ZN11md_config_t10parse_argvER12ConfigValuesRK13ConfigTrackerRSt6vectorIPKcSaIS7_EEi@Base 12.0.3
 _ZN11md_config_t12parse_optionER12ConfigValuesRK13ConfigTrackerRSt6vectorIPKcSaIS7_EERN9__gnu_cxx17__normal_iteratorIPS7_S9_EEPSoi@Base 12.0.3
 _ZN11md_config_t12set_mon_valsEPN4ceph6common11CephContextER12ConfigValuesRK13ConfigTrackerRKSt3mapINSt7__cxx1112basic_stringIcSt11char_traitsIcESaIcEEESF_St4lessIvESaISt4pairIKSF_SF_EEESt8functionIFbRSJ_SQ_EE@Base 12.0.3
 _ZN11md_config_t13get_config_blERK12ConfigValuesmPN4ceph6buffer7v15_2_04listEPm@Base 12.0.3
 _ZN11md_config_t14set_val_or_dieER12ConfigValuesRK13ConfigTrackerSt17basic_string_viewIcSt11char_traitsIcEERKNSt7__cxx1112basic_stringIcS7_SaIcEEE@Base 12.0.3
 _ZN11md_config_t15get_defaults_blERK12ConfigValuesPN4ceph6buffer7v15_2_04listE@Base 12.0.3
 _ZN11md_config_t15set_val_defaultER12ConfigValuesRK13ConfigTrackerSt17basic_string_viewIcSt11char_traitsIcEERKNSt7__cxx1112basic_stringIcS7_SaIcEEE@Base 12.0.3
 _ZN11md_config_t15validate_schemaEv@Base 12.0.3
 _ZN11md_config_t16parse_injectargsER12ConfigValuesRK13ConfigTrackerRSt6vectorIPKcSaIS7_EEPSo@Base 12.0.3
 _ZN11md_config_t17update_legacy_valER12ConfigValuesRK6OptionN5boost7variantIMS0_lJMS0_mMS0_NSt7__cxx1112basic_stringIcSt11char_traitsIcESaIcEEEMS0_dMS0_bMS0_13entity_addr_tMS0_16entity_addrvec_tMS0_6uuid_dEEE@Base 12.0.3
 _ZN11md_config_t18parse_config_filesER12ConfigValuesRK13ConfigTrackerPKcPSoi@Base 12.0.3
 _ZN11md_config_t18update_legacy_valsER12ConfigValues@Base 12.0.3
 _ZN11md_config_t22finalize_reexpand_metaER12ConfigValuesRK13ConfigTracker@Base 12.0.3
 _ZN11md_config_t25set_safe_to_start_threadsEv@Base 12.0.3
 _ZN11md_config_t26complain_about_parse_errorEPN4ceph6common11CephContextE@Base 12.0.3
 _ZN11md_config_t28_clear_safe_to_start_threadsEv@Base 12.0.3
 _ZN11md_config_t6rm_valER12ConfigValuesSt17basic_string_viewIcSt11char_traitsIcEE@Base 12.0.3
 _ZN11md_config_t7_rm_valER12ConfigValuesSt17basic_string_viewIcSt11char_traitsIcEEi@Base 12.0.3
 _ZN11md_config_t7set_valER12ConfigValuesRK13ConfigTrackerSt17basic_string_viewIcSt11char_traitsIcEEPKcPNSt7__cxx1118basic_stringstreamIcS7_SaIcEEE@Base 12.0.3
 _ZN11md_config_t8_refreshER12ConfigValuesRK6Option@Base 12.0.3
 _ZN11md_config_t8_set_valER12ConfigValuesRK13ConfigTrackerRKNSt7__cxx1112basic_stringIcSt11char_traitsIcESaIcEEERK6OptioniPSA_@Base 12.0.3
 _ZN11md_config_t9parse_envEjR12ConfigValuesRK13ConfigTrackerPKc@Base 12.0.3
 _ZN11md_config_tC1ER12ConfigValuesRK13ConfigTrackerb@Base 12.0.3
 _ZN11md_config_tC2ER12ConfigValuesRK13ConfigTrackerb@Base 12.0.3
 _ZN11md_config_tD1Ev@Base 12.0.3
 _ZN11md_config_tD2Ev@Base 12.0.3
 _ZN11nest_info_t23generate_test_instancesERNSt7__cxx114listIPS_SaIS2_EEE@Base 12.0.3
 _ZN11nest_info_t6decodeERN4ceph6buffer7v15_2_04list13iterator_implILb1EEE@Base 12.0.3
 _ZN11old_rstat_t23generate_test_instancesERNSt7__cxx114listIPS_SaIS2_EEE@Base 12.0.3
 _ZN11old_rstat_t6decodeERN4ceph6buffer7v15_2_04list13iterator_implILb1EEE@Base 12.0.3
 _ZN11osd_reqid_t23generate_test_instancesERNSt7__cxx114listIPS_SaIS2_EEE@Base 12.0.3
 _ZN11osd_xinfo_t23generate_test_instancesERNSt7__cxx114listIPS_SaIS2_EEE@Base 12.0.3
 _ZN11osd_xinfo_t6decodeERN4ceph6buffer7v15_2_04list13iterator_implILb1EEE@Base 12.0.3
 _ZN11pg_create_t23generate_test_instancesERNSt7__cxx114listIPS_SaIS2_EEE@Base 12.0.3
 _ZN11pg_create_t6decodeERN4ceph6buffer7v15_2_04list13iterator_implILb1EEE@Base 12.0.3
 _ZN11pg_notify_t23generate_test_instancesERNSt7__cxx114listIPS_SaIS2_EEE@Base 12.0.3
 _ZN11pg_notify_t6decodeERN4ceph6buffer7v15_2_04list13iterator_implILb1EEE@Base 12.0.3
 _ZN11pg_notify_tD1Ev@Base 12.0.3
 _ZN11pg_notify_tD2Ev@Base 12.0.3
 _ZN11pool_opts_t11is_opt_nameERKNSt7__cxx1112basic_stringIcSt11char_traitsIcESaIcEEE@Base 12.0.3
 _ZN11pool_opts_t12get_opt_descERKNSt7__cxx1112basic_stringIcSt11char_traitsIcESaIcEEE@Base 12.0.3
 _ZN11pool_opts_t5unsetENS_5key_tE@Base 12.0.3
 _ZN11pool_opts_t6decodeERN4ceph6buffer7v15_2_04list13iterator_implILb1EEE@Base 12.0.3
 _ZN11pool_stat_t23generate_test_instancesERNSt7__cxx114listIPS_SaIS2_EEE@Base 12.0.3
 _ZN11pool_stat_t6decodeERN4ceph6buffer7v15_2_04list13iterator_implILb1EEE@Base 12.0.3
 _ZN11pow2_hist_t23generate_test_instancesERNSt7__cxx114listIPS_SaIS2_EEE@Base 12.0.3
 _ZN11pow2_hist_t5decayEi@Base 12.0.3
 _ZN11pow2_hist_t6decodeERN4ceph6buffer7v15_2_04list13iterator_implILb1EEE@Base 12.0.3
 _ZN12AuthRegistry11get_handlerEii@Base 12.0.3
 _ZN12AuthRegistry15_refresh_configEv@Base 12.0.3
 _ZN12AuthRegistry16_parse_mode_listERKNSt7__cxx1112basic_stringIcSt11char_traitsIcESaIcEEEPSt6vectorIjSaIjEE@Base 12.0.3
 _ZN12AuthRegistry18_parse_method_listERKNSt7__cxx1112basic_stringIcSt11char_traitsIcESaIcEEEPSt6vectorIjSaIjEE@Base 12.0.3
 _ZN12AuthRegistry18handle_conf_changeERKN4ceph6common11ConfigProxyERKSt3setINSt7__cxx1112basic_stringIcSt11char_traitsIcESaIcEEESt4lessISB_ESaISB_EE@Base 12.0.3
 _ZN12AuthRegistry9pick_modeEijRKSt6vectorIjSaIjEE@Base 12.0.3
 _ZN12AuthRegistryC1EPN4ceph6common11CephContextE@Base 12.0.3
 _ZN12AuthRegistryC2EPN4ceph6common11CephContextE@Base 12.0.3
 _ZN12AuthRegistryD0Ev@Base 12.0.3
 _ZN12AuthRegistryD1Ev@Base 12.0.3
 _ZN12AuthRegistryD2Ev@Base 12.0.3
 _ZN12ClassHandler10_get_classERKNSt7__cxx1112basic_stringIcSt11char_traitsIcESaIcEEEb@Base 12.0.3
 _ZN12ClassHandler10open_classERKNSt7__cxx1112basic_stringIcSt11char_traitsIcESaIcEEEPPNS_9ClassDataE@Base 12.0.3
 _ZN12ClassHandler11ClassFilter10unregisterEv@Base 12.0.3
 _ZN12ClassHandler11ClassMethod10unregisterEv@Base 12.0.3
 _ZN12ClassHandler11ClassMethod4execEPvRN4ceph6buffer7v15_2_04listES6_@Base 12.0.3
 _ZN12ClassHandler11_load_classEPNS_9ClassDataE@Base 12.0.3
 _ZN12ClassHandler12get_instanceEv@Base 12.0.3
 _ZN12ClassHandler13in_class_listERKNSt7__cxx1112basic_stringIcSt11char_traitsIcESaIcEEES7_@Base 12.0.3
 _ZN12ClassHandler14register_classEPKc@Base 12.0.3
 _ZN12ClassHandler16open_all_classesEv@Base 12.0.3
 _ZN12ClassHandler16unregister_classEPNS_9ClassDataE@Base 12.0.3
 _ZN12ClassHandler8shutdownEv@Base 12.0.3
 _ZN12ClassHandler9ClassData11_get_methodERKNSt7__cxx1112basic_stringIcSt11char_traitsIcESaIcEEE@Base 12.0.3
 _ZN12ClassHandler9ClassData15register_methodEPKciPFiPvPciPS4_PiE@Base 12.0.3
 _ZN12ClassHandler9ClassData16get_method_flagsERKNSt7__cxx1112basic_stringIcSt11char_traitsIcESaIcEEE@Base 12.0.3
 _ZN12ClassHandler9ClassData17unregister_filterEPNS_11ClassFilterE@Base 12.0.3
 _ZN12ClassHandler9ClassData17unregister_methodEPNS_11ClassMethodE@Base 12.0.3
 _ZN12ClassHandler9ClassData19register_cxx_filterERKNSt7__cxx1112basic_stringIcSt11char_traitsIcESaIcEEEPFP10PGLSFiltervE@Base 12.0.3
 _ZN12ClassHandler9ClassData19register_cxx_methodEPKciPFiPvPN4ceph6buffer7v15_2_04listES8_E@Base 12.0.3
 _ZN12ClassHandlerD1Ev@Base 12.0.3
 _ZN12ClassHandlerD2Ev@Base 12.0.3
 _ZN12CommandTableI10MgrCommandE13start_commandEv@Base 12.0.3
 _ZN12ConfigValues11set_loggingEiPKc@Base 12.0.3
 _ZN12ConfigValues6rm_valESt17basic_string_viewIcSt11char_traitsIcEEi@Base 12.0.3
 _ZN12ConfigValues9set_valueESt17basic_string_viewIcSt11char_traitsIcEEON5boost7variantINS4_5blankEJNSt7__cxx1112basic_stringIcS2_SaIcEEEmldb13entity_addr_t16entity_addrvec_tNSt6chrono8durationIlSt5ratioILl1ELl1EEEEN6Option6size_tE6uuid_dEEEi@Base 12.0.3
 _ZN12ConfigValuesD1Ev@Base 12.0.3
 _ZN12ConfigValuesD2Ev@Base 12.0.3
 _ZN12CrushWrapper10add_bucketEiiiiiPiS0_S0_@Base 12.0.3
 _ZN12CrushWrapper10reclassifyEPN4ceph6common11CephContextERSoRKSt3mapINSt7__cxx1112basic_stringIcSt11char_traitsIcESaIcEEESB_St4lessISB_ESaISt4pairIKSB_SB_EEERKS5_ISB_SE_ISB_SB_ESD_SaISE_ISF_SL_EEE@Base 12.0.3
 _ZN12CrushWrapper11insert_itemEPN4ceph6common11CephContextEifNSt7__cxx1112basic_stringIcSt11char_traitsIcESaIcEEERKSt3mapIS9_S9_St4lessIS9_ESaISt4pairIKS9_S9_EEEb@Base 12.0.3
 _ZN12CrushWrapper11link_bucketEPN4ceph6common11CephContextEiRKSt3mapINSt7__cxx1112basic_stringIcSt11char_traitsIcESaIcEEESA_St4lessISA_ESaISt4pairIKSA_SA_EEE@Base 12.0.3
 _ZN12CrushWrapper11move_bucketEPN4ceph6common11CephContextEiRKSt3mapINSt7__cxx1112basic_stringIcSt11char_traitsIcESaIcEEESA_St4lessISA_ESaISt4pairIKSA_SA_EEE@Base 12.0.3
 _ZN12CrushWrapper11remove_itemEPN4ceph6common11CephContextEib@Base 12.0.3
 _ZN12CrushWrapper11remove_rootEPN4ceph6common11CephContextEi@Base 12.0.3
 _ZN12CrushWrapper11remove_ruleEi@Base 12.0.3
 _ZN12CrushWrapper11rename_itemERKNSt7__cxx1112basic_stringIcSt11char_traitsIcESaIcEEES7_PSo@Base 12.0.3
 _ZN12CrushWrapper11rename_ruleERKNSt7__cxx1112basic_stringIcSt11char_traitsIcESaIcEEES7_PSo@Base 12.0.3
 _ZN12CrushWrapper11swap_bucketEPN4ceph6common11CephContextEii@Base 12.0.3
 _ZN12CrushWrapper11update_itemEPN4ceph6common11CephContextEifNSt7__cxx1112basic_stringIcSt11char_traitsIcESaIcEEERKSt3mapIS9_S9_St4lessIS9_ESaISt4pairIKS9_S9_EEE@Base 12.0.3
 _ZN12CrushWrapper12rename_classERKNSt7__cxx1112basic_stringIcSt11char_traitsIcESaIcEEES7_@Base 12.0.3
 _ZN12CrushWrapper12verify_upmapEPN4ceph6common11CephContextEiiRKSt6vectorIiSaIiEE@Base 12.0.3
 _ZN12CrushWrapper13detach_bucketEPN4ceph6common11CephContextEi@Base 12.0.3
 _ZN12CrushWrapper13parse_loc_mapERKSt6vectorINSt7__cxx1112basic_stringIcSt11char_traitsIcESaIcEEESaIS6_EEPSt3mapIS6_S6_St4lessIS6_ESaISt4pairIKS6_S6_EEE@Base 12.0.3
 _ZN12CrushWrapper13rename_bucketERKNSt7__cxx1112basic_stringIcSt11char_traitsIcESaIcEEES7_PSo@Base 12.0.3
 _ZN12CrushWrapper13set_type_nameEiRKNSt7__cxx1112basic_stringIcSt11char_traitsIcESaIcEEE@Base 12.0.3
 _ZN12CrushWrapper14_class_is_deadEi@Base 12.0.3
 _ZN12CrushWrapper14bucket_set_algEii@Base 12.0.3
 _ZN12CrushWrapper14check_item_locEPN4ceph6common11CephContextEiRKSt3mapINSt7__cxx1112basic_stringIcSt11char_traitsIcESaIcEEESA_St4lessISA_ESaISt4pairIKSA_SA_EEEPi@Base 12.0.3
 _ZN12CrushWrapper14renumber_rulesEv@Base 12.0.3
 _ZN12CrushWrapper15add_simple_ruleENSt7__cxx1112basic_stringIcSt11char_traitsIcESaIcEEES5_S5_S5_S5_iPSo@Base 12.0.3
 _ZN12CrushWrapper15bucket_add_itemEP12crush_bucketii@Base 12.0.3
 _ZN12CrushWrapper15class_is_in_useEiPSo@Base 12.0.3
 _ZN12CrushWrapper15reweight_bucketEP12crush_bucketR20crush_choose_arg_mapPSt6vectorIjSaIjEE@Base 12.0.3
 _ZN12CrushWrapper16get_rules_by_osdEiPSt3setIiSt4lessIiESaIiEE@Base 12.0.3
 _ZN12CrushWrapper16populate_classesERKSt3mapIiS0_IiiSt4lessIiESaISt4pairIKiiEEES2_SaIS3_IS4_S7_EEE@Base 12.0.3
 _ZN12CrushWrapper17_bucket_is_in_useEi@Base 12.0.3
 _ZN12CrushWrapper17get_full_locationERKNSt7__cxx1112basic_stringIcSt11char_traitsIcESaIcEEEPSt3mapIS5_S5_St4lessIS5_ESaISt4pairIS6_S5_EEE@Base 12.0.3
 _ZN12CrushWrapper17get_new_bucket_idEv@Base 12.0.3
 _ZN12CrushWrapper17remove_item_underEPN4ceph6common11CephContextEiib@Base 12.0.3
 _ZN12CrushWrapper17set_subtree_classERKNSt7__cxx1112basic_stringIcSt11char_traitsIcESaIcEEES7_@Base 12.0.3
 _ZN12CrushWrapper18_remove_item_underEPN4ceph6common11CephContextEiib@Base 12.0.3
 _ZN12CrushWrapper18add_simple_rule_atENSt7__cxx1112basic_stringIcSt11char_traitsIcESaIcEEES5_S5_S5_S5_iiPSo@Base 12.0.3
 _ZN12CrushWrapper18adjust_item_weightEPN4ceph6common11CephContextEiib@Base 12.0.3
 _ZN12CrushWrapper18bucket_remove_itemEP12crush_bucketi@Base 12.0.3
 _ZN12CrushWrapper18device_class_cloneEiiRKSt3mapIiS0_IiiSt4lessIiESaISt4pairIKiiEEES2_SaIS3_IS4_S7_EEERKSt3setIiS2_SaIiEEPiPS0_IiS0_IiSt6vectorIiSE_ES2_SaIS3_IS4_SK_EEES2_SaIS3_IS4_SN_EEE@Base 12.0.3
 _ZN12CrushWrapper18get_rules_by_classERKNSt7__cxx1112basic_stringIcSt11char_traitsIcESaIcEEEPSt3setIiSt4lessIiESaIiEE@Base 12.0.3
 _ZN12CrushWrapper18is_valid_crush_locEPN4ceph6common11CephContextERKSt3mapINSt7__cxx1112basic_stringIcSt11char_traitsIcESaIcEEESA_St4lessISA_ESaISt4pairIKSA_SA_EEE@Base 12.0.3
 _ZN12CrushWrapper18parse_loc_multimapERKSt6vectorINSt7__cxx1112basic_stringIcSt11char_traitsIcESaIcEEESaIS6_EEPSt8multimapIS6_S6_St4lessIS6_ESaISt4pairIKS6_S6_EEE@Base 12.0.3
 _ZN12CrushWrapper18update_choose_argsEPN4ceph6common11CephContextE@Base 12.0.3
 _ZN12CrushWrapper19create_or_move_itemEPN4ceph6common11CephContextEifNSt7__cxx1112basic_stringIcSt11char_traitsIcESaIcEEERKSt3mapIS9_S9_St4lessIS9_ESaISt4pairIKS9_S9_EEEb@Base 12.0.3
 _ZN12CrushWrapper19decode_crush_bucketEPP12crush_bucketRN4ceph6buffer7v15_2_04list13iterator_implILb1EEE@Base 12.0.3
 _ZN12CrushWrapper19get_subtree_of_typeEiPSt6vectorIiSaIiEE@Base 12.0.3
 _ZN12CrushWrapper19is_valid_crush_nameERKNSt7__cxx1112basic_stringIcSt11char_traitsIcESaIcEEE@Base 12.0.3
 _ZN12CrushWrapper19remove_device_classEPN4ceph6common11CephContextEiPSo@Base 12.0.3
 _ZN12CrushWrapper19update_device_classEiRKNSt7__cxx1112basic_stringIcSt11char_traitsIcESaIcEEES7_PSo@Base 12.0.3
 _ZN12CrushWrapper20cleanup_dead_classesEv@Base 12.0.3
 _ZN12CrushWrapper21adjust_subtree_weightEPN4ceph6common11CephContextEiib@Base 12.0.3
 _ZN12CrushWrapper21trim_roots_with_classEPN4ceph6common11CephContextE@Base 12.0.3
 _ZN12CrushWrapper22get_item_weight_in_locEiRKSt3mapINSt7__cxx1112basic_stringIcSt11char_traitsIcESaIcEEES6_St4lessIS6_ESaISt4pairIKS6_S6_EEE@Base 12.0.3
 _ZN12CrushWrapper23generate_test_instancesERNSt7__cxx114listIPS_SaIS2_EEE@Base 12.0.3
 _ZN12CrushWrapper25adjust_item_weight_in_locEPN4ceph6common11CephContextEiiRKSt3mapINSt7__cxx1112basic_stringIcSt11char_traitsIcESaIcEEESA_St4lessISA_ESaISt4pairIKSA_SA_EEEb@Base 12.0.3
 _ZN12CrushWrapper25bucket_adjust_item_weightEPN4ceph6common11CephContextEP12crush_bucketiib@Base 12.0.3
 _ZN12CrushWrapper26rebuild_roots_with_classesEPN4ceph6common11CephContextE@Base 12.0.3
 _ZN12CrushWrapper27_maybe_remove_last_instanceEPN4ceph6common11CephContextEib@Base 12.0.3
 _ZN12CrushWrapper28adjust_item_weight_in_bucketEPN4ceph6common11CephContextEiiib@Base 12.0.3
 _ZN12CrushWrapper30choose_args_adjust_item_weightEPN4ceph6common11CephContextE20crush_choose_arg_mapiRKSt6vectorIiSaIiEEPSo@Base 12.0.3
 _ZN12CrushWrapper41_choose_args_adjust_item_weight_in_bucketEPN4ceph6common11CephContextE20crush_choose_arg_mapiiRKSt6vectorIiSaIiEEPSo@Base 12.0.3
 _ZN12CrushWrapper45get_osd_pool_default_crush_replicated_rulesetEPN4ceph6common11CephContextE@Base 12.0.3
 _ZN12CrushWrapper6decodeERN4ceph6buffer7v15_2_04list13iterator_implILb1EEE@Base 12.0.3
 _ZN12CrushWrapper8reweightEPN4ceph6common11CephContextE@Base 12.0.3
 _ZN12CrushWrapperC1Ev@Base 12.0.3
 _ZN12CrushWrapperC2Ev@Base 12.0.3
 _ZN12CrushWrapperD1Ev@Base 12.0.3
 _ZN12CrushWrapperD2Ev@Base 12.0.3
 _ZN12CryptoRandom12open_urandomEv@Base 12.0.3
 _ZN12CryptoRandom9get_bytesEPci@Base 12.0.3
 _ZN12CryptoRandomC1Ev@Base 12.0.3
 _ZN12CryptoRandomC2Ev@Base 12.0.3
 _ZN12CryptoRandomD1Ev@Base 12.0.3
 _ZN12CryptoRandomD2Ev@Base 12.0.3
 _ZN12DecayCounter23generate_test_instancesERNSt7__cxx114listIPS_SaIS2_EEE@Base 12.0.3
 _ZN12DecayCounter6decodeERN4ceph6buffer7v15_2_04list13iterator_implILb1EEE@Base 12.0.3
 _ZN12GetdescsHook4callESt17basic_string_viewIcSt11char_traitsIcEERKSt3mapINSt7__cxx1112basic_stringIcS2_SaIcEEEN5boost7variantIS8_JbldSt6vectorIS8_SaIS8_EESB_IlSaIlEESB_IdSaIdEEEEESt4lessIvESaISt4pairIKS8_SI_EEEPN4ceph9FormatterERSoRNSS_6buffer7v15_2_04listE@Base 12.0.3
 _ZN12GetdescsHookD0Ev@Base 12.0.3
 _ZN12GetdescsHookD1Ev@Base 12.0.3
 _ZN12GetdescsHookD2Ev@Base 12.0.3
 _ZN12MCacheExpire14decode_payloadEv@Base 12.0.3
 _ZN12MCacheExpire14encode_payloadEm@Base 12.0.3
 _ZN12MCacheExpireD0Ev@Base 12.0.3
 _ZN12MCacheExpireD1Ev@Base 12.0.3
 _ZN12MCacheExpireD2Ev@Base 12.0.3
 _ZN12MClientLease14decode_payloadEv@Base 12.0.3
 _ZN12MClientLease14encode_payloadEm@Base 12.0.3
 _ZN12MClientLeaseD0Ev@Base 12.0.3
 _ZN12MClientLeaseD1Ev@Base 12.0.3
 _ZN12MClientLeaseD2Ev@Base 12.0.3
 _ZN12MClientQuota14decode_payloadEv@Base 12.0.3
 _ZN12MClientQuota14encode_payloadEm@Base 12.0.3
 _ZN12MClientQuotaD0Ev@Base 12.0.3
 _ZN12MClientQuotaD1Ev@Base 12.0.3
 _ZN12MClientQuotaD2Ev@Base 12.0.3
 _ZN12MClientReply14decode_payloadEv@Base 12.0.3
 _ZN12MClientReply14encode_payloadEm@Base 12.0.3
 _ZN12MClientReplyD0Ev@Base 12.0.3
 _ZN12MClientReplyD1Ev@Base 12.0.3
 _ZN12MClientReplyD2Ev@Base 12.0.3
 _ZN12MMonElection14decode_payloadEv@Base 12.0.3
 _ZN12MMonElection14encode_payloadEm@Base 12.0.3
 _ZN12MMonElectionD0Ev@Base 12.0.3
 _ZN12MMonElectionD1Ev@Base 12.0.3
 _ZN12MMonElectionD2Ev@Base 12.0.3
 _ZN12MMonGlobalID14decode_payloadEv@Base 12.0.3
 _ZN12MMonGlobalID14encode_payloadEm@Base 12.0.3
 _ZN12MMonGlobalIDD0Ev@Base 12.0.3
 _ZN12MMonGlobalIDD1Ev@Base 12.0.3
 _ZN12MMonGlobalIDD2Ev@Base 12.0.3
 _ZN12MMonMetadata14decode_payloadEv@Base 12.0.3
 _ZN12MMonMetadata14encode_payloadEm@Base 12.0.3
 _ZN12MMonMetadataD0Ev@Base 12.0.3
 _ZN12MMonMetadataD1Ev@Base 12.0.3
 _ZN12MMonMetadataD2Ev@Base 12.0.3
 _ZN12MOSDPGCreate14decode_payloadEv@Base 12.0.3
 _ZN12MOSDPGCreate14encode_payloadEm@Base 12.0.3
 _ZN12MOSDPGCreateD0Ev@Base 12.0.3
 _ZN12MOSDPGCreateD1Ev@Base 12.0.3
 _ZN12MOSDPGCreateD2Ev@Base 12.0.3
 _ZN12MOSDPGNotify14decode_payloadEv@Base 12.0.3
 _ZN12MOSDPGNotify14encode_payloadEm@Base 12.0.3
 _ZN12MOSDPGNotifyD0Ev@Base 12.0.3
 _ZN12MOSDPGNotifyD1Ev@Base 12.0.3
 _ZN12MOSDPGNotifyD2Ev@Base 12.0.3
 _ZN12MOSDPGQuery214decode_payloadEv@Base 12.0.3
 _ZN12MOSDPGQuery214encode_payloadEm@Base 12.0.3
 _ZN12MOSDPGQuery29get_eventEv@Base 12.0.3
 _ZN12MOSDPGQuery2D0Ev@Base 12.0.3
 _ZN12MOSDPGQuery2D1Ev@Base 12.0.3
 _ZN12MOSDPGQuery2D2Ev@Base 12.0.3
 _ZN12MOSDPGRemove14decode_payloadEv@Base 12.0.3
 _ZN12MOSDPGRemove14encode_payloadEm@Base 12.0.3
 _ZN12MOSDPGRemoveD0Ev@Base 12.0.3
 _ZN12MOSDPGRemoveD1Ev@Base 12.0.3
 _ZN12MOSDPGRemoveD2Ev@Base 12.0.3
 _ZN12MOSDRepScrub14decode_payloadEv@Base 12.0.3
 _ZN12MOSDRepScrub14encode_payloadEm@Base 12.0.3
 _ZN12MOSDRepScrubD0Ev@Base 12.0.3
 _ZN12MOSDRepScrubD1Ev@Base 12.0.3
 _ZN12MOSDRepScrubD2Ev@Base 12.0.3
 _ZN12MPoolOpReply14decode_payloadEv@Base 12.0.3
 _ZN12MPoolOpReply14encode_payloadEm@Base 12.0.3
 _ZN12MPoolOpReplyD0Ev@Base 12.0.3
 _ZN12MPoolOpReplyD1Ev@Base 12.0.3
 _ZN12MPoolOpReplyD2Ev@Base 12.0.3
 _ZN12MRemoveSnaps14decode_payloadEv@Base 12.0.3
 _ZN12MRemoveSnaps14encode_payloadEm@Base 12.0.3
 _ZN12MRemoveSnapsD0Ev@Base 12.0.3
 _ZN12MRemoveSnapsD1Ev@Base 12.0.3
 _ZN12MRemoveSnapsD2Ev@Base 12.0.3
 _ZN12MStatfsReply14decode_payloadEv@Base 12.0.3
 _ZN12MStatfsReply14encode_payloadEm@Base 12.0.3
 _ZN12MStatfsReplyD0Ev@Base 12.0.3
 _ZN12MStatfsReplyD1Ev@Base 12.0.3
 _ZN12MStatfsReplyD2Ev@Base 12.0.3
 _ZN12MWatchNotify14decode_payloadEv@Base 12.0.3
 _ZN12MWatchNotify14encode_payloadEm@Base 12.0.3
 _ZN12MWatchNotifyD0Ev@Base 12.0.3
 _ZN12MWatchNotifyD1Ev@Base 12.0.3
 _ZN12MWatchNotifyD2Ev@Base 12.0.3
 _ZN12MonCapParserIN9__gnu_cxx17__normal_iteratorIPKcNSt7__cxx1112basic_stringIcSt11char_traitsIcESaIcEEEEEEC1Ev@Base 12.0.3
 _ZN12MonCapParserIN9__gnu_cxx17__normal_iteratorIPKcNSt7__cxx1112basic_stringIcSt11char_traitsIcESaIcEEEEEEC2Ev@Base 12.0.3
 _ZN12MonCapParserIN9__gnu_cxx17__normal_iteratorIPKcNSt7__cxx1112basic_stringIcSt11char_traitsIcESaIcEEEEEED1Ev@Base 12.0.3
 _ZN12MonCapParserIN9__gnu_cxx17__normal_iteratorIPKcNSt7__cxx1112basic_stringIcSt11char_traitsIcESaIcEEEEEED2Ev@Base 12.0.3
 _ZN12NetworkStack10add_threadEj@Base 12.0.3
 _ZN12NetworkStack10get_workerEv@Base 12.0.3
 _ZN12NetworkStack13create_workerEPN4ceph6common11CephContextERKNSt7__cxx1112basic_stringIcSt11char_traitsIcESaIcEEEj@Base 12.0.3
 _ZN12NetworkStack4stopEv@Base 12.0.3
 _ZN12NetworkStack5drainEv@Base 12.0.3
 _ZN12NetworkStack5readyEv@Base 12.0.3
 _ZN12NetworkStack5startEv@Base 12.0.3
 _ZN12NetworkStack6createEPN4ceph6common11CephContextERKNSt7__cxx1112basic_stringIcSt11char_traitsIcESaIcEEE@Base 12.0.3
 _ZN12NetworkStack8is_readyEv@Base 12.0.3
 _ZN12NetworkStackC1EPN4ceph6common11CephContextERKNSt7__cxx1112basic_stringIcSt11char_traitsIcESaIcEEE@Base 12.0.3
 _ZN12NetworkStackC2EPN4ceph6common11CephContextERKNSt7__cxx1112basic_stringIcSt11char_traitsIcESaIcEEE@Base 12.0.3
 _ZN12ObjectExtentD1Ev@Base 12.0.3
 _ZN12ObjectExtentD2Ev@Base 12.0.3
 _ZN12PGMapUpdater13check_osd_mapEPN4ceph6common11CephContextERK6OSDMapRK5PGMapPNS7_11IncrementalE@Base 12.0.3
 _ZN12PGMapUpdater14check_down_pgsERK6OSDMapRK5PGMapbRKSt3setIiSt4lessIiESaIiEEPNS3_11IncrementalE@Base 12.0.3
 _ZN12RecoveryDoneD0Ev@Base 12.0.3
 _ZN12RecoveryDoneD1Ev@Base 12.0.3
 _ZN12RecoveryDoneD2Ev@Base 12.0.3
 _ZN12SelectDriver10event_waitERSt6vectorI14FiredFileEventSaIS1_EEP7timeval@Base 12.0.3
 _ZN12SelectDriver13resize_eventsEi@Base 12.0.3
 _ZN12SelectDriver4initEP11EventCenteri@Base 12.0.3
 _ZN12SelectDriver9add_eventEiii@Base 12.0.3
 _ZN12SelectDriver9del_eventEiii@Base 12.0.3
 _ZN12SelectDriverD0Ev@Base 12.0.3
 _ZN12SelectDriverD1Ev@Base 12.0.3
 _ZN12SelectDriverD2Ev@Base 12.0.3
 _ZN12SloppyCRCMap11clone_rangeEmmmRKS_PSo@Base 12.0.3
 _ZN12SloppyCRCMap23generate_test_instancesERNSt7__cxx114listIPS_SaIS2_EEE@Base 12.0.3
 _ZN12SloppyCRCMap4readEmmRKN4ceph6buffer7v15_2_04listEPSo@Base 12.0.3
 _ZN12SloppyCRCMap4zeroEmm@Base 12.0.3
 _ZN12SloppyCRCMap5writeEmmRKN4ceph6buffer7v15_2_04listEPSo@Base 12.0.3
 _ZN12SloppyCRCMap6decodeERN4ceph6buffer7v15_2_04list13iterator_implILb1EEE@Base 12.0.3
 _ZN12SloppyCRCMap8truncateEm@Base 12.0.3
 _ZN12bloom_filter23generate_test_instancesERNSt7__cxx114listIPS_SaIS2_EEE@Base 12.0.3
 _ZN12bloom_filter6decodeERN4ceph6buffer7v15_2_04list13iterator_implILb1EEE@Base 12.0.3
 _ZN12bloom_filterD0Ev@Base 12.0.3
 _ZN12bloom_filterD1Ev@Base 12.0.3
 _ZN12bloom_filterD2Ev@Base 12.0.3
 _ZN12chunk_info_t6decodeERN4ceph6buffer7v15_2_04list13iterator_implILb1EEE@Base 12.0.3
 _ZN12interval_setI8snapid_tN5boost9container8flat_mapIS0_S0_St4lessIS0_EN7mempool14pool_allocatorILNS6_12pool_index_tE23ESt4pairIS0_S0_EEEEEE22intersection_size_asymERKSD_SF_@Base 12.0.3
 _ZN12interval_setI8snapid_tN5boost9container8flat_mapIS0_S0_St4lessIS0_EN7mempool14pool_allocatorILNS6_12pool_index_tE23ESt4pairIS0_S0_EEEEEE8subtractERKSD_@Base 12.0.3
 _ZN12interval_setI8snapid_tN5boost9container8flat_mapIS0_S0_St4lessIS0_EN7mempool14pool_allocatorILNS6_12pool_index_tE23ESt4pairIS0_S0_EEEEEE8union_ofERKSD_SF_@Base 12.0.3
 _ZN12interval_setI8snapid_tSt3mapIS0_S0_St4lessIS0_ESaISt4pairIKS0_S0_EEEE6insertES0_S0_PS0_SA_@Base 12.0.3
 _ZN12interval_setI9inodeno_tSt3mapIS0_S0_St4lessIS0_ESaISt4pairIKS0_S0_EEEE6insertES0_S0_PS0_SA_@Base 12.0.3
 _ZN12interval_setImSt3mapImmSt4lessImESaISt4pairIKmmEEEE6insertEmmPmS9_@Base 12.0.3
 _ZN12pg_history_t23generate_test_instancesERNSt7__cxx114listIPS_SaIS2_EEE@Base 12.0.3
 _ZN12pg_history_t6decodeERN4ceph6buffer7v15_2_04list13iterator_implILb1EEE@Base 12.0.3
 _ZN12pg_log_dup_t23generate_test_instancesERNSt7__cxx114listIPS_SaIS2_EEE@Base 12.0.3
 _ZN12pg_log_dup_t6decodeERN4ceph6buffer7v15_2_04list13iterator_implILb1EEE@Base 12.0.3
 _ZN12quota_info_t23generate_test_instancesERNSt7__cxx114listIPS_SaIS2_EEE@Base 12.0.3
 _ZN12quota_info_t6decodeERN4ceph6buffer7v15_2_04list13iterator_implILb1EEE@Base 12.0.3
 _ZN12watch_info_t23generate_test_instancesERNSt7__cxx114listIPS_SaIS2_EEE@Base 12.0.3
 _ZN12watch_info_t6decodeERN4ceph6buffer7v15_2_04list13iterator_implILb1EEE@Base 12.0.3
 _ZN13C_handle_read10do_requestEm@Base 12.0.3
 _ZN13C_handle_readD0Ev@Base 12.0.3
 _ZN13C_handle_readD1Ev@Base 12.0.3
 _ZN13C_handle_readD2Ev@Base 12.0.3
 _ZN13C_handle_reap10do_requestEm@Base 12.0.3
 _ZN13C_handle_reapD0Ev@Base 12.0.3
 _ZN13C_handle_reapD1Ev@Base 12.0.3
 _ZN13C_handle_reapD2Ev@Base 12.0.3
 _ZN13C_tick_wakeup10do_requestEm@Base 12.0.3
 _ZN13C_tick_wakeupD0Ev@Base 12.0.3
 _ZN13C_tick_wakeupD1Ev@Base 12.0.3
 _ZN13C_tick_wakeupD2Ev@Base 12.0.3
 _ZN13C_time_wakeup10do_requestEm@Base 12.0.3
 _ZN13C_time_wakeupD0Ev@Base 12.0.3
 _ZN13C_time_wakeupD1Ev@Base 12.0.3
 _ZN13C_time_wakeupD2Ev@Base 12.0.3
 _ZN13CrushCompiler10float_nodeERN5boost6spirit9tree_nodeINS1_13node_val_dataIPKcNS1_5nil_tEEEEE@Base 12.0.3
 _ZN13CrushCompiler10parse_ruleERKN9__gnu_cxx17__normal_iteratorIPN5boost6spirit9tree_nodeINS3_13node_val_dataIPKcNS3_5nil_tEEEEESt6vectorISA_SaISA_EEEE@Base 12.0.3
 _ZN13CrushCompiler11parse_crushERKN9__gnu_cxx17__normal_iteratorIPN5boost6spirit9tree_nodeINS3_13node_val_dataIPKcNS3_5nil_tEEEEESt6vectorISA_SaISA_EEEE@Base 12.0.3
 _ZN13CrushCompiler11string_nodeB5cxx11ERN5boost6spirit9tree_nodeINS1_13node_val_dataIPKcNS1_5nil_tEEEEE@Base 12.0.3
 _ZN13CrushCompiler12parse_bucketERKN9__gnu_cxx17__normal_iteratorIPN5boost6spirit9tree_nodeINS3_13node_val_dataIPKcNS3_5nil_tEEEEESt6vectorISA_SaISA_EEEE@Base 12.0.3
 _ZN13CrushCompiler12parse_deviceERKN9__gnu_cxx17__normal_iteratorIPN5boost6spirit9tree_nodeINS3_13node_val_dataIPKcNS3_5nil_tEEEEESt6vectorISA_SaISA_EEEE@Base 12.0.3
 _ZN13CrushCompiler13decompile_idsEPijRSo@Base 12.0.3
 _ZN13CrushCompiler13parse_tunableERKN9__gnu_cxx17__normal_iteratorIPN5boost6spirit9tree_nodeINS3_13node_val_dataIPKcNS3_5nil_tEEEEESt6vectorISA_SaISA_EEEE@Base 12.0.3
 _ZN13CrushCompiler16decompile_bucketEiRSt3mapIiNS_11dcb_state_tESt4lessIiESaISt4pairIKiS1_EEERSo@Base 12.0.3
 _ZN13CrushCompiler16parse_choose_argERKN9__gnu_cxx17__normal_iteratorIPN5boost6spirit9tree_nodeINS3_13node_val_dataIPKcNS3_5nil_tEEEEESt6vectorISA_SaISA_EEEEP16crush_choose_arg@Base 12.0.3
 _ZN13CrushCompiler16parse_weight_setERKN9__gnu_cxx17__normal_iteratorIPN5boost6spirit9tree_nodeINS3_13node_val_dataIPKcNS3_5nil_tEEEEESt6vectorISA_SaISA_EEEEiP16crush_choose_arg@Base 12.0.3
 _ZN13CrushCompiler17parse_bucket_typeERKN9__gnu_cxx17__normal_iteratorIPN5boost6spirit9tree_nodeINS3_13node_val_dataIPKcNS3_5nil_tEEEEESt6vectorISA_SaISA_EEEE@Base 12.0.3
 _ZN13CrushCompiler17parse_choose_argsERKN9__gnu_cxx17__normal_iteratorIPN5boost6spirit9tree_nodeINS3_13node_val_dataIPKcNS3_5nil_tEEEEESt6vectorISA_SaISA_EEEE@Base 12.0.3
 _ZN13CrushCompiler20decompile_choose_argEP16crush_choose_argiRSo@Base 12.0.3
 _ZN13CrushCompiler20decompile_weight_setEP16crush_weight_setjRSo@Base 12.0.3
 _ZN13CrushCompiler20find_used_bucket_idsERKN9__gnu_cxx17__normal_iteratorIPN5boost6spirit9tree_nodeINS3_13node_val_dataIPKcNS3_5nil_tEEEEESt6vectorISA_SaISA_EEEE@Base 12.0.3
 _ZN13CrushCompiler20parse_choose_arg_idsERKN9__gnu_cxx17__normal_iteratorIPN5boost6spirit9tree_nodeINS3_13node_val_dataIPKcNS3_5nil_tEEEEESt6vectorISA_SaISA_EEEEiP16crush_choose_arg@Base 12.0.3
 _ZN13CrushCompiler21decompile_bucket_implEiRSo@Base 12.0.3
 _ZN13CrushCompiler21decompile_choose_argsERKSt4pairIKm20crush_choose_arg_mapERSo@Base 12.0.3
 _ZN13CrushCompiler22consolidate_whitespaceENSt7__cxx1112basic_stringIcSt11char_traitsIcESaIcEEE@Base 12.0.3
 _ZN13CrushCompiler24adjust_bucket_item_placeERKN9__gnu_cxx17__normal_iteratorIPN5boost6spirit9tree_nodeINS3_13node_val_dataIPKcNS3_5nil_tEEEEESt6vectorISA_SaISA_EEEE@Base 12.0.3
 _ZN13CrushCompiler24decompile_choose_arg_mapE20crush_choose_arg_mapRSo@Base 12.0.3
 _ZN13CrushCompiler24parse_weight_set_weightsERKN9__gnu_cxx17__normal_iteratorIPN5boost6spirit9tree_nodeINS3_13node_val_dataIPKcNS3_5nil_tEEEEESt6vectorISA_SaISA_EEEEiP16crush_weight_set@Base 12.0.3
 _ZN13CrushCompiler28decompile_weight_set_weightsE16crush_weight_setRSo@Base 12.0.3
 _ZN13CrushCompiler4dumpERKN9__gnu_cxx17__normal_iteratorIPN5boost6spirit9tree_nodeINS3_13node_val_dataIPKcNS3_5nil_tEEEEESt6vectorISA_SaISA_EEEEi@Base 12.0.3
 _ZN13CrushCompiler7compileERSiPKc@Base 12.0.3
 _ZN13CrushCompiler8int_nodeERN5boost6spirit9tree_nodeINS1_13node_val_dataIPKcNS1_5nil_tEEEEE@Base 12.0.3
 _ZN13CrushCompiler9decompileERSo@Base 12.0.3
 _ZN13CryptoHandler6createEi@Base 12.0.3
 _ZN13DeferRecoveryD0Ev@Base 12.0.3
 _ZN13DeferRecoveryD1Ev@Base 12.0.3
 _ZN13DeferRecoveryD2Ev@Base 12.0.3
 _ZN13DispatchQueue11queue_resetEP10Connection@Base 12.0.3
 _ZN13DispatchQueue12pre_dispatchERKN5boost13intrusive_ptrI7MessageEE@Base 12.0.3
 _ZN13DispatchQueue13discard_localEv@Base 12.0.3
 _ZN13DispatchQueue13discard_queueEm@Base 12.0.3
 _ZN13DispatchQueue13fast_dispatchERKN5boost13intrusive_ptrI7MessageEE@Base 12.0.3
 _ZN13DispatchQueue13post_dispatchERKN5boost13intrusive_ptrI7MessageEEm@Base 12.0.3
 _ZN13DispatchQueue14DispatchThread5entryEv@Base 12.0.3
 _ZN13DispatchQueue14DispatchThreadD0Ev@Base 12.0.3
 _ZN13DispatchQueue14DispatchThreadD1Ev@Base 12.0.3
 _ZN13DispatchQueue14DispatchThreadD2Ev@Base 12.0.3
 _ZN13DispatchQueue14local_deliveryERKN5boost13intrusive_ptrI7MessageEEi@Base 12.0.3
 _ZN13DispatchQueue15fast_preprocessERKN5boost13intrusive_ptrI7MessageEE@Base 12.0.3
 _ZN13DispatchQueue18run_local_deliveryEv@Base 12.0.3
 _ZN13DispatchQueue19LocalDeliveryThread5entryEv@Base 12.0.3
 _ZN13DispatchQueue19LocalDeliveryThreadD0Ev@Base 12.0.3
 _ZN13DispatchQueue19LocalDeliveryThreadD1Ev@Base 12.0.3
 _ZN13DispatchQueue19LocalDeliveryThreadD2Ev@Base 12.0.3
 _ZN13DispatchQueue25dispatch_throttle_releaseEm@Base 12.0.3
 _ZN13DispatchQueue4waitEv@Base 12.0.3
 _ZN13DispatchQueue5entryEv@Base 12.0.3
 _ZN13DispatchQueue5startEv@Base 12.0.3
 _ZN13DispatchQueue7enqueueERKN5boost13intrusive_ptrI7MessageEEim@Base 12.0.3
 _ZN13DispatchQueue8shutdownEv@Base 12.0.3
 _ZN13DispatchQueue9QueueItemD1Ev@Base 12.0.3
 _ZN13DispatchQueue9QueueItemD2Ev@Base 12.0.3
 _ZN13DispatchQueueD1Ev@Base 12.0.3
 _ZN13DispatchQueueD2Ev@Base 12.0.3
 _ZN13MCommandReply14decode_payloadEv@Base 12.0.3
 _ZN13MCommandReply14encode_payloadEm@Base 12.0.3
 _ZN13MCommandReplyD0Ev@Base 12.0.3
 _ZN13MCommandReplyD1Ev@Base 12.0.3
 _ZN13MCommandReplyD2Ev@Base 12.0.3
 _ZN13MDentryUnlink14decode_payloadEv@Base 12.0.3
 _ZN13MDentryUnlink14encode_payloadEm@Base 12.0.3
 _ZN13MDentryUnlinkD0Ev@Base 12.0.3
 _ZN13MDentryUnlinkD1Ev@Base 12.0.3
 _ZN13MDentryUnlinkD2Ev@Base 12.0.3
 _ZN13MExportDirAck14decode_payloadEv@Base 12.0.3
 _ZN13MExportDirAck14encode_payloadEm@Base 12.0.3
 _ZN13MExportDirAckD0Ev@Base 12.0.3
 _ZN13MExportDirAckD1Ev@Base 12.0.3
 _ZN13MExportDirAckD2Ev@Base 12.0.3
 _ZN13MGetPoolStats14decode_payloadEv@Base 12.0.3
 _ZN13MGetPoolStats14encode_payloadEm@Base 12.0.3
 _ZN13MGetPoolStatsD0Ev@Base 12.0.3
 _ZN13MGetPoolStatsD1Ev@Base 12.0.3
 _ZN13MGetPoolStatsD2Ev@Base 12.0.3
 _ZN13MMgrConfigure14decode_payloadEv@Base 12.0.3
 _ZN13MMgrConfigure14encode_payloadEm@Base 12.0.3
 _ZN13MMgrConfigureD0Ev@Base 12.0.3
 _ZN13MMgrConfigureD1Ev@Base 12.0.3
 _ZN13MMgrConfigureD2Ev@Base 12.0.3
 _ZN13MMonGetOSDMap14decode_payloadEv@Base 12.0.3
 _ZN13MMonGetOSDMap14encode_payloadEm@Base 12.0.3
 _ZN13MMonGetOSDMapD0Ev@Base 12.0.3
 _ZN13MMonGetOSDMapD1Ev@Base 12.0.3
 _ZN13MMonGetOSDMapD2Ev@Base 12.0.3
 _ZN13MMonMgrReport14decode_payloadEv@Base 12.0.3
 _ZN13MMonMgrReport14encode_payloadEm@Base 12.0.3
 _ZN13MMonMgrReportD0Ev@Base 12.0.3
 _ZN13MMonMgrReportD1Ev@Base 12.0.3
 _ZN13MMonMgrReportD2Ev@Base 12.0.3
 _ZN13MMonSubscribe14decode_payloadEv@Base 12.0.3
 _ZN13MMonSubscribe14encode_payloadEm@Base 12.0.3
 _ZN13MMonSubscribeD0Ev@Base 12.0.3
 _ZN13MMonSubscribeD1Ev@Base 12.0.3
 _ZN13MMonSubscribeD2Ev@Base 12.0.3
 _ZN13MOSDPGCreate214decode_payloadEv@Base 12.0.3
 _ZN13MOSDPGCreate214encode_payloadEm@Base 12.0.3
 _ZN13MOSDPGCreate2D0Ev@Base 12.0.3
 _ZN13MOSDPGCreate2D1Ev@Base 12.0.3
 _ZN13MOSDPGCreate2D2Ev@Base 12.0.3
 _ZN13MOSDPGCreated14decode_payloadEv@Base 12.0.3
 _ZN13MOSDPGCreated14encode_payloadEm@Base 12.0.3
 _ZN13MOSDPGCreatedD0Ev@Base 12.0.3
 _ZN13MOSDPGCreatedD1Ev@Base 12.0.3
 _ZN13MOSDPGCreatedD2Ev@Base 12.0.3
 _ZN13MOSDPGNotify214decode_payloadEv@Base 12.0.3
 _ZN13MOSDPGNotify214encode_payloadEm@Base 12.0.3
 _ZN13MOSDPGNotify29get_eventEv@Base 12.0.3
 _ZN13MOSDPGNotify2D0Ev@Base 12.0.3
 _ZN13MOSDPGNotify2D1Ev@Base 12.0.3
 _ZN13MOSDPGNotify2D2Ev@Base 12.0.3
 _ZN13MonConnection10_init_authEjRK10EntityNamejP15RotatingKeyRingb@Base 12.0.3
 _ZN13MonConnection10_negotiateEP10MAuthReplyRK10EntityNamejP15RotatingKeyRing@Base 12.0.3
 _ZN13MonConnection11handle_authEP10MAuthReplyRK10EntityNamejP15RotatingKeyRing@Base 12.0.3
 _ZN13MonConnection12authenticateEP10MAuthReply@Base 12.0.3
 _ZN13MonConnection16get_auth_requestEPjPSt6vectorIjSaIjEEPN4ceph6buffer7v15_2_04listERK10EntityNamejP15RotatingKeyRing@Base 12.0.3
 _ZN13MonConnection16handle_auth_doneEP18AuthConnectionMetamRKN4ceph6buffer7v15_2_04listEP9CryptoKeyPNSt7__cxx1112basic_stringIcSt11char_traitsIcESaIcEEE@Base 12.0.3
 _ZN13MonConnection22handle_auth_bad_methodEjiRKSt6vectorIjSaIjEES4_@Base 12.0.3
 _ZN13MonConnection22handle_auth_reply_moreEP18AuthConnectionMetaRKN4ceph6buffer7v15_2_04listEPS5_@Base 12.0.3
 _ZN13MonConnection5startEjRK10EntityName@Base 12.0.3
 _ZN13MonConnectionC1EPN4ceph6common11CephContextEN5boost13intrusive_ptrI10ConnectionEEmP12AuthRegistry@Base 12.0.3
 _ZN13MonConnectionC2EPN4ceph6common11CephContextEN5boost13intrusive_ptrI10ConnectionEEmP12AuthRegistry@Base 12.0.3
 _ZN13MonConnectionD1Ev@Base 12.0.3
 _ZN13MonConnectionD2Ev@Base 12.0.3
 _ZN13OSDMapMapping10MappingJob7processERKSt6vectorI4pg_tSaIS2_EE@Base 12.0.3
 _ZN13OSDMapMapping10MappingJob7processEljj@Base 12.0.3
 _ZN13OSDMapMapping10MappingJob8completeEv@Base 12.0.3
 _ZN13OSDMapMapping11_build_rmapERK6OSDMap@Base 12.0.3
 _ZN13OSDMapMapping13_update_rangeERK6OSDMapljj@Base 12.0.3
 _ZN13OSDMapMapping14_init_mappingsERK6OSDMap@Base 12.0.3
 _ZN13OSDMapMapping5_dumpEv@Base 12.0.3
 _ZN13OSDMapMapping6updateERK6OSDMap4pg_t@Base 12.0.3
 _ZN13OSDMapMapping6updateERK6OSDMap@Base 12.0.3
 _ZN13OSDMapMapping7_finishERK6OSDMap@Base 12.0.3
 _ZN13OSDMapMappingdlEPv@Base 12.0.3
 _ZN13OSDMapMappingnwEm@Base 12.0.3
 _ZN13OSDSuperblock23generate_test_instancesERNSt7__cxx114listIPS_SaIS2_EEE@Base 12.0.3
 _ZN13OSDSuperblock6decodeERN4ceph6buffer7v15_2_04list13iterator_implILb1EEE@Base 12.0.3
 _ZN13ObjectModDesc23generate_test_instancesERNSt7__cxx114listIPS_SaIS2_EEE@Base 12.0.3
 _ZN13ObjectModDesc6decodeERN4ceph6buffer7v15_2_04list13iterator_implILb1EEE@Base 12.0.3
 _ZN13OnExitManagerD1Ev@Base 12.0.3
 _ZN13OnExitManagerD2Ev@Base 12.0.3
 _ZN13PastIntervals13pg_interval_t23generate_test_instancesERNSt7__cxx114listIPS0_SaIS3_EEE@Base 12.0.3
 _ZN13PastIntervals13pg_interval_t6decodeERN4ceph6buffer7v15_2_04list13iterator_implILb1EEE@Base 12.0.3
 _ZN13PastIntervals13pg_interval_tD1Ev@Base 12.0.3
 _ZN13PastIntervals13pg_interval_tD2Ev@Base 12.0.3
 _ZN13PastIntervals15is_new_intervalEiiRKSt6vectorIiSaIiEES4_iiS4_S4_PK6OSDMapS7_4pg_t@Base 12.0.3
 _ZN13PastIntervals15is_new_intervalEiiRKSt6vectorIiSaIiEES4_iiS4_S4_iiiijjjjbbbb4pg_t@Base 12.0.3
 _ZN13PastIntervals18check_new_intervalEiiRKSt6vectorIiSaIiEES4_iiS4_S4_jjPK6OSDMapS7_4pg_tRK24IsPGRecoverablePredicatePS_PSo@Base 12.0.3
 _ZN13PastIntervals23generate_test_instancesERNSt7__cxx114listIPS_SaIS2_EEE@Base 12.0.3
 _ZN13PastIntervals6decodeERN4ceph6buffer7v15_2_04list13iterator_implILb1EEE@Base 12.0.3
 _ZN13PastIntervalsC1ERKS_@Base 12.0.3
 _ZN13PastIntervalsC1Ev@Base 12.0.3
 _ZN13PastIntervalsC2ERKS_@Base 12.0.3
 _ZN13PastIntervalsC2Ev@Base 12.0.3
 _ZN13PastIntervalsaSERKS_@Base 12.0.3
 _ZN13ProgressEvent6decodeERN4ceph6buffer7v15_2_04list13iterator_implILb1EEE@Base 12.0.3
 _ZN13QueueStrategy11ds_dispatchEP7Message@Base 12.0.3
 _ZN13QueueStrategy4waitEv@Base 12.0.3
 _ZN13QueueStrategy5entryEPNS_8QSThreadE@Base 12.0.3
 _ZN13QueueStrategy5startEv@Base 12.0.3
 _ZN13QueueStrategy8QSThread5entryEv@Base 12.0.3
 _ZN13QueueStrategy8QSThreadD0Ev@Base 12.0.3
 _ZN13QueueStrategy8QSThreadD1Ev@Base 12.0.3
 _ZN13QueueStrategy8QSThreadD2Ev@Base 12.0.3
 _ZN13QueueStrategy8shutdownEv@Base 12.0.3
 _ZN13QueueStrategyC1Ei@Base 12.0.3
 _ZN13QueueStrategyC2Ei@Base 12.0.3
 _ZN13QueueStrategyD0Ev@Base 12.0.3
 _ZN13QueueStrategyD1Ev@Base 12.0.3
 _ZN13QueueStrategyD2Ev@Base 12.0.3
 _ZN13SnapRealmInfo23generate_test_instancesERNSt7__cxx114listIPS_SaIS2_EEE@Base 12.0.3
 _ZN13SnapRealmInfo6decodeERN4ceph6buffer7v15_2_04list13iterator_implILb1EEE@Base 12.0.3
 _ZN13crush_grammar10definitionIN5boost6spirit7scannerIPKcNS2_16scanner_policiesINS2_28skip_parser_iteration_policyINS2_12space_parserENS2_16iteration_policyEEENS2_16ast_match_policyIS5_NS2_21node_val_data_factoryINS2_5nil_tEEESD_EENS2_13action_policyEEEEEEC1ERKS_@Base 12.0.3
 _ZN13crush_grammar10definitionIN5boost6spirit7scannerIPKcNS2_16scanner_policiesINS2_28skip_parser_iteration_policyINS2_12space_parserENS2_16iteration_policyEEENS2_16ast_match_policyIS5_NS2_21node_val_data_factoryINS2_5nil_tEEESD_EENS2_13action_policyEEEEEEC2ERKS_@Base 12.0.3
 _ZN13crush_grammar10definitionIN5boost6spirit7scannerIPKcNS2_16scanner_policiesINS2_28skip_parser_iteration_policyINS2_12space_parserENS2_16iteration_policyEEENS2_16ast_match_policyIS5_NS2_21node_val_data_factoryINS2_5nil_tEEESD_EENS2_13action_policyEEEEEED1Ev@Base 12.0.3
 _ZN13crush_grammar10definitionIN5boost6spirit7scannerIPKcNS2_16scanner_policiesINS2_28skip_parser_iteration_policyINS2_12space_parserENS2_16iteration_policyEEENS2_16ast_match_policyIS5_NS2_21node_val_data_factoryINS2_5nil_tEEESD_EENS2_13action_policyEEEEEED2Ev@Base 12.0.3
 _ZN13entity_addr_t23generate_test_instancesERNSt7__cxx114listIPS_SaIS2_EEE@Base 12.0.3
 _ZN13entity_addr_t5parseEPKcPS1_i@Base 12.0.3
 _ZN13entity_addr_t6decodeERN4ceph6buffer7v15_2_04list13iterator_implILb1EEE@Base 12.0.3
 _ZN13entity_addr_t8set_portEi@Base 12.0.3
 _ZN13entity_inst_t23generate_test_instancesERNSt7__cxx114listIPS_SaIS2_EEE@Base 12.0.3
 _ZN13entity_name_t23generate_test_instancesERNSt7__cxx114listIPS_SaIS2_EEE@Base 12.0.3
 _ZN13file_layout_t11from_legacyERK16ceph_file_layout@Base 12.0.3
 _ZN13file_layout_t23generate_test_instancesERNSt7__cxx114listIPS_SaIS2_EEE@Base 12.0.3
 _ZN13file_layout_t6decodeERN4ceph6buffer7v15_2_04list13iterator_implILb1EEE@Base 12.0.3
 _ZN13hex_formatterD1Ev@Base 12.0.3
 _ZN13hex_formatterD2Ev@Base 12.0.3
 _ZN13inline_data_t6decodeERN4ceph6buffer7v15_2_04list13iterator_implILb1EEE@Base 12.0.3
 _ZN13metric_spec_t6decodeERN4ceph6buffer7v15_2_04list13iterator_implILb1EEE@Base 12.0.3
 _ZN13mon_feature_t6decodeERN4ceph6buffer7v15_2_04list13iterator_implILb1EEE@Base 12.0.3
 _ZN13object_info_t14copy_user_bitsERKS_@Base 12.0.3
 _ZN13object_info_t15get_flag_vectorB5cxx11ENS_6flag_tE@Base 12.0.3
 _ZN13object_info_t23generate_test_instancesERNSt7__cxx114listIPS_SaIS2_EEE@Base 12.0.3
 _ZN13object_info_t6decodeERN4ceph6buffer7v15_2_04list13iterator_implILb1EEE@Base 12.0.3
 _ZN13string_snap_t23generate_test_instancesERNSt7__cxx114listIPS_SaIS2_EEE@Base 12.0.3
 _ZN13string_snap_t6decodeERN4ceph6buffer7v15_2_04list13iterator_implILb1EEE@Base 12.0.3
 _ZN14AsyncMessenger10add_acceptEP6Worker15ConnectedSocketRK13entity_addr_tS5_@Base 12.0.3
 _ZN14AsyncMessenger10connect_toEiRK16entity_addrvec_tbb@Base 12.0.3
 _ZN14AsyncMessenger11accept_connERKN5boost13intrusive_ptrI15AsyncConnectionEE@Base 12.0.3
 _ZN14AsyncMessenger11client_bindERK13entity_addr_t@Base 12.0.3
 _ZN14AsyncMessenger12_finish_bindERK16entity_addrvec_tS2_@Base 12.0.3
 _ZN14AsyncMessenger12client_resetEv@Base 12.0.3
 _ZN14AsyncMessenger12learned_addrERK13entity_addr_t@Base 12.0.3
 _ZN14AsyncMessenger13_filter_addrsERK16entity_addrvec_t@Base 12.0.3
 _ZN14AsyncMessenger13mark_down_allEv@Base 12.0.3
 _ZN14AsyncMessenger14create_connectERK16entity_addrvec_tib@Base 12.0.3
 _ZN14AsyncMessenger15mark_down_addrsERK16entity_addrvec_t@Base 12.0.3
 _ZN14AsyncMessenger16should_use_msgr2Ev@Base 12.0.3
 _ZN14AsyncMessenger17set_addr_unknownsERK16entity_addrvec_t@Base 12.0.3
 _ZN14AsyncMessenger20set_cluster_protocolEi@Base 12.0.3
 _ZN14AsyncMessenger20shutdown_connectionsEb@Base 12.0.3
 _ZN14AsyncMessenger22get_dispatch_queue_lenEv@Base 12.0.3
 _ZN14AsyncMessenger23get_loopback_connectionEv@Base 12.0.3
 _ZN14AsyncMessenger26get_dispatch_queue_max_ageE7utime_t@Base 12.0.3
 _ZN14AsyncMessenger4bindERK13entity_addr_t@Base 12.0.3
 _ZN14AsyncMessenger4waitEv@Base 12.0.3
 _ZN14AsyncMessenger5bindvERK16entity_addrvec_t@Base 12.0.3
 _ZN14AsyncMessenger5readyEv@Base 12.0.3
 _ZN14AsyncMessenger5startEv@Base 12.0.3
 _ZN14AsyncMessenger6rebindERKSt3setIiSt4lessIiESaIiEE@Base 12.0.3
 _ZN14AsyncMessenger7send_toEP7MessageiRK16entity_addrvec_t@Base 12.0.3
 _ZN14AsyncMessenger8shutdownEv@Base 12.0.3
 _ZN14AsyncMessenger9mark_downERK13entity_addr_t@Base 12.0.3
 _ZN14AsyncMessenger9reap_deadEv@Base 12.0.3
 _ZN14AsyncMessenger9set_addrsERK16entity_addrvec_t@Base 12.0.3
 _ZN14AsyncMessengerC1EPN4ceph6common11CephContextE13entity_name_tRKNSt7__cxx1112basic_stringIcSt11char_traitsIcESaIcEEESA_m@Base 12.0.3
 _ZN14AsyncMessengerC2EPN4ceph6common11CephContextE13entity_name_tRKNSt7__cxx1112basic_stringIcSt11char_traitsIcESaIcEEESA_m@Base 12.0.3
 _ZN14AsyncMessengerD0Ev@Base 12.0.3
 _ZN14AsyncMessengerD1Ev@Base 12.0.3
 _ZN14AsyncMessengerD2Ev@Base 12.0.3
 _ZN14AsyncOpTracker12wait_for_opsEP7Context@Base 12.0.3
 _ZN14AsyncOpTracker5emptyEv@Base 12.0.3
 _ZN14AsyncOpTracker8start_opEv@Base 12.0.3
 _ZN14AsyncOpTracker9finish_opEv@Base 12.0.3
 _ZN14AsyncOpTrackerC1Ev@Base 12.0.3
 _ZN14AsyncOpTrackerC2Ev@Base 12.0.3
 _ZN14AsyncOpTrackerD1Ev@Base 12.0.3
 _ZN14AsyncOpTrackerD2Ev@Base 12.0.3
 _ZN14AuthMethodList17is_supported_authEi@Base 12.0.3
 _ZN14AuthMethodList21remove_supported_authEi@Base 12.0.3
 _ZN14AuthMethodList4pickERKSt3setIjSt4lessIjESaIjEE@Base 12.0.3
 _ZN14AuthMethodListC1EPN4ceph6common11CephContextENSt7__cxx1112basic_stringIcSt11char_traitsIcESaIcEEE@Base 12.0.3
 _ZN14AuthMethodListC2EPN4ceph6common11CephContextENSt7__cxx1112basic_stringIcSt11char_traitsIcESaIcEEE@Base 12.0.3
 _ZN14C_DoWatchError6finishEi@Base 12.0.3
 _ZN14C_DoWatchErrorD0Ev@Base 12.0.3
 _ZN14C_DoWatchErrorD1Ev@Base 12.0.3
 _ZN14C_DoWatchErrorD2Ev@Base 12.0.3
 _ZN14C_handle_write10do_requestEm@Base 12.0.3
 _ZN14C_handle_writeD0Ev@Base 12.0.3
 _ZN14C_handle_writeD1Ev@Base 12.0.3
 _ZN14C_handle_writeD2Ev@Base 12.0.3
 _ZN14ECSubReadReply23generate_test_instancesERNSt7__cxx114listIPS_SaIS2_EEE@Base 12.0.3
 _ZN14ECSubReadReply6decodeERN4ceph6buffer7v15_2_04list13iterator_implILb1EEE@Base 12.0.3
 _ZN14MClientReclaim14decode_payloadEv@Base 12.0.3
 _ZN14MClientReclaim14encode_payloadEm@Base 12.0.3
 _ZN14MClientReclaimD0Ev@Base 12.0.3
 _ZN14MClientReclaimD1Ev@Base 12.0.3
 _ZN14MClientReclaimD2Ev@Base 12.0.3
 _ZN14MClientRequest14decode_payloadEv@Base 12.0.3
 _ZN14MClientRequest14encode_payloadEm@Base 12.0.3
 _ZN14MClientRequestD0Ev@Base 12.0.3
 _ZN14MClientRequestD1Ev@Base 12.0.3
 _ZN14MClientRequestD2Ev@Base 12.0.3
 _ZN14MClientSession14decode_payloadEv@Base 12.0.3
 _ZN14MClientSession14encode_payloadEm@Base 12.0.3
 _ZN14MClientSessionD0Ev@Base 12.0.3
 _ZN14MClientSessionD1Ev@Base 12.0.3
 _ZN14MClientSessionD2Ev@Base 12.0.3
 _ZN14MDiscoverReply14decode_payloadEv@Base 12.0.3
 _ZN14MDiscoverReply14encode_payloadEm@Base 12.0.3
 _ZN14MDiscoverReplyD0Ev@Base 12.0.3
 _ZN14MDiscoverReplyD1Ev@Base 12.0.3
 _ZN14MDiscoverReplyD2Ev@Base 12.0.3
 _ZN14MExportCapsAck14decode_payloadEv@Base 12.0.3
 _ZN14MExportCapsAck14encode_payloadEm@Base 12.0.3
 _ZN14MExportCapsAckD0Ev@Base 12.0.3
 _ZN14MExportCapsAckD1Ev@Base 12.0.3
 _ZN14MExportCapsAckD2Ev@Base 12.0.3
 _ZN14MExportDirPrep14decode_payloadEv@Base 12.0.3
 _ZN14MExportDirPrep14encode_payloadEm@Base 12.0.3
 _ZN14MExportDirPrepD0Ev@Base 12.0.3
 _ZN14MExportDirPrepD1Ev@Base 12.0.3
 _ZN14MExportDirPrepD2Ev@Base 12.0.3
 _ZN14MInodeFileCaps14decode_payloadEv@Base 12.0.3
 _ZN14MInodeFileCaps14encode_payloadEm@Base 12.0.3
 _ZN14MInodeFileCapsD0Ev@Base 12.0.3
 _ZN14MInodeFileCapsD1Ev@Base 12.0.3
 _ZN14MInodeFileCapsD2Ev@Base 12.0.3
 _ZN14MMDSResolveAck14decode_payloadEv@Base 12.0.3
 _ZN14MMDSResolveAck14encode_payloadEm@Base 12.0.3
 _ZN14MMDSResolveAckD0Ev@Base 12.0.3
 _ZN14MMDSResolveAckD1Ev@Base 12.0.3
 _ZN14MMDSResolveAckD2Ev@Base 12.0.3
 _ZN14MMDSSnapUpdate14decode_payloadEv@Base 12.0.3
 _ZN14MMDSSnapUpdate14encode_payloadEm@Base 12.0.3
 _ZN14MMDSSnapUpdateD0Ev@Base 12.0.3
 _ZN14MMDSSnapUpdateD1Ev@Base 12.0.3
 _ZN14MMDSSnapUpdateD2Ev@Base 12.0.3
 _ZN14MMonCommandAck14decode_payloadEv@Base 12.0.3
 _ZN14MMonCommandAck14encode_payloadEm@Base 12.0.3
 _ZN14MMonCommandAckD0Ev@Base 12.0.3
 _ZN14MMonCommandAckD1Ev@Base 12.0.3
 _ZN14MMonCommandAckD2Ev@Base 12.0.3
 _ZN14MMonGetVersion14decode_payloadEv@Base 12.0.3
 _ZN14MMonGetVersion14encode_payloadEm@Base 12.0.3
 _ZN14MMonGetVersionD0Ev@Base 12.0.3
 _ZN14MMonGetVersionD1Ev@Base 12.0.3
 _ZN14MMonGetVersionD2Ev@Base 12.0.3
 _ZN14MOSDMarkMeDead14decode_payloadEv@Base 12.0.3
 _ZN14MOSDMarkMeDead14encode_payloadEm@Base 12.0.3
 _ZN14MOSDMarkMeDeadD0Ev@Base 12.0.3
 _ZN14MOSDMarkMeDeadD1Ev@Base 12.0.3
 _ZN14MOSDMarkMeDeadD2Ev@Base 12.0.3
 _ZN14MOSDMarkMeDown14decode_payloadEv@Base 12.0.3
 _ZN14MOSDMarkMeDown14encode_payloadEm@Base 12.0.3
 _ZN14MOSDMarkMeDownD0Ev@Base 12.0.3
 _ZN14MOSDMarkMeDownD1Ev@Base 12.0.3
 _ZN14MOSDMarkMeDownD2Ev@Base 12.0.3
 _ZN14MOSDPGBackfill14decode_payloadEv@Base 12.0.3
 _ZN14MOSDPGBackfill14encode_payloadEm@Base 12.0.3
 _ZN14MOSDPGBackfillD0Ev@Base 12.0.3
 _ZN14MOSDPGBackfillD1Ev@Base 12.0.3
 _ZN14MOSDPGBackfillD2Ev@Base 12.0.3
 _ZN14MOSDPGLeaseAck14decode_payloadEv@Base 12.0.3
 _ZN14MOSDPGLeaseAck14encode_payloadEm@Base 12.0.3
 _ZN14MOSDPGLeaseAck9get_eventEv@Base 12.0.3
 _ZN14MOSDPGLeaseAckD0Ev@Base 12.0.3
 _ZN14MOSDPGLeaseAckD1Ev@Base 12.0.3
 _ZN14MOSDPGLeaseAckD2Ev@Base 12.0.3
 _ZN14MOSDRepOpReply14decode_payloadEv@Base 12.0.3
 _ZN14MOSDRepOpReply14encode_payloadEm@Base 12.0.3
 _ZN14MOSDRepOpReplyD0Ev@Base 12.0.3
 _ZN14MOSDRepOpReplyD1Ev@Base 12.0.3
 _ZN14MOSDRepOpReplyD2Ev@Base 12.0.3
 _ZN14PGPeeringEventC1I9MLeaseAckEEjjRKT_bP12PGCreateInfo@Base 12.0.3
 _ZN14PGPeeringEventC2I9MLeaseAckEEjjRKT_bP12PGCreateInfo@Base 12.0.3
 _ZN14PGPeeringEventdlEPv@Base 12.0.3
 _ZN14PGPeeringEventnwEm@Base 12.0.3
 _ZN14RDMADispatcher11register_qpEPN10Infiniband9QueuePairEP23RDMAConnectedSocketImpl@Base 12.0.3
 _ZN14RDMADispatcher12polling_stopEv@Base 12.0.3
 _ZN14RDMADispatcher13polling_startEv@Base 12.0.3
 _ZN14RDMADispatcher14post_tx_bufferERSt6vectorIPN10Infiniband13MemoryManager5ChunkESaIS4_EE@Base 12.0.3
 _ZN14RDMADispatcher15enqueue_dead_qpEj@Base 12.0.3
 _ZN14RDMADispatcher15get_qp_locklessEj@Base 12.0.3
 _ZN14RDMADispatcher15handle_rx_eventEP6ibv_wci@Base 12.0.3
 _ZN14RDMADispatcher15handle_tx_eventEP6ibv_wci@Base 12.0.3
 _ZN14RDMADispatcher17get_conn_locklessEj@Base 12.0.3
 _ZN14RDMADispatcher17post_chunks_to_rqEiPN10Infiniband9QueuePairE@Base 12.0.3
 _ZN14RDMADispatcher18handle_async_eventEv@Base 12.0.3
 _ZN14RDMADispatcher18post_chunk_to_poolEPN10Infiniband13MemoryManager5ChunkE@Base 12.0.3
 _ZN14RDMADispatcher19schedule_qp_destroyEj@Base 12.0.3
 _ZN14RDMADispatcher22notify_pending_workersEv@Base 12.0.3
 _ZN14RDMADispatcher6get_qpEj@Base 12.0.3
 _ZN14RDMADispatcher7pollingEv@Base 12.0.3
 _ZN14RDMADispatcherC1EPN4ceph6common11CephContextERSt10shared_ptrI10InfinibandE@Base 12.0.3
 _ZN14RDMADispatcherC2EPN4ceph6common11CephContextERSt10shared_ptrI10InfinibandE@Base 12.0.3
 _ZN14RDMADispatcherD0Ev@Base 12.0.3
 _ZN14RDMADispatcherD1Ev@Base 12.0.3
 _ZN14RDMADispatcherD2Ev@Base 12.0.3
 _ZN14SimpleThrottle12wait_for_retEv@Base 12.0.3
 _ZN14SimpleThrottle6end_opEi@Base 12.0.3
 _ZN14SimpleThrottle8start_opEv@Base 12.0.3
 _ZN14SimpleThrottleC1Emb@Base 12.0.3
 _ZN14SimpleThrottleC2Emb@Base 12.0.3
 _ZN14SimpleThrottleD1Ev@Base 12.0.3
 _ZN14SimpleThrottleD2Ev@Base 12.0.3
 _ZN14StackStringBufILm4096EE6xsputnEPKcl@Base 12.0.3
 _ZN14StackStringBufILm4096EE8overflowEi@Base 12.0.3
 _ZN14StackStringBufILm4096EED0Ev@Base 12.0.3
 _ZN14StackStringBufILm4096EED1Ev@Base 12.0.3
 _ZN14StackStringBufILm4096EED2Ev@Base 12.0.3
 _ZN14conf_section_tC1ERKNSt7__cxx1112basic_stringIcSt11char_traitsIcESaIcEEERKSt6vectorI11conf_line_tSaIS9_EE@Base 12.0.3
 _ZN14conf_section_tC2ERKNSt7__cxx1112basic_stringIcSt11char_traitsIcESaIcEEERKSt6vectorI11conf_line_tSaIS9_EE@Base 12.0.3
 _ZN14conf_section_tD1Ev@Base 12.0.3
 _ZN14conf_section_tD2Ev@Base 12.0.3
 _ZN14pg_lease_ack_t23generate_test_instancesERNSt7__cxx114listIPS_SaIS2_EEE@Base 12.0.3
 _ZN14pg_lease_ack_t6decodeERN4ceph6buffer7v15_2_04list13iterator_implILb1EEE@Base 12.0.3
 _ZN14pg_log_entry_t20decode_with_checksumERN4ceph6buffer7v15_2_04list13iterator_implILb1EEE@Base 12.0.3
 _ZN14pg_log_entry_t23generate_test_instancesERNSt7__cxx114listIPS_SaIS2_EEE@Base 12.0.3
 _ZN14pg_log_entry_t6decodeERN4ceph6buffer7v15_2_04list13iterator_implILb1EEE@Base 12.0.3
 _ZN14pg_log_entry_tD1Ev@Base 12.0.3
 _ZN14pg_log_entry_tD2Ev@Base 12.0.3
 _ZN14pg_missing_setILb0EE6decodeERN4ceph6buffer7v15_2_04list13iterator_implILb1EEEl@Base 12.0.3
 _ZN14pg_missing_setILb0EED0Ev@Base 12.0.3
 _ZN14pg_missing_setILb0EED1Ev@Base 12.0.3
 _ZN14pg_missing_setILb0EED2Ev@Base 12.0.3
 _ZN14pi_compact_rep12add_intervalEbRKN13PastIntervals13pg_interval_tE@Base 12.0.3
 _ZN14pi_compact_rep22adjust_start_backwardsEj@Base 12.0.3
 _ZN14pi_compact_rep23generate_test_instancesERNSt7__cxx114listIPS_SaIS2_EEE@Base 12.0.3
 _ZN14pi_compact_rep5clearEv@Base 12.0.3
 _ZN14pi_compact_rep6decodeERN4ceph6buffer7v15_2_04list13iterator_implILb1EEE@Base 12.0.3
 _ZN14pi_compact_repD0Ev@Base 12.0.3
 _ZN14pi_compact_repD1Ev@Base 12.0.3
 _ZN14pi_compact_repD2Ev@Base 12.0.3
 _ZN14scrub_ls_arg_t6decodeERN4ceph6buffer7v15_2_04list13iterator_implILb1EEE@Base 12.0.3
 _ZN14session_info_t23generate_test_instancesERNSt7__cxx114listIPS_SaIS2_EEE@Base 12.0.3
 _ZN14session_info_t6decodeERN4ceph6buffer7v15_2_04list13iterator_implILb1EEE@Base 12.0.3
 _ZN14store_statfs_t23generate_test_instancesERNSt7__cxx114listIPS_SaIS2_EEE@Base 12.0.3
 _ZN15AdminSocketHook10call_asyncESt17basic_string_viewIcSt11char_traitsIcEERKSt3mapINSt7__cxx1112basic_stringIcS2_SaIcEEEN5boost7variantIS8_JbldSt6vectorIS8_SaIS8_EESB_IlSaIlEESB_IdSaIdEEEEESt4lessIvESaISt4pairIKS8_SI_EEEPN4ceph9FormatterERKNSS_6buffer7v15_2_04listESt8functionIFviRSM_RSX_EE@Base 12.0.3
 _ZN15AsyncConnection10read_untilEjPc@Base 12.0.3
 _ZN15AsyncConnection11wakeup_fromEm@Base 12.0.3
 _ZN15AsyncConnection12_conn_prefixEPSo@Base 12.0.3
 _ZN15AsyncConnection12handle_writeEv@Base 12.0.3
 _ZN15AsyncConnection12inject_delayEv@Base 12.0.3
 _ZN15AsyncConnection12is_connectedEv@Base 12.0.3
 _ZN15AsyncConnection12send_messageEP7Message@Base 12.0.3
 _ZN15AsyncConnection14send_keepaliveEv@Base 12.0.3
 _ZN15AsyncConnection15DelayedDelivery10do_requestEm@Base 12.0.3
 _ZN15AsyncConnection15DelayedDelivery5flushEv@Base 12.0.3
 _ZN15AsyncConnection15DelayedDelivery7discardEv@Base 12.0.3
 _ZN15AsyncConnection15DelayedDeliveryD0Ev@Base 12.0.3
 _ZN15AsyncConnection15DelayedDeliveryD1Ev@Base 12.0.3
 _ZN15AsyncConnection15DelayedDeliveryD2Ev@Base 12.0.3
 _ZN15AsyncConnection15mark_disposableEv@Base 12.0.3
 _ZN15AsyncConnection15shutdown_socketEv@Base 12.0.3
 _ZN15AsyncConnection18_infer_target_addrERK16entity_addrvec_t@Base 12.0.3
 _ZN15AsyncConnection21TCP_PREFETCH_MIN_SIZEE@Base 12.0.3
 _ZN15AsyncConnection21handle_write_callbackEv@Base 12.0.3
 _ZN15AsyncConnection24maybe_start_delay_threadEv@Base 12.0.3
 _ZN15AsyncConnection4readEjPcSt8functionIFvS0_lEE@Base 12.0.3
 _ZN15AsyncConnection4stopEb@Base 12.0.3
 _ZN15AsyncConnection4tickEm@Base 12.0.3
 _ZN15AsyncConnection5_stopEv@Base 12.0.3
 _ZN15AsyncConnection5faultEv@Base 12.0.3
 _ZN15AsyncConnection5writeERN4ceph6buffer7v15_2_04listESt8functionIFvlEEb@Base 12.0.3
 _ZN15AsyncConnection6acceptE15ConnectedSocketRK13entity_addr_tS3_@Base 12.0.3
 _ZN15AsyncConnection7cleanupEv@Base 12.0.3
 _ZN15AsyncConnection7connectERK16entity_addrvec_tiR13entity_addr_t@Base 12.0.3
 _ZN15AsyncConnection7processEv@Base 12.0.3
 _ZN15AsyncConnection8_connectEv@Base 12.0.3
 _ZN15AsyncConnection9_try_sendEb@Base 12.0.3
 _ZN15AsyncConnection9mark_downEv@Base 12.0.3
 _ZN15AsyncConnection9read_bulkEPcj@Base 12.0.3
 _ZN15AsyncConnectionC1EPN4ceph6common11CephContextEP14AsyncMessengerP13DispatchQueueP6Workerbb@Base 12.0.3
 _ZN15AsyncConnectionC2EPN4ceph6common11CephContextEP14AsyncMessengerP13DispatchQueueP6Workerbb@Base 12.0.3
 _ZN15AsyncConnectionD0Ev@Base 12.0.3
 _ZN15AsyncConnectionD1Ev@Base 12.0.3
 _ZN15AsyncConnectionD2Ev@Base 12.0.3
 _ZN15BackoffThrottle10set_paramsEdddddmPSo@Base 12.0.3
 _ZN15BackoffThrottle11get_currentEv@Base 12.0.3
 _ZN15BackoffThrottle3getEm@Base 12.0.3
 _ZN15BackoffThrottle3putEm@Base 12.0.3
 _ZN15BackoffThrottle4takeEm@Base 12.0.3
 _ZN15BackoffThrottle7get_maxEv@Base 12.0.3
 _ZN15BackoffThrottleC1EPN4ceph6common11CephContextERKNSt7__cxx1112basic_stringIcSt11char_traitsIcESaIcEEEjb@Base 12.0.3
 _ZN15BackoffThrottleC2EPN4ceph6common11CephContextERKNSt7__cxx1112basic_stringIcSt11char_traitsIcESaIcEEEjb@Base 12.0.3
 _ZN15BackoffThrottleD1Ev@Base 12.0.3
 _ZN15BackoffThrottleD2Ev@Base 12.0.3
 _ZN15C_DoWatchNotify6finishEi@Base 12.0.3
 _ZN15C_DoWatchNotifyD0Ev@Base 12.0.3
 _ZN15C_DoWatchNotifyD1Ev@Base 12.0.3
 _ZN15C_DoWatchNotifyD2Ev@Base 12.0.3
 _ZN15C_clean_handler10do_requestEm@Base 12.0.3
 _ZN15C_clean_handlerD0Ev@Base 12.0.3
 _ZN15C_clean_handlerD1Ev@Base 12.0.3
 _ZN15C_clean_handlerD2Ev@Base 12.0.3
 _ZN15C_handle_notify10do_requestEm@Base 12.0.3
 _ZN15C_handle_notifyD0Ev@Base 12.0.3
 _ZN15C_handle_notifyD1Ev@Base 12.0.3
 _ZN15C_handle_notifyD2Ev@Base 12.0.3
 _ZN15CephXAuthorizer12verify_replyERN4ceph6buffer7v15_2_04list13iterator_implILb1EEEPNSt7__cxx1112basic_stringIcSt11char_traitsIcESaIcEEE@Base 12.0.3
 _ZN15CephXAuthorizer13add_challengeEPN4ceph6common11CephContextERKNS0_6buffer7v15_2_04listE@Base 12.0.3
 _ZN15CephXAuthorizerD0Ev@Base 12.0.3
 _ZN15CephXAuthorizerD1Ev@Base 12.0.3
 _ZN15CephXAuthorizerD2Ev@Base 12.0.3
 _ZN15ConnectedSocketD1Ev@Base 12.0.3
 _ZN15ConnectedSocketD2Ev@Base 12.0.3
 _ZN15CrushTreeDumper16FormattingDumper16dump_item_fieldsERKNS_4ItemEPN4ceph9FormatterE@Base 12.0.3
 _ZN15CrushTreeDumper16FormattingDumper20dump_bucket_childrenERKNS_4ItemEPN4ceph9FormatterE@Base 12.0.3
 _ZN15CrushTreeDumper16FormattingDumper9dump_itemERKNS_4ItemEPN4ceph9FormatterE@Base 12.0.3
 _ZN15CrushTreeDumper16FormattingDumperD0Ev@Base 12.0.3
 _ZN15CrushTreeDumper16FormattingDumperD1Ev@Base 12.0.3
 _ZN15CrushTreeDumper16FormattingDumperD2Ev@Base 12.0.3
 _ZN15CrushTreeDumper16dump_item_fieldsEPK12CrushWrapperRKSt3mapIlNSt7__cxx1112basic_stringIcSt11char_traitsIcESaIcEEESt4lessIlEN7mempool14pool_allocatorILNSC_12pool_index_tE23ESt4pairIKlS9_EEEERKNS_4ItemEPN4ceph9FormatterE@Base 12.0.3
 _ZN15CrushTreeDumper6DumperI9TextTableE4dumpEPS1_@Base 12.0.3
 _ZN15CrushTreeDumper6DumperI9TextTableE4nextERNS_4ItemE@Base 12.0.3
 _ZN15CrushTreeDumper6DumperI9TextTableE5resetEv@Base 12.0.3
 _ZN15CrushTreeDumper6DumperI9TextTableED0Ev@Base 12.0.3
 _ZN15CrushTreeDumper6DumperI9TextTableED1Ev@Base 12.0.3
 _ZN15CrushTreeDumper6DumperI9TextTableED2Ev@Base 12.0.3
 _ZN15CrushTreeDumper6DumperIN4ceph9FormatterEE4dumpEPS2_@Base 12.0.3
 _ZN15CrushTreeDumper6DumperIN4ceph9FormatterEE4nextERNS_4ItemE@Base 12.0.3
 _ZN15CrushTreeDumper6DumperIN4ceph9FormatterEE5resetEv@Base 12.0.3
 _ZN15CrushTreeDumper6DumperIN4ceph9FormatterEED0Ev@Base 12.0.3
 _ZN15CrushTreeDumper6DumperIN4ceph9FormatterEED1Ev@Base 12.0.3
 _ZN15CrushTreeDumper6DumperIN4ceph9FormatterEED2Ev@Base 12.0.3
 _ZN15CrushTreeDumper6DumperIvE5resetEv@Base 12.0.3
 _ZN15ECSubWriteReply23generate_test_instancesERNSt7__cxx114listIPS_SaIS2_EEE@Base 12.0.3
 _ZN15ECSubWriteReply6decodeERN4ceph6buffer7v15_2_04list13iterator_implILb1EEE@Base 12.0.3
 _ZN15JSONFormattable11decode_jsonEP7JSONObj@Base 12.0.3
 _ZN15JSONFormattable11derive_fromERKS_@Base 12.0.3
 _ZN15JSONFormattable12handle_valueESt17basic_string_viewIcSt11char_traitsIcEES3_b@Base 12.0.3
 _ZN15JSONFormattable19handle_open_sectionESt17basic_string_viewIcSt11char_traitsIcEEPKcb@Base 12.0.3
 _ZN15JSONFormattable20handle_close_sectionEv@Base 12.0.3
 _ZN15JSONFormattable3setERKNSt7__cxx1112basic_stringIcSt11char_traitsIcESaIcEEES7_@Base 12.0.3
 _ZN15JSONFormattable5eraseERKNSt7__cxx1112basic_stringIcSt11char_traitsIcESaIcEEE@Base 12.0.3
 _ZN15JSONFormattableC1ERKS_@Base 12.0.3
 _ZN15JSONFormattableC1Eb@Base 12.0.3
 _ZN15JSONFormattableC2ERKS_@Base 12.0.3
 _ZN15JSONFormattableC2Eb@Base 12.0.3
 _ZN15JSONFormattableD0Ev@Base 12.0.3
 _ZN15JSONFormattableD1Ev@Base 12.0.3
 _ZN15JSONFormattableD2Ev@Base 12.0.3
 _ZN15JSONFormattableaSEOS_@Base 12.0.3
 _ZN15JSONFormattableaSERKS_@Base 12.0.3
 _ZN15JSONFormattableixERKNSt7__cxx1112basic_stringIcSt11char_traitsIcESaIcEEE@Base 12.0.3
 _ZN15JSONFormattableixEm@Base 12.0.3
 _ZN15MDSHealthMetric6decodeERN4ceph6buffer7v15_2_04list13iterator_implILb1EEE@Base 12.0.3
 _ZN15MGenericMessage14decode_payloadEv@Base 12.0.3
 _ZN15MGenericMessage14encode_payloadEm@Base 12.0.3
 _ZN15MGenericMessageD0Ev@Base 12.0.3
 _ZN15MGenericMessageD1Ev@Base 12.0.3
 _ZN15MGenericMessageD2Ev@Base 12.0.3
 _ZN15MMDSCacheRejoin14decode_payloadEv@Base 12.0.3
 _ZN15MMDSCacheRejoin14encode_payloadEm@Base 12.0.3
 _ZN15MMDSCacheRejoinD0Ev@Base 12.0.3
 _ZN15MMDSCacheRejoinD1Ev@Base 12.0.3
 _ZN15MMDSCacheRejoinD2Ev@Base 12.0.3
 _ZN15MMDSLoadTargets14decode_payloadEv@Base 12.0.3
 _ZN15MMDSLoadTargets14encode_payloadEm@Base 12.0.3
 _ZN15MMDSLoadTargetsD0Ev@Base 12.0.3
 _ZN15MMDSLoadTargetsD1Ev@Base 12.0.3
 _ZN15MMDSLoadTargetsD2Ev@Base 12.0.3
 _ZN15MOSDECSubOpRead14decode_payloadEv@Base 12.0.3
 _ZN15MOSDECSubOpRead14encode_payloadEm@Base 12.0.3
 _ZN15MOSDECSubOpReadD0Ev@Base 12.0.3
 _ZN15MOSDECSubOpReadD1Ev@Base 12.0.3
 _ZN15MOSDECSubOpReadD2Ev@Base 12.0.3
 _ZN15MOSDPGPushReply14decode_payloadEv@Base 12.0.3
 _ZN15MOSDPGPushReply14encode_payloadEm@Base 12.0.3
 _ZN15MOSDPGPushReplyD0Ev@Base 12.0.3
 _ZN15MOSDPGPushReplyD1Ev@Base 12.0.3
 _ZN15MOSDPGPushReplyD2Ev@Base 12.0.3
 _ZN15MOSDRepScrubMap14decode_payloadEv@Base 12.0.3
 _ZN15MOSDRepScrubMap14encode_payloadEm@Base 12.0.3
 _ZN15MOSDRepScrubMapD0Ev@Base 12.0.3
 _ZN15MOSDRepScrubMapD1Ev@Base 12.0.3
 _ZN15MOSDRepScrubMapD2Ev@Base 12.0.3
 _ZN15MonClientPinger11ms_dispatchEP7Message@Base 12.0.3
 _ZN15MonClientPinger15ms_handle_resetEP10Connection@Base 12.0.3
 _ZN15MonClientPinger16get_auth_requestEP10ConnectionP18AuthConnectionMetaPjPSt6vectorIjSaIjEEPN4ceph6buffer7v15_2_04listE@Base 12.0.3
 _ZN15MonClientPinger16handle_auth_doneEP10ConnectionP18AuthConnectionMetamjRKN4ceph6buffer7v15_2_04listEP9CryptoKeyPNSt7__cxx1112basic_stringIcSt11char_traitsIcESaIcEEE@Base 12.0.3
 _ZN15MonClientPinger17ms_handle_refusedEP10Connection@Base 12.0.3
 _ZN15MonClientPinger22handle_auth_bad_methodEP10ConnectionP18AuthConnectionMetajiRKSt6vectorIjSaIjEES8_@Base 12.0.3
 _ZN15MonClientPinger22handle_auth_reply_moreEP10ConnectionP18AuthConnectionMetaRKN4ceph6buffer7v15_2_04listEPS7_@Base 12.0.3
 _ZN15MonClientPinger22ms_handle_remote_resetEP10Connection@Base 12.0.3
 _ZN15MonClientPingerD0Ev@Base 12.0.3
 _ZN15MonClientPingerD1Ev@Base 12.0.3
 _ZN15MonClientPingerD2Ev@Base 12.0.3
 _ZN15ObjectOperation11add_handlerEP7Context@Base 12.0.3
 _ZN15ObjectOperation13C_TwoContexts6finishEi@Base 12.0.3
 _ZN15ObjectOperation13C_TwoContextsD0Ev@Base 12.0.3
 _ZN15ObjectOperation13C_TwoContextsD1Ev@Base 12.0.3
 _ZN15ObjectOperation13C_TwoContextsD2Ev@Base 12.0.3
 _ZN15ObjectOperation6pg_nlsEmRKN4ceph6buffer7v15_2_04listE9hobject_tj@Base 12.0.3
 _ZN15ObjectOperation8scrub_lsERKN8librados11object_id_tEmPSt6vectorINS0_18inconsistent_obj_tESaIS5_EEPjPi@Base 12.0.3
 _ZN15ObjectOperation8scrub_lsERKN8librados11object_id_tEmPSt6vectorINS0_22inconsistent_snapset_tESaIS5_EEPjPi@Base 12.0.3
 _ZN15ObjectOperationD1Ev@Base 12.0.3
 _ZN15ObjectOperationD2Ev@Base 12.0.3
 _ZN15OrderedThrottle12wait_for_retEv@Base 12.0.3
 _ZN15OrderedThrottle20complete_pending_opsERSt11unique_lockISt5mutexE@Base 12.0.3
 _ZN15OrderedThrottle6end_opEi@Base 12.0.3
 _ZN15OrderedThrottle8start_opEP7Context@Base 12.0.3
 _ZN15OrderedThrottle9finish_opEmi@Base 12.0.3
 _ZN15OrderedThrottleC1Emb@Base 12.0.3
 _ZN15OrderedThrottleC2Emb@Base 12.0.3
 _ZN15OrderedThrottleD1Ev@Base 12.0.3
 _ZN15OrderedThrottleD2Ev@Base 12.0.3
 _ZN15PGLSPlainFilter4initERN4ceph6buffer7v15_2_04list13iterator_implILb1EEE@Base 12.0.3
 _ZN15PGLSPlainFilterD0Ev@Base 12.0.3
 _ZN15PGLSPlainFilterD1Ev@Base 12.0.3
 _ZN15PGLSPlainFilterD2Ev@Base 12.0.3
 _ZN15PerfCounterType6decodeERN4ceph6buffer7v15_2_04list13iterator_implILb1EEE@Base 12.0.3
 _ZN15RotatingKeyRing11get_keyringEv@Base 12.0.3
 _ZN15RotatingKeyRing11set_secretsEO15RotatingSecrets@Base 12.0.3
 _ZN15RotatingKeyRingD0Ev@Base 12.0.3
 _ZN15RotatingKeyRingD1Ev@Base 12.0.3
 _ZN15RotatingKeyRingD2Ev@Base 12.0.3
 _ZN15SafeTimerThread5entryEv@Base 12.0.3
 _ZN15SafeTimerThreadD0Ev@Base 12.0.3
 _ZN15SafeTimerThreadD1Ev@Base 12.0.3
 _ZN15SafeTimerThreadD2Ev@Base 12.0.3
 _ZN15SubProcessTimed4execEv@Base 12.0.3
 _ZN15SubProcessTimedC1EPKcN10SubProcess9std_fd_opES3_S3_ii@Base 12.0.3
 _ZN15SubProcessTimedC2EPKcN10SubProcess9std_fd_opES3_S3_ii@Base 12.0.3
 _ZN15SubProcessTimedD0Ev@Base 12.0.3
 _ZN15SubProcessTimedD1Ev@Base 12.0.3
 _ZN15SubProcessTimedD2Ev@Base 12.0.3
 _ZN15cap_reconnect_t10decode_oldERN4ceph6buffer7v15_2_04list13iterator_implILb1EEE@Base 12.0.3
 _ZN15cap_reconnect_t23generate_test_instancesERNSt7__cxx114listIPS_SaIS2_EEE@Base 12.0.3
 _ZN15cap_reconnect_t6decodeERN4ceph6buffer7v15_2_04list13iterator_implILb1EEE@Base 12.0.3
 _ZN15cap_reconnect_tD1Ev@Base 12.0.3
 _ZN15cap_reconnect_tD2Ev@Base 12.0.3
 _ZN15pg_merge_meta_t6decodeERN4ceph6buffer7v15_2_04list13iterator_implILb1EEE@Base 12.0.3
 _ZN16C_EnumerateReply6finishEi@Base 12.0.3
 _ZN16C_EnumerateReplyD0Ev@Base 12.0.3
 _ZN16C_EnumerateReplyD1Ev@Base 12.0.3
 _ZN16C_EnumerateReplyD2Ev@Base 12.0.3
 _ZN16MBackfillReserve14decode_payloadEv@Base 12.0.3
 _ZN16MBackfillReserve14encode_payloadEm@Base 12.0.3
 _ZN16MBackfillReserve9get_eventEv@Base 12.0.3
 _ZN16MBackfillReserveD0Ev@Base 12.0.3
 _ZN16MBackfillReserveD1Ev@Base 12.0.3
 _ZN16MBackfillReserveD2Ev@Base 12.0.3
 _ZN16MClientReconnect14decode_payloadEv@Base 12.0.3
 _ZN16MClientReconnect14encode_payloadEm@Base 12.0.3
 _ZN16MClientReconnectD0Ev@Base 12.0.3
 _ZN16MClientReconnectD1Ev@Base 12.0.3
 _ZN16MClientReconnectD2Ev@Base 12.0.3
 _ZN16MExportDirCancel14decode_payloadEv@Base 12.0.3
 _ZN16MExportDirCancel14encode_payloadEm@Base 12.0.3
 _ZN16MExportDirCancelD0Ev@Base 12.0.3
 _ZN16MExportDirCancelD1Ev@Base 12.0.3
 _ZN16MExportDirCancelD2Ev@Base 12.0.3
 _ZN16MExportDirFinish14decode_payloadEv@Base 12.0.3
 _ZN16MExportDirFinish14encode_payloadEm@Base 12.0.3
 _ZN16MExportDirFinishD0Ev@Base 12.0.3
 _ZN16MExportDirFinishD1Ev@Base 12.0.3
 _ZN16MExportDirFinishD2Ev@Base 12.0.3
 _ZN16MExportDirNotify14decode_payloadEv@Base 12.0.3
 _ZN16MExportDirNotify14encode_payloadEm@Base 12.0.3
 _ZN16MExportDirNotifyD0Ev@Base 12.0.3
 _ZN16MExportDirNotifyD1Ev@Base 12.0.3
 _ZN16MExportDirNotifyD2Ev@Base 12.0.3
 _ZN16MMDSFindInoReply14decode_payloadEv@Base 12.0.3
 _ZN16MMDSFindInoReply14encode_payloadEm@Base 12.0.3
 _ZN16MMDSFindInoReplyD0Ev@Base 12.0.3
 _ZN16MMDSFindInoReplyD1Ev@Base 12.0.3
 _ZN16MMDSFindInoReplyD2Ev@Base 12.0.3
 _ZN16MMDSOpenInoReply14decode_payloadEv@Base 12.0.3
 _ZN16MMDSOpenInoReply14encode_payloadEm@Base 12.0.3
 _ZN16MMDSOpenInoReplyD0Ev@Base 12.0.3
 _ZN16MMDSOpenInoReplyD1Ev@Base 12.0.3
 _ZN16MMDSOpenInoReplyD2Ev@Base 12.0.3
 _ZN16MMDSSlaveRequest14decode_payloadEv@Base 12.0.3
 _ZN16MMDSSlaveRequest14encode_payloadEm@Base 12.0.3
 _ZN16MMDSSlaveRequestD0Ev@Base 12.0.3
 _ZN16MMDSSlaveRequestD1Ev@Base 12.0.3
 _ZN16MMDSSlaveRequestD2Ev@Base 12.0.3
 _ZN16MMDSTableRequest14decode_payloadEv@Base 12.0.3
 _ZN16MMDSTableRequest14encode_payloadEm@Base 12.0.3
 _ZN16MMDSTableRequestD0Ev@Base 12.0.3
 _ZN16MMDSTableRequestD1Ev@Base 12.0.3
 _ZN16MMDSTableRequestD2Ev@Base 12.0.3
 _ZN16MMgrCommandReply14decode_payloadEv@Base 12.0.3
 _ZN16MMgrCommandReply14encode_payloadEm@Base 12.0.3
 _ZN16MMgrCommandReplyD0Ev@Base 12.0.3
 _ZN16MMgrCommandReplyD1Ev@Base 12.0.3
 _ZN16MMgrCommandReplyD2Ev@Base 12.0.3
 _ZN16MMonHealthChecks14decode_payloadEv@Base 12.0.3
 _ZN16MMonHealthChecks14encode_payloadEm@Base 12.0.3
 _ZN16MMonHealthChecksD0Ev@Base 12.0.3
 _ZN16MMonHealthChecksD1Ev@Base 12.0.3
 _ZN16MMonHealthChecksD2Ev@Base 12.0.3
 _ZN16MMonSubscribeAck14decode_payloadEv@Base 12.0.3
 _ZN16MMonSubscribeAck14encode_payloadEm@Base 12.0.3
 _ZN16MMonSubscribeAckD0Ev@Base 12.0.3
 _ZN16MMonSubscribeAckD1Ev@Base 12.0.3
 _ZN16MMonSubscribeAckD2Ev@Base 12.0.3
 _ZN16MOSDECSubOpWrite13clear_buffersEv@Base 12.0.3
 _ZN16MOSDECSubOpWrite14decode_payloadEv@Base 12.0.3
 _ZN16MOSDECSubOpWrite14encode_payloadEm@Base 12.0.3
 _ZN16MOSDECSubOpWriteD0Ev@Base 12.0.3
 _ZN16MOSDECSubOpWriteD1Ev@Base 12.0.3
 _ZN16MOSDECSubOpWriteD2Ev@Base 12.0.3
 _ZN16MOSDScrubReserve14decode_payloadEv@Base 12.0.3
 _ZN16MOSDScrubReserve14encode_payloadEm@Base 12.0.3
 _ZN16MOSDScrubReserveD0Ev@Base 12.0.3
 _ZN16MOSDScrubReserveD1Ev@Base 12.0.3
 _ZN16MOSDScrubReserveD2Ev@Base 12.0.3
 _ZN16MRecoveryReserve14decode_payloadEv@Base 12.0.3
 _ZN16MRecoveryReserve14encode_payloadEm@Base 12.0.3
 _ZN16MRecoveryReserve9get_eventEv@Base 12.0.3
 _ZN16MRecoveryReserveD0Ev@Base 12.0.3
 _ZN16MRecoveryReserveD1Ev@Base 12.0.3
 _ZN16MRecoveryReserveD2Ev@Base 12.0.3
 _ZN16OutputDataSocket13append_outputERN4ceph6buffer7v15_2_04listE@Base 12.0.3
 _ZN16OutputDataSocket15bind_and_listenERKNSt7__cxx1112basic_stringIcSt11char_traitsIcESaIcEEEPi@Base 12.0.3
 _ZN16OutputDataSocket15init_connectionERN4ceph6buffer7v15_2_04listE@Base 12.0.3
 _ZN16OutputDataSocket16close_connectionEi@Base 12.0.3
 _ZN16OutputDataSocket17handle_connectionEi@Base 12.0.3
 _ZN16OutputDataSocket20create_shutdown_pipeB5cxx11EPiS0_@Base 12.0.3
 _ZN16OutputDataSocket4initERKNSt7__cxx1112basic_stringIcSt11char_traitsIcESaIcEEE@Base 12.0.3
 _ZN16OutputDataSocket5entryEv@Base 12.0.3
 _ZN16OutputDataSocket8shutdownEv@Base 12.0.3
 _ZN16OutputDataSocket9do_acceptEv@Base 12.0.3
 _ZN16OutputDataSocket9dump_dataEi@Base 12.0.3
 _ZN16OutputDataSocketC1EPN4ceph6common11CephContextEm@Base 12.0.3
 _ZN16OutputDataSocketC2EPN4ceph6common11CephContextEm@Base 12.0.3
 _ZN16OutputDataSocketD0Ev@Base 12.0.3
 _ZN16OutputDataSocketD1Ev@Base 12.0.3
 _ZN16OutputDataSocketD2Ev@Base 12.0.3
 _ZN16ParallelPGMapper2WQ6_clearEv@Base 12.0.3
 _ZN16ParallelPGMapper2WQ6_emptyEv@Base 12.0.3
 _ZN16ParallelPGMapper2WQ8_dequeueEPNS_4ItemE@Base 12.0.3
 _ZN16ParallelPGMapper2WQ8_dequeueEv@Base 12.0.3
 _ZN16ParallelPGMapper2WQ8_enqueueEPNS_4ItemE@Base 12.0.3
 _ZN16ParallelPGMapper2WQ8_processEPNS_4ItemERN10ThreadPool8TPHandleE@Base 12.0.3
 _ZN16ParallelPGMapper2WQD0Ev@Base 12.0.3
 _ZN16ParallelPGMapper2WQD1Ev@Base 12.0.3
 _ZN16ParallelPGMapper2WQD2Ev@Base 12.0.3
 _ZN16ParallelPGMapper3Job10finish_oneEv@Base 12.0.3
 _ZN16ParallelPGMapper5queueEPNS_3JobEjRKSt6vectorI4pg_tSaIS3_EE@Base 12.0.3
 _ZN16PrioritizedQueueIN13DispatchQueue9QueueItemEmE13enqueue_frontEmjjOS1_@Base 12.0.3
 _ZN16PrioritizedQueueIN13DispatchQueue9QueueItemEmE14enqueue_strictEmjOS1_@Base 12.0.3
 _ZN16PrioritizedQueueIN13DispatchQueue9QueueItemEmE15remove_by_classEmPNSt7__cxx114listIS1_SaIS1_EEE@Base 12.0.3
 _ZN16PrioritizedQueueIN13DispatchQueue9QueueItemEmE20enqueue_strict_frontEmjOS1_@Base 12.0.3
 _ZN16PrioritizedQueueIN13DispatchQueue9QueueItemEmE7dequeueEv@Base 12.0.3
 _ZN16PrioritizedQueueIN13DispatchQueue9QueueItemEmE7enqueueEmjjOS1_@Base 12.0.3
 _ZN16PrioritizedQueueIN13DispatchQueue9QueueItemEmED0Ev@Base 12.0.3
 _ZN16PrioritizedQueueIN13DispatchQueue9QueueItemEmED1Ev@Base 12.0.3
 _ZN16PrioritizedQueueIN13DispatchQueue9QueueItemEmED2Ev@Base 12.0.3
 _ZN16entity_addrvec_t23generate_test_instancesERNSt7__cxx114listIPS_SaIS2_EEE@Base 12.0.3
 _ZN16entity_addrvec_t5parseEPKcPS1_@Base 12.0.3
 _ZN16entity_addrvec_t6decodeERN4ceph6buffer7v15_2_04list13iterator_implILb1EEE@Base 12.0.3
 _ZN16entity_addrvec_tC1ERK13entity_addr_t@Base 12.0.3
 _ZN16entity_addrvec_tC2ERK13entity_addr_t@Base 12.0.3
 _ZN16feature_bitset_t6decodeERN4ceph6buffer7v15_2_04list13iterator_implILb1EEE@Base 12.0.3
 _ZN16feature_bitset_tC1ERKSt6vectorImSaImEE@Base 12.0.3
 _ZN16feature_bitset_tC1Em@Base 12.0.3
 _ZN16feature_bitset_tC2ERKSt6vectorImSaImEE@Base 12.0.3
 _ZN16feature_bitset_tC2Em@Base 12.0.3
 _ZN16feature_bitset_tmIERKS_@Base 12.0.3
 _ZN16inode_load_vec_t23generate_test_instancesERNSt7__cxx114listIPS_SaIS2_EEE@Base 12.0.3
 _ZN16inode_load_vec_t6decodeERN4ceph6buffer7v15_2_04list13iterator_implILb1EEE@Base 12.0.3
 _ZN16object_locator_t23generate_test_instancesERNSt7__cxx114listIPS_SaIS2_EEE@Base 12.0.3
 _ZN16object_locator_t6decodeERN4ceph6buffer7v15_2_04list13iterator_implILb1EEE@Base 12.0.3
 _ZN16object_locator_tD1Ev@Base 12.0.3
 _ZN16object_locator_tD2Ev@Base 12.0.3
 _ZN16pool_snap_info_t23generate_test_instancesERNSt7__cxx114listIPS_SaIS2_EEE@Base 12.0.3
 _ZN16pool_snap_info_t6decodeERN4ceph6buffer7v15_2_04list13iterator_implILb1EEE@Base 12.0.3
 _ZN17AdminSocketClient10do_requestENSt7__cxx1112basic_stringIcSt11char_traitsIcESaIcEEEPS5_@Base 12.0.3
 _ZN17AdminSocketClient4pingB5cxx11EPb@Base 12.0.3
 _ZN17AdminSocketClientC1ERKNSt7__cxx1112basic_stringIcSt11char_traitsIcESaIcEEE@Base 12.0.3
 _ZN17AdminSocketClientC2ERKNSt7__cxx1112basic_stringIcSt11char_traitsIcESaIcEEE@Base 12.0.3
 _ZN17AuthClientHandler6createEPN4ceph6common11CephContextEiP15RotatingKeyRing@Base 12.0.3
 _ZN17C_OrderedThrottle6finishEi@Base 12.0.3
 _ZN17C_OrderedThrottleD0Ev@Base 12.0.3
 _ZN17C_OrderedThrottleD1Ev@Base 12.0.3
 _ZN17C_OrderedThrottleD2Ev@Base 12.0.3
 _ZN17C_SelfmanagedSnap6finishEi@Base 12.0.3
 _ZN17C_SelfmanagedSnapD0Ev@Base 12.0.3
 _ZN17C_SelfmanagedSnapD1Ev@Base 12.0.3
 _ZN17C_SelfmanagedSnapD2Ev@Base 12.0.3
 _ZN17LevelDBStoreStats6decodeERN4ceph6buffer7v15_2_04list13iterator_implILb1EEE@Base 12.0.3
 _ZN17MClientCapRelease14decode_payloadEv@Base 12.0.3
 _ZN17MClientCapRelease14encode_payloadEm@Base 12.0.3
 _ZN17MClientCapReleaseD0Ev@Base 12.0.3
 _ZN17MClientCapReleaseD1Ev@Base 12.0.3
 _ZN17MClientCapReleaseD2Ev@Base 12.0.3
 _ZN17MExportDirPrepAck14decode_payloadEv@Base 12.0.3
 _ZN17MExportDirPrepAck14encode_payloadEm@Base 12.0.3
 _ZN17MExportDirPrepAckD0Ev@Base 12.0.3
 _ZN17MExportDirPrepAckD1Ev@Base 12.0.3
 _ZN17MExportDirPrepAckD2Ev@Base 12.0.3
 _ZN17MMonQuorumService14decode_payloadEv@Base 12.0.3
 _ZN17MMonQuorumService14encode_payloadEm@Base 12.0.3
 _ZN17MMonQuorumServiceD0Ev@Base 12.0.3
 _ZN17MMonQuorumServiceD1Ev@Base 12.0.3
 _ZN17MMonQuorumServiceD2Ev@Base 12.0.3
 _ZN17MOSDForceRecovery14decode_payloadEv@Base 12.0.3
 _ZN17MOSDForceRecovery14encode_payloadEm@Base 12.0.3
 _ZN17MOSDForceRecoveryD0Ev@Base 12.0.3
 _ZN17MOSDForceRecoveryD1Ev@Base 12.0.3
 _ZN17MOSDForceRecoveryD2Ev@Base 12.0.3
 _ZN17PosixNetworkStack11join_workerEj@Base 12.0.3
 _ZN17PosixNetworkStack12spawn_workerEjOSt8functionIFvvEE@Base 12.0.3
 _ZN17PosixNetworkStackC1EPN4ceph6common11CephContextERKNSt7__cxx1112basic_stringIcSt11char_traitsIcESaIcEEE@Base 12.0.3
 _ZN17PosixNetworkStackC2EPN4ceph6common11CephContextERKNSt7__cxx1112basic_stringIcSt11char_traitsIcESaIcEEE@Base 12.0.3
 _ZN17PosixNetworkStackD0Ev@Base 12.0.3
 _ZN17PosixNetworkStackD1Ev@Base 12.0.3
 _ZN17PosixNetworkStackD2Ev@Base 12.0.3
 _ZN17ShardedThreadPool13start_threadsEv@Base 12.0.3
 _ZN17ShardedThreadPool17WorkThreadSharded5entryEv@Base 12.0.3
 _ZN17ShardedThreadPool17WorkThreadShardedD0Ev@Base 12.0.3
 _ZN17ShardedThreadPool17WorkThreadShardedD1Ev@Base 12.0.3
 _ZN17ShardedThreadPool17WorkThreadShardedD2Ev@Base 12.0.3
 _ZN17ShardedThreadPool24shardedthreadpool_workerEj@Base 12.0.3
 _ZN17ShardedThreadPool4stopEv@Base 12.0.3
 _ZN17ShardedThreadPool5drainEv@Base 12.0.3
 _ZN17ShardedThreadPool5pauseEv@Base 12.0.3
 _ZN17ShardedThreadPool5startEv@Base 12.0.3
 _ZN17ShardedThreadPool7unpauseEv@Base 12.0.3
 _ZN17ShardedThreadPool9pause_newEv@Base 12.0.3
 _ZN17ShardedThreadPoolC1EPN4ceph6common11CephContextENSt7__cxx1112basic_stringIcSt11char_traitsIcESaIcEEES9_j@Base 12.0.3
 _ZN17ShardedThreadPoolC2EPN4ceph6common11CephContextENSt7__cxx1112basic_stringIcSt11char_traitsIcESaIcEEES9_j@Base 12.0.3
 _ZN17StackStringStreamILm4096EED0Ev@Base 12.0.3
 _ZN17StackStringStreamILm4096EED1Ev@Base 12.0.3
 _ZN17ceph_lock_state_t11add_waitingERK13ceph_filelock@Base 12.0.3
 _ZN17ceph_lock_state_t11remove_lockE13ceph_filelockRNSt7__cxx114listIS0_SaIS0_EEE@Base 12.0.3
 _ZN17ceph_lock_state_t11share_spaceERSt17_Rb_tree_iteratorISt4pairIKm13ceph_filelockEEmm@Base 12.0.3
 _ZN17ceph_lock_state_t12adjust_locksENSt7__cxx114listISt17_Rb_tree_iteratorISt4pairIKm13ceph_filelockEESaIS7_EEERS5_S9_@Base 12.0.3
 _ZN17ceph_lock_state_t13look_for_lockER13ceph_filelock@Base 12.0.3
 _ZN17ceph_lock_state_t14remove_waitingERK13ceph_filelock@Base 12.0.3
 _ZN17ceph_lock_state_t14split_by_ownerERK13ceph_filelockRNSt7__cxx114listISt17_Rb_tree_iteratorISt4pairIKmS0_EESaIS9_EEESC_@Base 12.0.3
 _ZN17ceph_lock_state_t15get_last_beforeEmRSt8multimapIm13ceph_filelockSt4lessImESaISt4pairIKmS1_EEE@Base 12.0.3
 _ZN17ceph_lock_state_t15get_lower_boundEmRSt8multimapIm13ceph_filelockSt4lessImESaISt4pairIKmS1_EEE@Base 12.0.3
 _ZN17ceph_lock_state_t15remove_all_fromE8client_t@Base 12.0.3
 _ZN17ceph_lock_state_t20get_waiting_overlapsERK13ceph_filelockRNSt7__cxx114listISt17_Rb_tree_iteratorISt4pairIKmS0_EESaIS9_EEE@Base 12.0.3
 _ZN17ceph_lock_state_t21get_overlapping_locksERK13ceph_filelockRNSt7__cxx114listISt17_Rb_tree_iteratorISt4pairIKmS0_EESaIS9_EEEPSB_@Base 12.0.3
 _ZN17ceph_lock_state_t23contains_exclusive_lockERNSt7__cxx114listISt17_Rb_tree_iteratorISt4pairIKm13ceph_filelockEESaIS7_EEE@Base 12.0.3
 _ZN17ceph_lock_state_t8add_lockER13ceph_filelockbbPb@Base 12.0.3
 _ZN17ceph_lock_state_tD1Ev@Base 12.0.3
 _ZN17ceph_lock_state_tD2Ev@Base 12.0.3
 _ZN17client_metadata_t6decodeERN4ceph6buffer7v15_2_04list13iterator_implILb1EEE@Base 12.0.3
 _ZN17inode_backtrace_t23generate_test_instancesERNSt7__cxx114listIPS_SaIS2_EEE@Base 12.0.3
 _ZN17inode_backtrace_t6decodeERN4ceph6buffer7v15_2_04list13iterator_implILb1EEE@Base 12.0.3
 _ZN17lockdep_stopper_tD1Ev@Base 12.0.3
 _ZN17lockdep_stopper_tD2Ev@Base 12.0.3
 _ZN17object_id_wrapper6decodeERN4ceph6buffer7v15_2_04list13iterator_implILb1EEE@Base 12.0.3
 _ZN17object_manifest_t23generate_test_instancesERNSt7__cxx114listIPS_SaIS2_EEE@Base 12.0.3
 _ZN17object_manifest_t6decodeERN4ceph6buffer7v15_2_04list13iterator_implILb1EEE@Base 12.0.3
 _ZN17object_stat_sum_t23generate_test_instancesERNSt7__cxx114listIPS_SaIS2_EEE@Base 12.0.3
 _ZN17object_stat_sum_t3addERKS_@Base 12.0.3
 _ZN17object_stat_sum_t3subERKS_@Base 12.0.3
 _ZN17object_stat_sum_t6decodeERN4ceph6buffer7v15_2_04list13iterator_implILb1EEE@Base 12.0.3
 _ZN17osd_shard_wrapper6decodeERN4ceph6buffer7v15_2_04list13iterator_implILb1EEE@Base 12.0.3
 _ZN17pg_hit_set_info_t23generate_test_instancesERNSt7__cxx114listIPS_SaIS2_EEE@Base 12.0.3
 _ZN17pg_hit_set_info_t6decodeERN4ceph6buffer7v15_2_04list13iterator_implILb1EEE@Base 12.0.3
 _ZN17pg_nls_response_t6decodeERN4ceph6buffer7v15_2_04list13iterator_implILb1EEE@Base 12.0.3
 _ZN17scrub_ls_result_t6decodeERN4ceph6buffer7v15_2_04list13iterator_implILb1EEE@Base 12.0.3
 _ZN18AuthConnectionMetaD1Ev@Base 12.0.3
 _ZN18AuthConnectionMetaD2Ev@Base 12.0.3
 _ZN18AuthNoneAuthorizer12verify_replyERN4ceph6buffer7v15_2_04list13iterator_implILb1EEEPNSt7__cxx1112basic_stringIcSt11char_traitsIcESaIcEEE@Base 12.0.3
 _ZN18AuthNoneAuthorizer13add_challengeEPN4ceph6common11CephContextERKNS0_6buffer7v15_2_04listE@Base 12.0.3
 _ZN18AuthNoneAuthorizerD0Ev@Base 12.0.3
 _ZN18AuthNoneAuthorizerD1Ev@Base 12.0.3
 _ZN18AuthNoneAuthorizerD2Ev@Base 12.0.3
 _ZN18CephInitParametersC1Ej@Base 12.0.3
 _ZN18CephInitParametersC2Ej@Base 12.0.3
 _ZN18CephXTicketHandler27verify_service_ticket_replyER9CryptoKeyRN4ceph6buffer7v15_2_04list13iterator_implILb1EEE@Base 12.0.3
 _ZN18CephXTicketHandler8have_keyEv@Base 12.0.3
 _ZN18CephXTicketHandlerD1Ev@Base 12.0.3
 _ZN18CephXTicketHandlerD2Ev@Base 12.0.3
 _ZN18CephXTicketManager11get_handlerEj@Base 12.0.3
 _ZN18CephXTicketManager16validate_ticketsEjRjS0_@Base 12.0.3
 _ZN18CephXTicketManager17invalidate_ticketEj@Base 12.0.3
 _ZN18CephXTicketManager17set_have_need_keyEjRjS0_@Base 12.0.3
 _ZN18CephXTicketManager27verify_service_ticket_replyER9CryptoKeyRN4ceph6buffer7v15_2_04list13iterator_implILb1EEE@Base 12.0.3
 _ZN18CephXTicketManager8have_keyEj@Base 12.0.3
 _ZN18CephxClientHandler12need_ticketsEv@Base 12.0.3
 _ZN18CephxClientHandler13set_global_idEm@Base 12.0.3
 _ZN18CephxClientHandler15handle_responseEiRN4ceph6buffer7v15_2_04list13iterator_implILb1EEEP9CryptoKeyPNSt7__cxx1112basic_stringIcSt11char_traitsIcESaIcEEE@Base 12.0.3
 _ZN18CephxClientHandler16validate_ticketsEv@Base 12.0.3
 _ZN18CephxClientHandler21prepare_build_requestEv@Base 12.0.3
 _ZN18CephxClientHandler5resetEv@Base 12.0.3
 _ZN18CephxClientHandlerD0Ev@Base 12.0.3
 _ZN18CephxClientHandlerD1Ev@Base 12.0.3
 _ZN18CephxClientHandlerD2Ev@Base 12.0.3
 _ZN18ExplicitHashHitSet6ParamsD0Ev@Base 12.0.3
 _ZN18ExplicitHashHitSet6ParamsD1Ev@Base 12.0.3
 _ZN18ExplicitHashHitSet6ParamsD2Ev@Base 12.0.3
 _ZN18ExplicitHashHitSet6decodeERN4ceph6buffer7v15_2_04list13iterator_implILb1EEE@Base 12.0.3
 _ZN18ExplicitHashHitSet6insertERK9hobject_t@Base 12.0.3
 _ZN18ExplicitHashHitSetD0Ev@Base 12.0.3
 _ZN18ExplicitHashHitSetD1Ev@Base 12.0.3
 _ZN18ExplicitHashHitSetD2Ev@Base 12.0.3
 _ZN18LoopbackProtocolV1D0Ev@Base 12.0.3
 _ZN18LoopbackProtocolV1D1Ev@Base 12.0.3
 _ZN18LoopbackProtocolV1D2Ev@Base 12.0.3
 _ZN18MDSCacheObjectInfo23generate_test_instancesERNSt7__cxx114listIPS_SaIS2_EEE@Base 12.0.3
 _ZN18MDSCacheObjectInfo6decodeERN4ceph6buffer7v15_2_04list13iterator_implILb1EEE@Base 12.0.3
 _ZN18MExportDirDiscover14decode_payloadEv@Base 12.0.3
 _ZN18MExportDirDiscover14encode_payloadEm@Base 12.0.3
 _ZN18MExportDirDiscoverD0Ev@Base 12.0.3
 _ZN18MExportDirDiscoverD1Ev@Base 12.0.3
 _ZN18MExportDirDiscoverD2Ev@Base 12.0.3
 _ZN18MGetPoolStatsReply14decode_payloadEv@Base 12.0.3
 _ZN18MGetPoolStatsReply14encode_payloadEm@Base 12.0.3
 _ZN18MGetPoolStatsReplyD0Ev@Base 12.0.3
 _ZN18MGetPoolStatsReplyD1Ev@Base 12.0.3
 _ZN18MGetPoolStatsReplyD2Ev@Base 12.0.3
 _ZN18MMDSFragmentNotify14decode_payloadEv@Base 12.0.3
 _ZN18MMDSFragmentNotify14encode_payloadEm@Base 12.0.3
 _ZN18MMDSFragmentNotifyD0Ev@Base 12.0.3
 _ZN18MMDSFragmentNotifyD1Ev@Base 12.0.3
 _ZN18MMDSFragmentNotifyD2Ev@Base 12.0.3
 _ZN18MMonGetPurgedSnaps14decode_payloadEv@Base 12.0.3
 _ZN18MMonGetPurgedSnaps14encode_payloadEm@Base 12.0.3
 _ZN18MMonGetPurgedSnapsD0Ev@Base 12.0.3
 _ZN18MMonGetPurgedSnapsD1Ev@Base 12.0.3
 _ZN18MMonGetPurgedSnapsD2Ev@Base 12.0.3
 _ZN18MOSDPGReadyToMerge14decode_payloadEv@Base 12.0.3
 _ZN18MOSDPGReadyToMerge14encode_payloadEm@Base 12.0.3
 _ZN18MOSDPGReadyToMergeD0Ev@Base 12.0.3
 _ZN18MOSDPGReadyToMergeD1Ev@Base 12.0.3
 _ZN18MOSDPGReadyToMergeD2Ev@Base 12.0.3
 _ZN18OSDPerfMetricQueryD1Ev@Base 12.0.3
 _ZN18OSDPerfMetricQueryD2Ev@Base 12.0.3
 _ZN18OSDTreePlainDumper10init_tableEP9TextTable@Base 12.0.3
 _ZN18OSDTreePlainDumper9dump_itemERKN15CrushTreeDumper4ItemEP9TextTable@Base 12.0.3
 _ZN18OSDTreePlainDumperD0Ev@Base 12.0.3
 _ZN18OSDTreePlainDumperD1Ev@Base 12.0.3
 _ZN18OSDTreePlainDumperD2Ev@Base 12.0.3
 _ZN18ObjectCleanRegions15mark_object_newEv@Base 12.0.3
 _ZN18ObjectCleanRegions15mark_omap_dirtyEv@Base 12.0.3
 _ZN18ObjectCleanRegions16mark_fully_dirtyEv@Base 12.0.3
 _ZN18ObjectCleanRegions17max_num_intervalsE@Base 12.0.3
 _ZN18ObjectCleanRegions21set_max_num_intervalsEj@Base 12.0.3
 _ZN18ObjectCleanRegions22mark_data_region_dirtyEmm@Base 12.0.3
 _ZN18ObjectCleanRegions23generate_test_instancesERNSt7__cxx114listIPS_SaIS2_EEE@Base 12.0.3
 _ZN18ObjectCleanRegions4trimEv@Base 12.0.3
 _ZN18ObjectCleanRegions5mergeERKS_@Base 12.0.3
 _ZN18ObjectCleanRegions6decodeERN4ceph6buffer7v15_2_04list13iterator_implILb1EEE@Base 12.0.3
 _ZN18ObjectRecoveryInfo23generate_test_instancesERNSt7__cxx114listIPS_SaIS2_EEE@Base 12.0.3
 _ZN18ObjectRecoveryInfo6decodeERN4ceph6buffer7v15_2_04list13iterator_implILb1EEEl@Base 12.0.3
 _ZN18TracepointProvider13verify_configERKN4ceph6common11ConfigProxyE@Base 12.0.3
 _ZN18TracepointProvider18handle_conf_changeERKN4ceph6common11ConfigProxyERKSt3setINSt7__cxx1112basic_stringIcSt11char_traitsIcESaIcEEESt4lessISB_ESaISB_EE@Base 12.0.3
 _ZN18TracepointProviderC1EPN4ceph6common11CephContextEPKcS5_@Base 12.0.3
 _ZN18TracepointProviderC2EPN4ceph6common11CephContextEPKcS5_@Base 12.0.3
 _ZN18TracepointProviderD0Ev@Base 12.0.3
 _ZN18TracepointProviderD1Ev@Base 12.0.3
 _ZN18TracepointProviderD2Ev@Base 12.0.3
 _ZN18compact_interval_t6decodeERN4ceph6buffer7v15_2_04list13iterator_implILb1EEE@Base 12.0.3
 _ZN18dirfrag_load_vec_t23generate_test_instancesERNSt7__cxx114listIPS_SaIS2_EEE@Base 12.0.3
 _ZN18dirfrag_load_vec_t6decodeERN4ceph6buffer7v15_2_04list13iterator_implILb1EEE@Base 12.0.3
 _ZN18dirfrag_load_vec_tC1ERK9DecayRate@Base 12.0.3
 _ZN18dirfrag_load_vec_tC2ERK9DecayRate@Base 12.0.3
 _ZN18health_check_map_t3addERKNSt7__cxx1112basic_stringIcSt11char_traitsIcESaIcEEE15health_status_tS7_l@Base 12.0.3
 _ZN18object_copy_data_t23generate_test_instancesERNSt7__cxx114listIPS_SaIS2_EEE@Base 12.0.3
 _ZN18object_copy_data_t6decodeERN4ceph6buffer7v15_2_04list13iterator_implILb1EEE@Base 12.0.3
 _ZN18request_redirect_t23generate_test_instancesERNSt7__cxx114listIPS_SaIS2_EEE@Base 12.0.3
 _ZN18request_redirect_t6decodeERN4ceph6buffer7v15_2_04list13iterator_implILb1EEE@Base 12.0.3
 _ZN18shard_info_wrapper10set_objectERKN8ScrubMap6objectE@Base 12.0.3
 _ZN18shard_info_wrapper6decodeERN4ceph6buffer7v15_2_04list13iterator_implILb1EEE@Base 12.0.3
 _ZN19CephxSessionHandler12sign_messageEP7Message@Base 12.0.3
 _ZN19CephxSessionHandler15_calc_signatureEP7MessagePm@Base 12.0.3
 _ZN19CephxSessionHandler23check_message_signatureEP7Message@Base 12.0.3
 _ZN19CephxSessionHandlerD0Ev@Base 12.0.3
 _ZN19CephxSessionHandlerD1Ev@Base 12.0.3
 _ZN19CephxSessionHandlerD2Ev@Base 12.0.3
 _ZN19CryptoAESKeyHandlerD0Ev@Base 12.0.3
 _ZN19CryptoAESKeyHandlerD1Ev@Base 12.0.3
 _ZN19CryptoAESKeyHandlerD2Ev@Base 12.0.3
 _ZN19MClientReclaimReply14decode_payloadEv@Base 12.0.3
 _ZN19MClientReclaimReply14encode_payloadEm@Base 12.0.3
 _ZN19MClientReclaimReplyD0Ev@Base 12.0.3
 _ZN19MClientReclaimReplyD1Ev@Base 12.0.3
 _ZN19MClientReclaimReplyD2Ev@Base 12.0.3
 _ZN19MExportDirNotifyAck14decode_payloadEv@Base 12.0.3
 _ZN19MExportDirNotifyAck14encode_payloadEm@Base 12.0.3
 _ZN19MExportDirNotifyAckD0Ev@Base 12.0.3
 _ZN19MExportDirNotifyAckD1Ev@Base 12.0.3
 _ZN19MExportDirNotifyAckD2Ev@Base 12.0.3
 _ZN19MMonGetVersionReply14decode_payloadEv@Base 12.0.3
 _ZN19MMonGetVersionReply14encode_payloadEm@Base 12.0.3
 _ZN19MMonGetVersionReplyD0Ev@Base 12.0.3
 _ZN19MMonGetVersionReplyD1Ev@Base 12.0.3
 _ZN19MMonGetVersionReplyD2Ev@Base 12.0.3
 _ZN19OSDPerfMetricReportD1Ev@Base 12.0.3
 _ZN19OSDPerfMetricReportD2Ev@Base 12.0.3
 _ZN19PaxosServiceMessage14decode_payloadEv@Base 12.0.3
 _ZN19PaxosServiceMessage14encode_payloadEm@Base 12.0.3
 _ZN19PaxosServiceMessageD0Ev@Base 12.0.3
 _ZN19PaxosServiceMessageD1Ev@Base 12.0.3
 _ZN19PaxosServiceMessageD2Ev@Base 12.0.3
 _ZN19PerfHistogramCommon19dump_formatted_axisEPN4ceph9FormatterERKNS_13axis_config_dE@Base 12.0.3
 _ZN19PerfHistogramCommon19get_bucket_for_axisElRKNS_13axis_config_dE@Base 12.0.3
 _ZN19PerfHistogramCommon22get_axis_bucket_rangesERKNS_13axis_config_dE@Base 12.0.3
 _ZN19RequestBackfillPrioD0Ev@Base 12.0.3
 _ZN19RequestBackfillPrioD1Ev@Base 12.0.3
 _ZN19RequestBackfillPrioD2Ev@Base 12.0.3
 _ZN19RequestRecoveryPrioD0Ev@Base 12.0.3
 _ZN19RequestRecoveryPrioD1Ev@Base 12.0.3
 _ZN19RequestRecoveryPrioD2Ev@Base 12.0.3
 _ZN19TokenBucketThrottle10add_tokensEv@Base 12.0.3
 _ZN19TokenBucketThrottle12cancel_timerEv@Base 12.0.3
 _ZN19TokenBucketThrottle13tokens_filledEd@Base 12.0.3
 _ZN19TokenBucketThrottle14schedule_timerEv@Base 12.0.3
 _ZN19TokenBucketThrottle16tokens_this_tickEv@Base 12.0.3
 _ZN19TokenBucketThrottle21set_schedule_tick_minEm@Base 12.0.3
 _ZN19TokenBucketThrottle6Bucket3getEm@Base 12.0.3
 _ZN19TokenBucketThrottle6Bucket3putEm@Base 12.0.3
 _ZN19TokenBucketThrottle6Bucket7set_maxEm@Base 12.0.3
 _ZN19TokenBucketThrottle9set_limitEmm@Base 12.0.3
 _ZN19TokenBucketThrottleC1EPN4ceph6common11CephContextERKNSt7__cxx1112basic_stringIcSt11char_traitsIcESaIcEEEmmP9SafeTimerPSt5mutex@Base 12.0.3
 _ZN19TokenBucketThrottleC2EPN4ceph6common11CephContextERKNSt7__cxx1112basic_stringIcSt11char_traitsIcESaIcEEEmmP9SafeTimerPSt5mutex@Base 12.0.3
 _ZN19TokenBucketThrottleD1Ev@Base 12.0.3
 _ZN19TokenBucketThrottleD2Ev@Base 12.0.3
 _ZN19inode_backpointer_t10decode_oldERN4ceph6buffer7v15_2_04list13iterator_implILb1EEE@Base 12.0.3
 _ZN19inode_backpointer_t23generate_test_instancesERNSt7__cxx114listIPS_SaIS2_EEE@Base 12.0.3
 _ZN19inode_backpointer_t6decodeERN4ceph6buffer7v15_2_04list13iterator_implILb1EEE@Base 12.0.3
 _ZN19mds_table_pending_t23generate_test_instancesERNSt7__cxx114listIPS_SaIS2_EEE@Base 12.0.3
 _ZN19mds_table_pending_t6decodeERN4ceph6buffer7v15_2_04list13iterator_implILb1EEE@Base 12.0.3
 _ZN20CrushTreePlainDumper9dump_itemERKN15CrushTreeDumper4ItemEP9TextTable@Base 12.0.3
 _ZN20CrushTreePlainDumperD0Ev@Base 12.0.3
 _ZN20CrushTreePlainDumperD1Ev@Base 12.0.3
 _ZN20CrushTreePlainDumperD2Ev@Base 12.0.3
 _ZN20CryptoNoneKeyHandlerD0Ev@Base 12.0.3
 _ZN20CryptoNoneKeyHandlerD1Ev@Base 12.0.3
 _ZN20CryptoNoneKeyHandlerD2Ev@Base 12.0.3
 _ZN20ExplicitObjectHitSet6ParamsD0Ev@Base 12.0.3
 _ZN20ExplicitObjectHitSet6ParamsD1Ev@Base 12.0.3
 _ZN20ExplicitObjectHitSet6ParamsD2Ev@Base 12.0.3
 _ZN20ExplicitObjectHitSet6decodeERN4ceph6buffer7v15_2_04list13iterator_implILb1EEE@Base 12.0.3
 _ZN20ExplicitObjectHitSet6insertERK9hobject_t@Base 12.0.3
 _ZN20ExplicitObjectHitSetD0Ev@Base 12.0.3
 _ZN20ExplicitObjectHitSetD1Ev@Base 12.0.3
 _ZN20ExplicitObjectHitSetD2Ev@Base 12.0.3
 _ZN20MOSDECSubOpReadReply14decode_payloadEv@Base 12.0.3
 _ZN20MOSDECSubOpReadReply14encode_payloadEm@Base 12.0.3
 _ZN20MOSDECSubOpReadReplyD0Ev@Base 12.0.3
 _ZN20MOSDECSubOpReadReplyD1Ev@Base 12.0.3
 _ZN20MOSDECSubOpReadReplyD2Ev@Base 12.0.3
 _ZN20MOSDPGBackfillRemove14decode_payloadEv@Base 12.0.3
 _ZN20MOSDPGBackfillRemove14encode_payloadEm@Base 12.0.3
 _ZN20MOSDPGBackfillRemoveD0Ev@Base 12.0.3
 _ZN20MOSDPGBackfillRemoveD1Ev@Base 12.0.3
 _ZN20MOSDPGBackfillRemoveD2Ev@Base 12.0.3
 _ZN20MOSDPGRecoveryDelete14decode_payloadEv@Base 12.0.3
 _ZN20MOSDPGRecoveryDelete14encode_payloadEm@Base 12.0.3
 _ZN20MOSDPGRecoveryDeleteD0Ev@Base 12.0.3
 _ZN20MOSDPGRecoveryDeleteD1Ev@Base 12.0.3
 _ZN20MOSDPGRecoveryDeleteD2Ev@Base 12.0.3
 _ZN20OSDUtilizationDumperI9TextTableE9dump_itemERKN15CrushTreeDumper4ItemEPS0_@Base 12.0.3
 _ZN20OSDUtilizationDumperI9TextTableEC1EPK12CrushWrapperPK6OSDMapRK5PGMapbRKNSt7__cxx1112basic_stringIcSt11char_traitsIcESaIcEEE@Base 12.0.3
 _ZN20OSDUtilizationDumperI9TextTableEC2EPK12CrushWrapperPK6OSDMapRK5PGMapbRKNSt7__cxx1112basic_stringIcSt11char_traitsIcESaIcEEE@Base 12.0.3
 _ZN20OSDUtilizationDumperIN4ceph9FormatterEE9dump_itemERKN15CrushTreeDumper4ItemEPS1_@Base 12.0.3
 _ZN20OSDUtilizationDumperIN4ceph9FormatterEEC1EPK12CrushWrapperPK6OSDMapRK5PGMapbRKNSt7__cxx1112basic_stringIcSt11char_traitsIcESaIcEEE@Base 12.0.3
 _ZN20OSDUtilizationDumperIN4ceph9FormatterEEC2EPK12CrushWrapperPK6OSDMapRK5PGMapbRKNSt7__cxx1112basic_stringIcSt11char_traitsIcESaIcEEE@Base 12.0.3
 _ZN20RDMAServerSocketImpl12abort_acceptEv@Base 12.0.3
 _ZN20RDMAServerSocketImpl6acceptEP15ConnectedSocketRK13SocketOptionsP13entity_addr_tP6Worker@Base 12.0.3
 _ZN20RDMAServerSocketImpl6listenER13entity_addr_tRK13SocketOptions@Base 12.0.3
 _ZN20RDMAServerSocketImplC1EPN4ceph6common11CephContextERSt10shared_ptrI10InfinibandERS4_I14RDMADispatcherEP10RDMAWorkerR13entity_addr_tj@Base 12.0.3
 _ZN20RDMAServerSocketImplC2EPN4ceph6common11CephContextERSt10shared_ptrI10InfinibandERS4_I14RDMADispatcherEP10RDMAWorkerR13entity_addr_tj@Base 12.0.3
 _ZN20RDMAServerSocketImplD0Ev@Base 12.0.3
 _ZN20RDMAServerSocketImplD1Ev@Base 12.0.3
 _ZN20RDMAServerSocketImplD2Ev@Base 12.0.3
 _ZN20object_copy_cursor_t23generate_test_instancesERNSt7__cxx114listIPS_SaIS2_EEE@Base 12.0.3
 _ZN20object_copy_cursor_t6decodeERN4ceph6buffer7v15_2_04list13iterator_implILb1EEE@Base 12.0.3
 _ZN20pg_hit_set_history_t23generate_test_instancesERNSt7__cxx114listIPS_SaIS2_EEE@Base 12.0.3
 _ZN20pg_hit_set_history_t6decodeERN4ceph6buffer7v15_2_04list13iterator_implILb1EEE@Base 12.0.3
 _ZN21AuthNoneClientHandler12need_ticketsEv@Base 12.0.3
 _ZN21AuthNoneClientHandler13set_global_idEm@Base 12.0.3
 _ZN21AuthNoneClientHandler15handle_responseEiRN4ceph6buffer7v15_2_04list13iterator_implILb1EEEP9CryptoKeyPNSt7__cxx1112basic_stringIcSt11char_traitsIcESaIcEEE@Base 12.0.3
 _ZN21AuthNoneClientHandler16validate_ticketsEv@Base 12.0.3
 _ZN21AuthNoneClientHandler21prepare_build_requestEv@Base 12.0.3
 _ZN21AuthNoneClientHandler5resetEv@Base 12.0.3
 _ZN21AuthNoneClientHandlerD0Ev@Base 12.0.3
 _ZN21AuthNoneClientHandlerD1Ev@Base 12.0.3
 _ZN21AuthNoneClientHandlerD2Ev@Base 12.0.3
 _ZN21C_Objecter_GetVersion6finishEi@Base 12.0.3
 _ZN21C_Objecter_GetVersionD0Ev@Base 12.0.3
 _ZN21C_Objecter_GetVersionD1Ev@Base 12.0.3
 _ZN21C_Objecter_GetVersionD2Ev@Base 12.0.3
 _ZN21CephxAuthorizeHandler17verify_authorizerEPN4ceph6common11CephContextERK8KeyStoreRKNS0_6buffer7v15_2_04listEmPS9_P10EntityNamePmP12AuthCapsInfoP9CryptoKeyPNSt7__cxx1112basic_stringIcSt11char_traitsIcESaIcEEEPSt10unique_ptrI23AuthAuthorizerChallengeSt14default_deleteISS_EE@Base 12.0.3
 _ZN21CephxAuthorizeHandler25authorizer_session_cryptoEv@Base 12.0.3
 _ZN21CephxAuthorizeHandlerD0Ev@Base 12.0.3
 _ZN21CephxAuthorizeHandlerD1Ev@Base 12.0.3
 _ZN21CephxAuthorizeHandlerD2Ev@Base 12.0.3
 _ZN21MClientRequestForward14decode_payloadEv@Base 12.0.3
 _ZN21MClientRequestForward14encode_payloadEm@Base 12.0.3
 _ZN21MClientRequestForwardD0Ev@Base 12.0.3
 _ZN21MClientRequestForwardD1Ev@Base 12.0.3
 _ZN21MClientRequestForwardD2Ev@Base 12.0.3
 _ZN21MExportDirDiscoverAck14decode_payloadEv@Base 12.0.3
 _ZN21MExportDirDiscoverAck14encode_payloadEm@Base 12.0.3
 _ZN21MExportDirDiscoverAckD0Ev@Base 12.0.3
 _ZN21MExportDirDiscoverAckD1Ev@Base 12.0.3
 _ZN21MExportDirDiscoverAckD2Ev@Base 12.0.3
 _ZN21MMDSFragmentNotifyAck14decode_payloadEv@Base 12.0.3
 _ZN21MMDSFragmentNotifyAck14encode_payloadEm@Base 12.0.3
 _ZN21MMDSFragmentNotifyAckD0Ev@Base 12.0.3
 _ZN21MMDSFragmentNotifyAckD1Ev@Base 12.0.3
 _ZN21MMDSFragmentNotifyAckD2Ev@Base 12.0.3
 _ZN21MOSDECSubOpWriteReply14decode_payloadEv@Base 12.0.3
 _ZN21MOSDECSubOpWriteReply14encode_payloadEm@Base 12.0.3
 _ZN21MOSDECSubOpWriteReplyD0Ev@Base 12.0.3
 _ZN21MOSDECSubOpWriteReplyD1Ev@Base 12.0.3
 _ZN21MOSDECSubOpWriteReplyD2Ev@Base 12.0.3
 _ZN21PosixServerSocketImpl12abort_acceptEv@Base 12.0.3
 _ZN21PosixServerSocketImpl6acceptEP15ConnectedSocketRK13SocketOptionsP13entity_addr_tP6Worker@Base 12.0.3
 _ZN21PosixServerSocketImplD0Ev@Base 12.0.3
 _ZN21PosixServerSocketImplD1Ev@Base 12.0.3
 _ZN21PosixServerSocketImplD2Ev@Base 12.0.3
 _ZN21SimplePolicyMessenger10get_policyEi@Base 12.0.3
 _ZN21SimplePolicyMessenger10set_policyEiN4ceph3net6PolicyI8ThrottleEE@Base 12.0.3
 _ZN21SimplePolicyMessenger18get_default_policyEv@Base 12.0.3
 _ZN21SimplePolicyMessenger18set_default_policyEN4ceph3net6PolicyI8ThrottleEE@Base 12.0.3
 _ZN21SimplePolicyMessenger21set_policy_throttlersEiP8ThrottleS1_@Base 12.0.3
 _ZN21snaprealm_reconnect_t10decode_oldERN4ceph6buffer7v15_2_04list13iterator_implILb1EEE@Base 12.0.3
 _ZN21snaprealm_reconnect_t23generate_test_instancesERNSt7__cxx114listIPS_SaIS2_EEE@Base 12.0.3
 _ZN21snaprealm_reconnect_t6decodeERN4ceph6buffer7v15_2_04list13iterator_implILb1EEE@Base 12.0.3
 _ZN22AuthNoneSessionHandlerD0Ev@Base 12.0.3
 _ZN22AuthNoneSessionHandlerD1Ev@Base 12.0.3
 _ZN22AuthNoneSessionHandlerD2Ev@Base 12.0.3
 _ZN22MOSDPGUpdateLogMissing14decode_payloadEv@Base 12.0.3
 _ZN22MOSDPGUpdateLogMissing14encode_payloadEm@Base 12.0.3
 _ZN22MOSDPGUpdateLogMissingD0Ev@Base 12.0.3
 _ZN22MOSDPGUpdateLogMissingD1Ev@Base 12.0.3
 _ZN22MOSDPGUpdateLogMissingD2Ev@Base 12.0.3
 _ZN22ObjectRecoveryProgress23generate_test_instancesERNSt7__cxx114listIPS_SaIS2_EEE@Base 12.0.3
 _ZN22ObjectRecoveryProgress6decodeERN4ceph6buffer7v15_2_04list13iterator_implILb1EEE@Base 12.0.3
 _ZN22OpHistoryServiceThread12break_threadEv@Base 12.0.3
 _ZN22OpHistoryServiceThread5entryEv@Base 12.0.3
 _ZN22OpHistoryServiceThreadD0Ev@Base 12.0.3
 _ZN22OpHistoryServiceThreadD1Ev@Base 12.0.3
 _ZN22OpHistoryServiceThreadD2Ev@Base 12.0.3
 _ZN22RemoteBackfillReservedD0Ev@Base 12.0.3
 _ZN22RemoteBackfillReservedD1Ev@Base 12.0.3
 _ZN22RemoteBackfillReservedD2Ev@Base 12.0.3
 _ZN22RemoteRecoveryReservedD0Ev@Base 12.0.3
 _ZN22RemoteRecoveryReservedD1Ev@Base 12.0.3
 _ZN22RemoteRecoveryReservedD2Ev@Base 12.0.3
 _ZN23AuthAuthorizerChallengeD0Ev@Base 12.0.3
 _ZN23AuthAuthorizerChallengeD1Ev@Base 12.0.3
 _ZN23AuthAuthorizerChallengeD2Ev@Base 12.0.3
 _ZN23C_handle_write_callback10do_requestEm@Base 12.0.3
 _ZN23C_handle_write_callbackD0Ev@Base 12.0.3
 _ZN23C_handle_write_callbackD1Ev@Base 12.0.3
 _ZN23C_handle_write_callbackD2Ev@Base 12.0.3
 _ZN23CachedStackStringStream5CacheD1Ev@Base 12.0.3
 _ZN23CachedStackStringStream5CacheD2Ev@Base 12.0.3
 _ZN23CachedStackStringStream5cacheE@Base 12.0.3
 _ZN23CachedStackStringStreamC1Ev@Base 12.0.3
 _ZN23CachedStackStringStreamC2Ev@Base 12.0.3
 _ZN23CachedStackStringStreamD1Ev@Base 12.0.3
 _ZN23CachedStackStringStreamD2Ev@Base 12.0.3
 _ZN23CephXAuthorizeChallengeD0Ev@Base 12.0.3
 _ZN23CephXAuthorizeChallengeD1Ev@Base 12.0.3
 _ZN23CephXAuthorizeChallengeD2Ev@Base 12.0.3
 _ZN23DummyAuthSessionHandler12sign_messageEP7Message@Base 12.0.3
 _ZN23DummyAuthSessionHandler23check_message_signatureEP7Message@Base 12.0.3
 _ZN23MMonGetPurgedSnapsReply14decode_payloadEv@Base 12.0.3
 _ZN23MMonGetPurgedSnapsReply14encode_payloadEm@Base 12.0.3
 _ZN23MMonGetPurgedSnapsReplyD0Ev@Base 12.0.3
 _ZN23MMonGetPurgedSnapsReplyD1Ev@Base 12.0.3
 _ZN23MMonGetPurgedSnapsReplyD2Ev@Base 12.0.3
 _ZN23OSDTreeFormattingDumper16dump_item_fieldsERKN15CrushTreeDumper4ItemEPN4ceph9FormatterE@Base 12.0.3
 _ZN23OSDTreeFormattingDumperD0Ev@Base 12.0.3
 _ZN23OSDTreeFormattingDumperD1Ev@Base 12.0.3
 _ZN23OSDTreeFormattingDumperD2Ev@Base 12.0.3
 _ZN23RDMAConnectedSocketImpl11try_connectERK13entity_addr_tRK13SocketOptions@Base 12.0.3
 _ZN23RDMAConnectedSocketImpl12is_connectedEv@Base 12.0.3
 _ZN23RDMAConnectedSocketImpl12read_buffersEPcm@Base 12.0.3
 _ZN23RDMAConnectedSocketImpl13set_accept_fdEi@Base 12.0.3
 _ZN23RDMAConnectedSocketImpl13tx_copy_chunkERSt6vectorIPN10Infiniband13MemoryManager5ChunkESaIS4_EEmRN4ceph6buffer7v15_2_04list9buffers_t16buffers_iteratorIKNSA_8ptr_nodeEEERKSG_@Base 12.0.3
 _ZN23RDMAConnectedSocketImpl15buffer_prefetchEv@Base 12.0.3
 _ZN23RDMAConnectedSocketImpl17handle_connectionEv@Base 12.0.3
 _ZN23RDMAConnectedSocketImpl17post_chunks_to_rqEi@Base 12.0.3
 _ZN23RDMAConnectedSocketImpl17post_work_requestERSt6vectorIPN10Infiniband13MemoryManager5ChunkESaIS4_EE@Base 12.0.3
 _ZN23RDMAConnectedSocketImpl19update_post_backlogEv@Base 12.0.3
 _ZN23RDMAConnectedSocketImpl29handle_connection_establishedEb@Base 12.0.3
 _ZN23RDMAConnectedSocketImpl3finEv@Base 12.0.3
 _ZN23RDMAConnectedSocketImpl4readEPcm@Base 12.0.3
 _ZN23RDMAConnectedSocketImpl4sendERN4ceph6buffer7v15_2_04listEb@Base 12.0.3
 _ZN23RDMAConnectedSocketImpl5closeEv@Base 12.0.3
 _ZN23RDMAConnectedSocketImpl5faultEv@Base 12.0.3
 _ZN23RDMAConnectedSocketImpl6get_wcERSt6vectorI6ibv_wcSaIS1_EE@Base 12.0.3
 _ZN23RDMAConnectedSocketImpl6notifyEv@Base 12.0.3
 _ZN23RDMAConnectedSocketImpl6submitEb@Base 12.0.3
 _ZN23RDMAConnectedSocketImpl7cleanupEv@Base 12.0.3
 _ZN23RDMAConnectedSocketImpl7pass_wcEOSt6vectorI6ibv_wcSaIS1_EE@Base 12.0.3
 _ZN23RDMAConnectedSocketImpl8activateEv@Base 12.0.3
 _ZN23RDMAConnectedSocketImpl8shutdownEv@Base 12.0.3
 _ZN23RDMAConnectedSocketImplC1EPN4ceph6common11CephContextERSt10shared_ptrI10InfinibandERS4_I14RDMADispatcherEP10RDMAWorker@Base 12.0.3
 _ZN23RDMAConnectedSocketImplC2EPN4ceph6common11CephContextERSt10shared_ptrI10InfinibandERS4_I14RDMADispatcherEP10RDMAWorker@Base 12.0.3
 _ZN23RDMAConnectedSocketImplD0Ev@Base 12.0.3
 _ZN23RDMAConnectedSocketImplD1Ev@Base 12.0.3
 _ZN23RDMAConnectedSocketImplD2Ev@Base 12.0.3
 _ZN23objectstore_perf_stat_t23generate_test_instancesERNSt7__cxx114listIPS_SaIS2_EEE@Base 12.0.3
 _ZN23objectstore_perf_stat_t6decodeERN4ceph6buffer7v15_2_04list13iterator_implILb1EEE@Base 12.0.3
 _ZN24AuthNoneAuthorizeHandler17verify_authorizerEPN4ceph6common11CephContextERK8KeyStoreRKNS0_6buffer7v15_2_04listEmPS9_P10EntityNamePmP12AuthCapsInfoP9CryptoKeyPNSt7__cxx1112basic_stringIcSt11char_traitsIcESaIcEEEPSt10unique_ptrI23AuthAuthorizerChallengeSt14default_deleteISS_EE@Base 12.0.3
 _ZN24AuthNoneAuthorizeHandler25authorizer_session_cryptoEv@Base 12.0.3
 _ZN24AuthNoneAuthorizeHandlerD0Ev@Base 12.0.3
 _ZN24AuthNoneAuthorizeHandlerD1Ev@Base 12.0.3
 _ZN24AuthNoneAuthorizeHandlerD2Ev@Base 12.0.3
 _ZN24C_handle_connection_read10do_requestEm@Base 12.0.3
 _ZN24C_handle_connection_readD0Ev@Base 12.0.3
 _ZN24C_handle_connection_readD1Ev@Base 12.0.3
 _ZN24C_handle_connection_readD2Ev@Base 12.0.3
 _ZN24PosixConnectedSocketImpl12is_connectedEv@Base 12.0.3
 _ZN24PosixConnectedSocketImpl4readEPcm@Base 12.0.3
 _ZN24PosixConnectedSocketImpl4sendERN4ceph6buffer7v15_2_04listEb@Base 12.0.3
 _ZN24PosixConnectedSocketImpl5closeEv@Base 12.0.3
 _ZN24PosixConnectedSocketImpl8shutdownEv@Base 12.0.3
 _ZN24PosixConnectedSocketImplD0Ev@Base 12.0.3
 _ZN24PosixConnectedSocketImplD1Ev@Base 12.0.3
 _ZN24PosixConnectedSocketImplD2Ev@Base 12.0.3
 _ZN24RemoteReservationRevokedD0Ev@Base 12.0.3
 _ZN24RemoteReservationRevokedD1Ev@Base 12.0.3
 _ZN24RemoteReservationRevokedD2Ev@Base 12.0.3
 _ZN24client_writeable_range_t23generate_test_instancesERNSt7__cxx114listIPS_SaIS2_EEE@Base 12.0.3
 _ZN24client_writeable_range_t6decodeERN4ceph6buffer7v15_2_04list13iterator_implILb1EEE@Base 12.0.3
 _ZN24inconsistent_obj_wrapper16set_auth_missingERK9hobject_tRKSt3mapI10pg_shard_tP8ScrubMapSt4lessIS4_ESaISt4pairIKS4_S6_EEERS3_IS4_18shard_info_wrapperS8_SaIS9_ISA_SG_EEERiSL_RSA_@Base 12.0.3
 _ZN24inconsistent_obj_wrapper6decodeERN4ceph6buffer7v15_2_04list13iterator_implILb1EEE@Base 12.0.3
 _ZN24inconsistent_obj_wrapper9add_shardERK10pg_shard_tRK18shard_info_wrapper@Base 12.0.3
 _ZN24inconsistent_obj_wrapperC1ERK9hobject_t@Base 12.0.3
 _ZN24inconsistent_obj_wrapperC2ERK9hobject_t@Base 12.0.3
 _ZN24object_stat_collection_t23generate_test_instancesERNSt7__cxx114listIPS_SaIS2_EEE@Base 12.0.3
 _ZN24object_stat_collection_t6decodeERN4ceph6buffer7v15_2_04list13iterator_implILb1EEE@Base 12.0.3
 _ZN25CrushTreeFormattingDumperD0Ev@Base 12.0.3
 _ZN25CrushTreeFormattingDumperD1Ev@Base 12.0.3
 _ZN25CrushTreeFormattingDumperD2Ev@Base 12.0.3
 _ZN25MOSDPGRecoveryDeleteReply14decode_payloadEv@Base 12.0.3
 _ZN25MOSDPGRecoveryDeleteReply14encode_payloadEm@Base 12.0.3
 _ZN25MOSDPGRecoveryDeleteReplyD0Ev@Base 12.0.3
 _ZN25MOSDPGRecoveryDeleteReplyD1Ev@Base 12.0.3
 _ZN25MOSDPGRecoveryDeleteReplyD2Ev@Base 12.0.3
 _ZN25OSDUtilizationPlainDumper4dumpEP9TextTable@Base 12.0.3
 _ZN25OSDUtilizationPlainDumper9dump_itemERKN15CrushTreeDumper4ItemERfllllllRdS5_mP9TextTable@Base 12.0.3
 _ZN25OSDUtilizationPlainDumperD0Ev@Base 12.0.3
 _ZN25OSDUtilizationPlainDumperD1Ev@Base 12.0.3
 _ZN25OSDUtilizationPlainDumperD2Ev@Base 12.0.3
 _ZN25RDMAIWARPServerSocketImpl12abort_acceptEv@Base 12.0.3
 _ZN25RDMAIWARPServerSocketImpl6acceptEP15ConnectedSocketRK13SocketOptionsP13entity_addr_tP6Worker@Base 12.0.3
 _ZN25RDMAIWARPServerSocketImpl6listenER13entity_addr_tRK13SocketOptions@Base 12.0.3
 _ZN25RDMAIWARPServerSocketImplC1EPN4ceph6common11CephContextERSt10shared_ptrI10InfinibandERS4_I14RDMADispatcherEP10RDMAWorkerR13entity_addr_tj@Base 12.0.3
 _ZN25RDMAIWARPServerSocketImplC2EPN4ceph6common11CephContextERSt10shared_ptrI10InfinibandERS4_I14RDMADispatcherEP10RDMAWorkerR13entity_addr_tj@Base 12.0.3
 _ZN25RDMAIWARPServerSocketImplD0Ev@Base 12.0.3
 _ZN25RDMAIWARPServerSocketImplD1Ev@Base 12.0.3
 _ZN25RDMAIWARPServerSocketImplD2Ev@Base 12.0.3
 _ZN25RemoteReservationCanceledD0Ev@Base 12.0.3
 _ZN25RemoteReservationCanceledD1Ev@Base 12.0.3
 _ZN25RemoteReservationCanceledD2Ev@Base 12.0.3
 _ZN25compressible_bloom_filter23generate_test_instancesERNSt7__cxx114listIPS_SaIS2_EEE@Base 12.0.3
 _ZN25compressible_bloom_filter6decodeERN4ceph6buffer7v15_2_04list13iterator_implILb1EEE@Base 12.0.3
 _ZN25compressible_bloom_filterC1ERKmRKdS1_@Base 12.0.3
 _ZN25compressible_bloom_filterC2ERKmRKdS1_@Base 12.0.3
 _ZN25compressible_bloom_filterD0Ev@Base 12.0.3
 _ZN25compressible_bloom_filterD1Ev@Base 12.0.3
 _ZN25compressible_bloom_filterD2Ev@Base 12.0.3
 _ZN26OSDUtilizationFormatDumper9dump_itemERKN15CrushTreeDumper4ItemERfllllllRdS5_mPN4ceph9FormatterE@Base 12.0.3
 _ZN26OSDUtilizationFormatDumperD0Ev@Base 12.0.3
 _ZN26OSDUtilizationFormatDumperD1Ev@Base 12.0.3
 _ZN26OSDUtilizationFormatDumperD2Ev@Base 12.0.3
 _ZN27MOSDPGUpdateLogMissingReply14decode_payloadEv@Base 12.0.3
 _ZN27MOSDPGUpdateLogMissingReply14encode_payloadEm@Base 12.0.3
 _ZN27MOSDPGUpdateLogMissingReplyD0Ev@Base 12.0.3
 _ZN27MOSDPGUpdateLogMissingReplyD1Ev@Base 12.0.3
 _ZN27MOSDPGUpdateLogMissingReplyD2Ev@Base 12.0.3
 _ZN28RDMAIWARPConnectedSocketImpl11try_connectERK13entity_addr_tRK13SocketOptions@Base 12.0.3
 _ZN28RDMAIWARPConnectedSocketImpl12close_notifyEv@Base 12.0.3
 _ZN28RDMAIWARPConnectedSocketImpl14alloc_resourceEv@Base 12.0.3
 _ZN28RDMAIWARPConnectedSocketImpl20handle_cm_connectionEv@Base 12.0.3
 _ZN28RDMAIWARPConnectedSocketImpl22C_handle_cm_connection10do_requestEm@Base 12.0.3
 _ZN28RDMAIWARPConnectedSocketImpl22C_handle_cm_connectionD0Ev@Base 12.0.3
 _ZN28RDMAIWARPConnectedSocketImpl22C_handle_cm_connectionD1Ev@Base 12.0.3
 _ZN28RDMAIWARPConnectedSocketImpl22C_handle_cm_connectionD2Ev@Base 12.0.3
 _ZN28RDMAIWARPConnectedSocketImpl5closeEv@Base 12.0.3
 _ZN28RDMAIWARPConnectedSocketImpl8activateEv@Base 12.0.3
 _ZN28RDMAIWARPConnectedSocketImpl8shutdownEv@Base 12.0.3
 _ZN28RDMAIWARPConnectedSocketImplC1EPN4ceph6common11CephContextERSt10shared_ptrI10InfinibandERS4_I14RDMADispatcherEP10RDMAWorkerP10RDMACMInfo@Base 12.0.3
 _ZN28RDMAIWARPConnectedSocketImplC2EPN4ceph6common11CephContextERSt10shared_ptrI10InfinibandERS4_I14RDMADispatcherEP10RDMAWorkerP10RDMACMInfo@Base 12.0.3
 _ZN28RDMAIWARPConnectedSocketImplD0Ev@Base 12.0.3
 _ZN28RDMAIWARPConnectedSocketImplD1Ev@Base 12.0.3
 _ZN28RDMAIWARPConnectedSocketImplD2Ev@Base 12.0.3
 _ZN28inconsistent_snapset_wrapper12set_headlessEv@Base 12.0.3
 _ZN28inconsistent_snapset_wrapper16set_info_missingEv@Base 12.0.3
 _ZN28inconsistent_snapset_wrapper17set_clone_missingE8snapid_t@Base 12.0.3
 _ZN28inconsistent_snapset_wrapper17set_size_mismatchEv@Base 12.0.3
 _ZN28inconsistent_snapset_wrapper17set_snapset_errorEv@Base 12.0.3
 _ZN28inconsistent_snapset_wrapper18set_info_corruptedEv@Base 12.0.3
 _ZN28inconsistent_snapset_wrapper19set_snapset_missingEv@Base 12.0.3
 _ZN28inconsistent_snapset_wrapper21set_snapset_corruptedEv@Base 12.0.3
 _ZN28inconsistent_snapset_wrapper6decodeERN4ceph6buffer7v15_2_04list13iterator_implILb1EEE@Base 12.0.3
 _ZN28inconsistent_snapset_wrapper9set_cloneE8snapid_t@Base 12.0.3
 _ZN28inconsistent_snapset_wrapperC1ERK9hobject_t@Base 12.0.3
 _ZN28inconsistent_snapset_wrapperC2ERK9hobject_t@Base 12.0.3
 _ZN29OSDPerfMetricSubKeyDescriptorD1Ev@Base 12.0.3
 _ZN29OSDPerfMetricSubKeyDescriptorD2Ev@Base 12.0.3
 _ZN31C_handle_connection_established10do_requestEm@Base 12.0.3
 _ZN31C_handle_connection_establishedD0Ev@Base 12.0.3
 _ZN31C_handle_connection_establishedD1Ev@Base 12.0.3
 _ZN31C_handle_connection_establishedD2Ev@Base 12.0.3
 _ZN31RemoteReservationRevokedTooFullD0Ev@Base 12.0.3
 _ZN31RemoteReservationRevokedTooFullD1Ev@Base 12.0.3
 _ZN31RemoteReservationRevokedTooFullD2Ev@Base 12.0.3
 _ZN32RemoteReservationRejectedTooFullD0Ev@Base 12.0.3
 _ZN32RemoteReservationRejectedTooFullD1Ev@Base 12.0.3
 _ZN32RemoteReservationRejectedTooFullD2Ev@Base 12.0.3
 _ZN3fmt2v510vformat_toINS0_13arg_formatterINS0_17back_insert_rangeINS0_8internal12basic_bufferIwEEEEEEwNS0_20basic_format_contextISt20back_insert_iteratorIS6_EwEEEENT1_8iteratorENT_5rangeENS0_17basic_string_viewIT0_EENS0_17basic_format_argsISD_EENS4_10locale_refE@Base 12.0.3
 _ZN3fmt2v512basic_writerINS0_17back_insert_rangeINS0_8internal12basic_bufferIcEEEEE10int_writerIcNS0_18basic_format_specsIcEEEC1ERS7_cRKSA_@Base 12.0.3
 _ZN3fmt2v512basic_writerINS0_17back_insert_rangeINS0_8internal12basic_bufferIcEEEEE10int_writerIcNS0_18basic_format_specsIcEEEC2ERS7_cRKSA_@Base 12.0.3
 _ZN3fmt2v512basic_writerINS0_17back_insert_rangeINS0_8internal12basic_bufferIcEEEEE10int_writerIiNS0_18basic_format_specsIcEEEC1ERS7_iRKSA_@Base 12.0.3
 _ZN3fmt2v512basic_writerINS0_17back_insert_rangeINS0_8internal12basic_bufferIcEEEEE10int_writerIiNS0_18basic_format_specsIcEEEC2ERS7_iRKSA_@Base 12.0.3
 _ZN3fmt2v512basic_writerINS0_17back_insert_rangeINS0_8internal12basic_bufferIcEEEEE10int_writerIxNS0_18basic_format_specsIcEEEC1ERS7_xRKSA_@Base 12.0.3
 _ZN3fmt2v512basic_writerINS0_17back_insert_rangeINS0_8internal12basic_bufferIcEEEEE10int_writerIxNS0_18basic_format_specsIcEEEC2ERS7_xRKSA_@Base 12.0.3
 _ZN3fmt2v512basic_writerINS0_17back_insert_rangeINS0_8internal12basic_bufferIcEEEEE12write_doubleIdEEvT_RKNS0_18basic_format_specsIcEE@Base 12.0.3
 _ZN3fmt2v512basic_writerINS0_17back_insert_rangeINS0_8internal12basic_bufferIcEEEEE12write_doubleIeEEvT_RKNS0_18basic_format_specsIcEE@Base 12.0.3
 _ZN3fmt2v512basic_writerINS0_17back_insert_rangeINS0_8internal12basic_bufferIcEEEEE12write_paddedINS7_10str_writerIcEEEEvRKNS0_10align_specEOT_@Base 12.0.3
 _ZN3fmt2v512basic_writerINS0_17back_insert_rangeINS0_8internal12basic_bufferIcEEEEE12write_paddedINS7_13double_writerEEEvRKNS0_10align_specEOT_@Base 12.0.3
 _ZN3fmt2v512basic_writerINS0_17back_insert_rangeINS0_8internal12basic_bufferIcEEEEE12write_paddedINS7_17inf_or_nan_writerEEEvRKNS0_10align_specEOT_@Base 12.0.3
 _ZN3fmt2v512basic_writerINS0_17back_insert_rangeINS0_8internal12basic_bufferIcEEEEE12write_paddedINS7_17padded_int_writerINS7_10int_writerIcNS0_18basic_format_specsIcEEE10num_writerEEEEEvRKNS0_10align_specEOT_@Base 12.0.3
 _ZN3fmt2v512basic_writerINS0_17back_insert_rangeINS0_8internal12basic_bufferIcEEEEE12write_paddedINS7_17padded_int_writerINS7_10int_writerIiNS0_18basic_format_specsIcEEE10num_writerEEEEEvRKNS0_10align_specEOT_@Base 12.0.3
 _ZN3fmt2v512basic_writerINS0_17back_insert_rangeINS0_8internal12basic_bufferIcEEEEE12write_paddedINS7_17padded_int_writerINS7_10int_writerIjNS0_18basic_format_specsIcEEE10num_writerEEEEEvRKNS0_10align_specEOT_@Base 12.0.3
 _ZN3fmt2v512basic_writerINS0_17back_insert_rangeINS0_8internal12basic_bufferIcEEEEE12write_paddedINS7_17padded_int_writerINS7_10int_writerImNS0_18basic_format_specsIcEEE10num_writerEEEEEvRKNS0_10align_specEOT_@Base 12.0.3
 _ZN3fmt2v512basic_writerINS0_17back_insert_rangeINS0_8internal12basic_bufferIcEEEEE12write_paddedINS7_17padded_int_writerINS7_10int_writerIxNS0_18basic_format_specsIcEEE10num_writerEEEEEvRKNS0_10align_specEOT_@Base 12.0.3
 _ZN3fmt2v512basic_writerINS0_17back_insert_rangeINS0_8internal12basic_bufferIcEEEEE12write_paddedINS7_17padded_int_writerINS7_10int_writerIyNS0_18basic_format_specsIcEEE10num_writerEEEEEvRKNS0_10align_specEOT_@Base 12.0.3
 _ZN3fmt2v512basic_writerINS0_17back_insert_rangeINS0_8internal12basic_bufferIcEEEEE5writeENS0_17basic_string_viewIcEE@Base 12.0.3
 _ZN3fmt2v512basic_writerINS0_17back_insert_rangeINS0_8internal12basic_bufferIwEEEEE10int_writerIiNS0_18basic_format_specsIwEEEC1ERS7_iRKSA_@Base 12.0.3
 _ZN3fmt2v512basic_writerINS0_17back_insert_rangeINS0_8internal12basic_bufferIwEEEEE10int_writerIiNS0_18basic_format_specsIwEEEC2ERS7_iRKSA_@Base 12.0.3
 _ZN3fmt2v512basic_writerINS0_17back_insert_rangeINS0_8internal12basic_bufferIwEEEEE10int_writerIwNS0_18basic_format_specsIwEEEC1ERS7_wRKSA_@Base 12.0.3
 _ZN3fmt2v512basic_writerINS0_17back_insert_rangeINS0_8internal12basic_bufferIwEEEEE10int_writerIwNS0_18basic_format_specsIwEEEC2ERS7_wRKSA_@Base 12.0.3
 _ZN3fmt2v512basic_writerINS0_17back_insert_rangeINS0_8internal12basic_bufferIwEEEEE10int_writerIxNS0_18basic_format_specsIwEEEC1ERS7_xRKSA_@Base 12.0.3
 _ZN3fmt2v512basic_writerINS0_17back_insert_rangeINS0_8internal12basic_bufferIwEEEEE10int_writerIxNS0_18basic_format_specsIwEEEC2ERS7_xRKSA_@Base 12.0.3
 _ZN3fmt2v512basic_writerINS0_17back_insert_rangeINS0_8internal12basic_bufferIwEEEEE12write_doubleIdEEvT_RKNS0_18basic_format_specsIwEE@Base 12.0.3
 _ZN3fmt2v512basic_writerINS0_17back_insert_rangeINS0_8internal12basic_bufferIwEEEEE12write_doubleIeEEvT_RKNS0_18basic_format_specsIwEE@Base 12.0.3
 _ZN3fmt2v512basic_writerINS0_17back_insert_rangeINS0_8internal12basic_bufferIwEEEEE12write_paddedINS7_10str_writerIwEEEEvRKNS0_10align_specEOT_@Base 12.0.3
 _ZN3fmt2v512basic_writerINS0_17back_insert_rangeINS0_8internal12basic_bufferIwEEEEE12write_paddedINS7_13double_writerEEEvRKNS0_10align_specEOT_@Base 12.0.3
 _ZN3fmt2v512basic_writerINS0_17back_insert_rangeINS0_8internal12basic_bufferIwEEEEE12write_paddedINS7_17inf_or_nan_writerEEEvRKNS0_10align_specEOT_@Base 12.0.3
 _ZN3fmt2v512basic_writerINS0_17back_insert_rangeINS0_8internal12basic_bufferIwEEEEE12write_paddedINS7_17padded_int_writerINS7_10int_writerIiNS0_18basic_format_specsIwEEE10num_writerEEEEEvRKNS0_10align_specEOT_@Base 12.0.3
 _ZN3fmt2v512basic_writerINS0_17back_insert_rangeINS0_8internal12basic_bufferIwEEEEE12write_paddedINS7_17padded_int_writerINS7_10int_writerIjNS0_18basic_format_specsIwEEE10num_writerEEEEEvRKNS0_10align_specEOT_@Base 12.0.3
 _ZN3fmt2v512basic_writerINS0_17back_insert_rangeINS0_8internal12basic_bufferIwEEEEE12write_paddedINS7_17padded_int_writerINS7_10int_writerIwNS0_18basic_format_specsIwEEE10num_writerEEEEEvRKNS0_10align_specEOT_@Base 12.0.3
 _ZN3fmt2v512basic_writerINS0_17back_insert_rangeINS0_8internal12basic_bufferIwEEEEE12write_paddedINS7_17padded_int_writerINS7_10int_writerIxNS0_18basic_format_specsIwEEE10num_writerEEEEEvRKNS0_10align_specEOT_@Base 12.0.3
 _ZN3fmt2v512basic_writerINS0_17back_insert_rangeINS0_8internal12basic_bufferIwEEEEE12write_paddedINS7_17padded_int_writerINS7_10int_writerIyNS0_18basic_format_specsIwEEE10num_writerEEEEEvRKNS0_10align_specEOT_@Base 12.0.3
 _ZN3fmt2v512format_errorD0Ev@Base 12.0.3
 _ZN3fmt2v512format_errorD1Ev@Base 12.0.3
 _ZN3fmt2v512format_errorD2Ev@Base 12.0.3
 _ZN3fmt2v512system_error4initEiNS0_17basic_string_viewIcEENS0_11format_argsE@Base 12.0.3
 _ZN3fmt2v516visit_format_argINS0_13arg_formatterINS0_17back_insert_rangeINS0_8internal12basic_bufferIcEEEEEENS0_20basic_format_contextISt20back_insert_iteratorIS6_EcEEEENS4_9result_ofIFT_iEE4typeEOSE_RKNS0_16basic_format_argIT0_EE@Base 12.0.3
 _ZN3fmt2v516visit_format_argINS0_13arg_formatterINS0_17back_insert_rangeINS0_8internal12basic_bufferIwEEEEEENS0_20basic_format_contextISt20back_insert_iteratorIS6_EwEEEENS4_9result_ofIFT_iEE4typeEOSE_RKNS0_16basic_format_argIT0_EE@Base 12.0.3
 _ZN3fmt2v519basic_memory_bufferIcLm500ESaIcEE4growEm@Base 12.0.3
 _ZN3fmt2v519basic_memory_bufferIcLm500ESaIcEED0Ev@Base 12.0.3
 _ZN3fmt2v519basic_memory_bufferIcLm500ESaIcEED1Ev@Base 12.0.3
 _ZN3fmt2v519basic_memory_bufferIcLm500ESaIcEED2Ev@Base 12.0.3
 _ZN3fmt2v519basic_memory_bufferIwLm500ESaIwEE4growEm@Base 12.0.3
 _ZN3fmt2v519basic_memory_bufferIwLm500ESaIwEED0Ev@Base 12.0.3
 _ZN3fmt2v519basic_memory_bufferIwLm500ESaIwEED1Ev@Base 12.0.3
 _ZN3fmt2v519basic_memory_bufferIwLm500ESaIwEED2Ev@Base 12.0.3
 _ZN3fmt2v519format_system_errorERNS0_8internal12basic_bufferIcEEiNS0_17basic_string_viewIcEE@Base 12.0.3
 _ZN3fmt2v519report_system_errorEiNS0_17basic_string_viewIcEE@Base 12.0.3
 _ZN3fmt2v520basic_format_contextISt20back_insert_iteratorINS0_8internal12basic_bufferIcEEEcE3argENS0_17basic_string_viewIcEE@Base 12.0.3
 _ZN3fmt2v520basic_format_contextISt20back_insert_iteratorINS0_8internal12basic_bufferIwEEEwE3argENS0_17basic_string_viewIwEE@Base 12.0.3
 _ZN3fmt2v525instantiate_grisu2_formatE@Base 12.0.3
 _ZN3fmt2v56vprintENS0_17basic_string_viewIcEENS0_11format_argsE@Base 12.0.3
 _ZN3fmt2v56vprintENS0_17basic_string_viewIwEENS0_12wformat_argsE@Base 12.0.3
 _ZN3fmt2v56vprintEP8_IO_FILENS0_17basic_string_viewIcEENS0_11format_argsE@Base 12.0.3
 _ZN3fmt2v56vprintEP8_IO_FILENS0_17basic_string_viewIwEENS0_12wformat_argsE@Base 12.0.3
 _ZN3fmt2v58internal10basic_dataIvE11RESET_COLORE@Base 12.0.3
 _ZN3fmt2v58internal10basic_dataIvE12WRESET_COLORE@Base 12.0.3
 _ZN3fmt2v58internal10basic_dataIvE15POW10_EXPONENTSE@Base 12.0.3
 _ZN3fmt2v58internal10basic_dataIvE15POWERS_OF_10_64E@Base 12.0.3
 _ZN3fmt2v58internal10basic_dataIvE16BACKGROUND_COLORE@Base 12.0.3
 _ZN3fmt2v58internal10basic_dataIvE16FOREGROUND_COLORE@Base 12.0.3
 _ZN3fmt2v58internal10basic_dataIvE18POW10_SIGNIFICANDSE@Base 12.0.3
 _ZN3fmt2v58internal10basic_dataIvE23ZERO_OR_POWERS_OF_10_32E@Base 12.0.3
 _ZN3fmt2v58internal10basic_dataIvE23ZERO_OR_POWERS_OF_10_64E@Base 12.0.3
 _ZN3fmt2v58internal10basic_dataIvE6DIGITSE@Base 12.0.3
 _ZN3fmt2v58internal10locale_refC1ISt6localeEERKT_@Base 12.0.3
 _ZN3fmt2v58internal10locale_refC2ISt6localeEERKT_@Base 12.0.3
 _ZN3fmt2v58internal10vformat_toIcEENS0_14buffer_contextIT_E4type8iteratorERNS1_12basic_bufferIS4_EENS0_17basic_string_viewIS4_EENS0_17basic_format_argsIS6_EE@Base 12.0.3
 _ZN3fmt2v58internal11char_traitsIcE12format_floatIdEEiPcmPKciT_@Base 12.0.3
 _ZN3fmt2v58internal11char_traitsIcE12format_floatIeEEiPcmPKciT_@Base 12.0.3
 _ZN3fmt2v58internal11char_traitsIwE12format_floatIdEEiPwmPKwiT_@Base 12.0.3
 _ZN3fmt2v58internal11char_traitsIwE12format_floatIeEEiPwmPKwiT_@Base 12.0.3
 _ZN3fmt2v58internal12basic_bufferIcE6appendIcEEvPKT_S7_@Base 12.0.3
 _ZN3fmt2v58internal12basic_bufferIwE6appendIwEEvPKT_S7_@Base 12.0.3
 _ZN3fmt2v58internal12parse_arg_idIcNS1_13width_adapterIRNS1_13specs_checkerINS1_13specs_handlerINS0_19basic_parse_contextIcNS1_13error_handlerEEENS0_20basic_format_contextISt20back_insert_iteratorINS1_12basic_bufferIcEEEcEEEEEEcEEEEPKT_SL_SL_OT0_@Base 12.0.3
 _ZN3fmt2v58internal12parse_arg_idIcNS1_17precision_adapterIRNS1_13specs_checkerINS1_13specs_handlerINS0_19basic_parse_contextIcNS1_13error_handlerEEENS0_20basic_format_contextISt20back_insert_iteratorINS1_12basic_bufferIcEEEcEEEEEEcEEEEPKT_SL_SL_OT0_@Base 12.0.3
 _ZN3fmt2v58internal12parse_arg_idIwNS1_13width_adapterIRNS1_13specs_checkerINS1_13specs_handlerINS0_19basic_parse_contextIwNS1_13error_handlerEEENS0_20basic_format_contextISt20back_insert_iteratorINS1_12basic_bufferIwEEEwEEEEEEwEEEEPKT_SL_SL_OT0_@Base 12.0.3
 _ZN3fmt2v58internal12parse_arg_idIwNS1_17precision_adapterIRNS1_13specs_checkerINS1_13specs_handlerINS0_19basic_parse_contextIwNS1_13error_handlerEEENS0_20basic_format_contextISt20back_insert_iteratorINS1_12basic_bufferIwEEEwEEEEEEwEEEEPKT_SL_SL_OT0_@Base 12.0.3
 _ZN3fmt2v58internal13error_handler8on_errorEPKc@Base 12.0.3
 _ZN3fmt2v58internal13grisu2_formatIdLi0EEEbT_RNS1_12basic_bufferIcEEibRi@Base 12.0.3
 _ZN3fmt2v58internal14sprintf_formatIdEEvT_RNS1_12basic_bufferIcEENS0_17core_format_specsE@Base 12.0.3
 _ZN3fmt2v58internal14sprintf_formatIeEEvT_RNS1_12basic_bufferIcEENS0_17core_format_specsE@Base 12.0.3
 _ZN3fmt2v58internal15grisu2_prettifyIcNS1_17counting_iteratorIcEEEET0_PKciiS5_NS1_17gen_digits_paramsE@Base 12.0.3
 _ZN3fmt2v58internal15grisu2_prettifyIcPcEET0_PKciiS4_NS1_17gen_digits_paramsE@Base 12.0.3
 _ZN3fmt2v58internal15grisu2_prettifyIwPwEET0_PKciiS4_NS1_17gen_digits_paramsE@Base 12.0.3
 _ZN3fmt2v58internal16get_cached_powerEiRi@Base 12.0.3
 _ZN3fmt2v58internal17count_code_pointsENS0_17basic_string_viewINS0_7char8_tEEE@Base 12.0.3
 _ZN3fmt2v58internal17grisu2_gen_digitsINS1_13fixed_handlerEEENS1_6digits6resultENS1_2fpEmRiRT_@Base 12.0.3
 _ZN3fmt2v58internal17grisu2_gen_digitsINS1_16shortest_handlerEEENS1_6digits6resultENS1_2fpEmRiRT_@Base 12.0.3
 _ZN3fmt2v58internal18arg_formatter_baseINS0_17back_insert_rangeINS1_12basic_bufferIcEEEEE13write_pointerEPKv@Base 12.0.3
 _ZN3fmt2v58internal18arg_formatter_baseINS0_17back_insert_rangeINS1_12basic_bufferIcEEEEE17char_spec_handler6on_intEv@Base 12.0.3
 _ZN3fmt2v58internal18arg_formatter_baseINS0_17back_insert_rangeINS1_12basic_bufferIcEEEEE5writeEPKc@Base 12.0.3
 _ZN3fmt2v58internal18arg_formatter_baseINS0_17back_insert_rangeINS1_12basic_bufferIcEEEEEclIiLi0EEESt20back_insert_iteratorIS5_ET_@Base 12.0.3
 _ZN3fmt2v58internal18arg_formatter_baseINS0_17back_insert_rangeINS1_12basic_bufferIcEEEEEclIjLi0EEESt20back_insert_iteratorIS5_ET_@Base 12.0.3
 _ZN3fmt2v58internal18arg_formatter_baseINS0_17back_insert_rangeINS1_12basic_bufferIcEEEEEclIxLi0EEESt20back_insert_iteratorIS5_ET_@Base 12.0.3
 _ZN3fmt2v58internal18arg_formatter_baseINS0_17back_insert_rangeINS1_12basic_bufferIcEEEEEclIyLi0EEESt20back_insert_iteratorIS5_ET_@Base 12.0.3
 _ZN3fmt2v58internal18arg_formatter_baseINS0_17back_insert_rangeINS1_12basic_bufferIwEEEEE13write_pointerEPKv@Base 12.0.3
 _ZN3fmt2v58internal18arg_formatter_baseINS0_17back_insert_rangeINS1_12basic_bufferIwEEEEE5writeEPKw@Base 12.0.3
 _ZN3fmt2v58internal18arg_formatter_baseINS0_17back_insert_rangeINS1_12basic_bufferIwEEEEEclIiLi0EEESt20back_insert_iteratorIS5_ET_@Base 12.0.3
 _ZN3fmt2v58internal18arg_formatter_baseINS0_17back_insert_rangeINS1_12basic_bufferIwEEEEEclIjLi0EEESt20back_insert_iteratorIS5_ET_@Base 12.0.3
 _ZN3fmt2v58internal18arg_formatter_baseINS0_17back_insert_rangeINS1_12basic_bufferIwEEEEEclIxLi0EEESt20back_insert_iteratorIS5_ET_@Base 12.0.3
 _ZN3fmt2v58internal18arg_formatter_baseINS0_17back_insert_rangeINS1_12basic_bufferIwEEEEEclIyLi0EEESt20back_insert_iteratorIS5_ET_@Base 12.0.3
 _ZN3fmt2v58internal18parse_format_specsIcRNS1_13specs_checkerINS1_13specs_handlerINS0_19basic_parse_contextIcNS1_13error_handlerEEENS0_20basic_format_contextISt20back_insert_iteratorINS1_12basic_bufferIcEEEcEEEEEEEEPKT_SJ_SJ_OT0_@Base 12.0.3
 _ZN3fmt2v58internal18parse_format_specsIwRNS1_13specs_checkerINS1_13specs_handlerINS0_19basic_parse_contextIwNS1_13error_handlerEEENS0_20basic_format_contextISt20back_insert_iteratorINS1_12basic_bufferIwEEEwEEEEEEEEPKT_SJ_SJ_OT0_@Base 12.0.3
 _ZN3fmt2v58internal18thousands_sep_implIcEET_NS1_10locale_refE@Base 12.0.3
 _ZN3fmt2v58internal18thousands_sep_implIwEET_NS1_10locale_refE@Base 12.0.3
 _ZN3fmt2v58internal19parse_format_stringILb0EcRNS0_14format_handlerINS0_13arg_formatterINS0_17back_insert_rangeINS1_12basic_bufferIcEEEEEEcNS0_20basic_format_contextISt20back_insert_iteratorIS7_EcEEEEEEvNS0_17basic_string_viewIT0_EEOT1_@Base 12.0.3
 _ZN3fmt2v58internal19parse_format_stringILb0EwRNS0_14format_handlerINS0_13arg_formatterINS0_17back_insert_rangeINS1_12basic_bufferIwEEEEEEwNS0_20basic_format_contextISt20back_insert_iteratorIS7_EwEEEEEEvNS0_17basic_string_viewIT0_EEOT1_@Base 12.0.3
 _ZN3fmt2v58internal7arg_mapINS0_20basic_format_contextISt20back_insert_iteratorINS1_12basic_bufferIcEEEcEEE4initERKNS0_17basic_format_argsIS8_EE@Base 12.0.3
 _ZN3fmt2v58internal7arg_mapINS0_20basic_format_contextISt20back_insert_iteratorINS1_12basic_bufferIwEEEwEEE4initERKNS0_17basic_format_argsIS8_EE@Base 12.0.3
 _ZN3fmt2v58internal7vformatIcEENSt7__cxx1112basic_stringIT_St11char_traitsIS5_ESaIS5_EEENS0_17basic_string_viewIS5_EENS0_17basic_format_argsINS0_14buffer_contextIS5_E4typeEEE@Base 12.0.3
 _ZN3fmt2v58internal7vformatIwEENSt7__cxx1112basic_stringIT_St11char_traitsIS5_ESaIS5_EEENS0_17basic_string_viewIS5_EENS0_17basic_format_argsINS0_14buffer_contextIS5_E4typeEEE@Base 12.0.3
 _ZN3fmt2v58internalmlENS1_2fpES2_@Base 12.0.3
 _ZN3fu27abi_3106detail12type_erasure16invocation_table14function_traitIFvvEE13empty_invokerILb1EE6invokeEPNS2_13data_accessorEm@Base 12.0.3
 _ZN3fu27abi_3106detail12type_erasure16invocation_table14function_traitIFvvEE16internal_invokerINS2_3boxILb0ESt5_BindIFM8ObjecterFvvEPSA_EESaISF_EEELb0EE6invokeEPNS2_13data_accessorEm@Base 12.0.3
 _ZN3fu27abi_3106detail12type_erasure16invocation_table14function_traitIFvvEE16internal_invokerINS2_3boxILb0ESt5_BindIFM8ObjecterFvvEPSA_EESaISF_EEELb1EE6invokeEPNS2_13data_accessorEm@Base 12.0.3
 _ZN3fu27abi_3106detail12type_erasure16invocation_table17bad_function_callD0Ev@Base 12.0.3
 _ZN3fu27abi_3106detail12type_erasure16invocation_table17bad_function_callD1Ev@Base 12.0.3
 _ZN3fu27abi_3106detail12type_erasure16invocation_table17bad_function_callD2Ev@Base 12.0.3
 _ZN3fu27abi_3106detail12type_erasure6tables6vtableINS1_8propertyILb1ELb0EJFvvEEEEE5traitINS2_3boxILb0ESt5_BindIFM8ObjecterFvvEPSC_EESaISH_EEEE11process_cmdILb0EEEvPS8_NS3_6opcodeEPNS2_13data_accessorEmSP_m@Base 12.0.3
 _ZN3fu27abi_3106detail12type_erasure6tables6vtableINS1_8propertyILb1ELb0EJFvvEEEEE5traitINS2_3boxILb0ESt5_BindIFM8ObjecterFvvEPSC_EESaISH_EEEE11process_cmdILb1EEEvPS8_NS3_6opcodeEPNS2_13data_accessorEmSP_m@Base 12.0.3
 _ZN3fu27abi_3106detail12type_erasure6tables6vtableINS1_8propertyILb1ELb0EJFvvEEEEE9empty_cmdEPS8_NS3_6opcodeEPNS2_13data_accessorEmSC_m@Base 12.0.3
 _ZN4MLog14decode_payloadEv@Base 12.0.3
 _ZN4MLog14encode_payloadEm@Base 12.0.3
 _ZN4MLogD0Ev@Base 12.0.3
 _ZN4MLogD1Ev@Base 12.0.3
 _ZN4MLogD2Ev@Base 12.0.3
 _ZN4PortC1EPN4ceph6common11CephContextEP11ibv_contexth@Base 12.0.3
 _ZN4PortC2EPN4ceph6common11CephContextEP11ibv_contexth@Base 12.0.3
 _ZN4ceph10NetHandler12set_nonblockEi@Base 12.0.3
 _ZN4ceph10NetHandler12set_priorityEiii@Base 12.0.3
 _ZN4ceph10NetHandler13create_socketEib@Base 12.0.3
 _ZN4ceph10NetHandler15generic_connectERK13entity_addr_tS3_b@Base 12.0.3
 _ZN4ceph10NetHandler16nonblock_connectERK13entity_addr_tS3_@Base 12.0.3
 _ZN4ceph10NetHandler18set_socket_optionsEibi@Base 12.0.3
 _ZN4ceph10NetHandler7connectERK13entity_addr_tS3_@Base 12.0.3
 _ZN4ceph10NetHandler9reconnectERK13entity_addr_ti@Base 12.0.3
 _ZN4ceph10_page_maskE@Base 12.0.3
 _ZN4ceph10_page_sizeE@Base 12.0.3
 _ZN4ceph11BufAppender6printfEPKcz@Base 12.0.3
 _ZN4ceph11DNSResolver13resolve_cnameEPNS_6common11CephContextERKNSt7__cxx1112basic_stringIcSt11char_traitsIcESaIcEEEPS9_Pb@Base 12.0.3
 _ZN4ceph11DNSResolver15resolve_ip_addrEPNS_6common11CephContextEPP11__res_stateRKNSt7__cxx1112basic_stringIcSt11char_traitsIcESaIcEEEP13entity_addr_t@Base 12.0.3
 _ZN4ceph11DNSResolver15resolve_ip_addrEPNS_6common11CephContextERKNSt7__cxx1112basic_stringIcSt11char_traitsIcESaIcEEEP13entity_addr_t@Base 12.0.3
 _ZN4ceph11DNSResolver17resolve_srv_hostsEPNS_6common11CephContextERKNSt7__cxx1112basic_stringIcSt11char_traitsIcESaIcEEENS0_12SRV_ProtocolEPSt3mapIS9_NS0_6RecordESt4lessIS9_ESaISt4pairISA_SE_EEE@Base 12.0.3
 _ZN4ceph11DNSResolver17resolve_srv_hostsEPNS_6common11CephContextERKNSt7__cxx1112basic_stringIcSt11char_traitsIcESaIcEEENS0_12SRV_ProtocolESB_PSt3mapIS9_NS0_6RecordESt4lessIS9_ESaISt4pairISA_SE_EEE@Base 12.0.3
 _ZN4ceph11DNSResolver9get_stateEPNS_6common11CephContextEPP11__res_state@Base 12.0.3
 _ZN4ceph11DNSResolver9put_stateEP11__res_state@Base 12.0.3
 _ZN4ceph11DNSResolverD1Ev@Base 12.0.3
 _ZN4ceph11DNSResolverD2Ev@Base 12.0.3
 _ZN4ceph11_page_shiftE@Base 12.0.3
 _ZN4ceph11time_detail10real_clock16to_ceph_timespecERKNSt6chrono10time_pointIS1_NS2_8durationImSt5ratioILl1ELl1000000000EEEEEE@Base 12.0.3
 _ZN4ceph11time_detail10real_clock16to_ceph_timespecERKNSt6chrono10time_pointIS1_NS2_8durationImSt5ratioILl1ELl1000000000EEEEEER13ceph_timespec@Base 12.0.3
 _ZN4ceph11time_detail10real_clock18from_ceph_timespecERK13ceph_timespec@Base 12.0.3
 _ZN4ceph11time_detail17coarse_real_clock16to_ceph_timespecERKNSt6chrono10time_pointIS1_NS2_8durationImSt5ratioILl1ELl1000000000EEEEEE@Base 12.0.3
 _ZN4ceph11time_detail17coarse_real_clock16to_ceph_timespecERKNSt6chrono10time_pointIS1_NS2_8durationImSt5ratioILl1ELl1000000000EEEEEER13ceph_timespec@Base 12.0.3
 _ZN4ceph11time_detail17coarse_real_clock18from_ceph_timespecERK13ceph_timespec@Base 12.0.3
 _ZN4ceph11to_iso_8601B5cxx11ENSt6chrono10time_pointINS_11time_detail10real_clockENS0_8durationImSt5ratioILl1ELl1000000000EEEEEENS_15iso_8601_formatE@Base 12.0.3
 _ZN4ceph12HeartbeatMap10add_workerERKNSt7__cxx1112basic_stringIcSt11char_traitsIcESaIcEEEm@Base 12.0.3
 _ZN4ceph12HeartbeatMap10is_healthyEv@Base 12.0.3
 _ZN4ceph12HeartbeatMap13clear_timeoutEPNS_18heartbeat_handle_dE@Base 12.0.3
 _ZN4ceph12HeartbeatMap13remove_workerEPKNS_18heartbeat_handle_dE@Base 12.0.3
 _ZN4ceph12HeartbeatMap13reset_timeoutEPNS_18heartbeat_handle_dEmm@Base 12.0.3
 _ZN4ceph12HeartbeatMap16check_touch_fileEv@Base 12.0.3
 _ZN4ceph12HeartbeatMap6_checkEPKNS_18heartbeat_handle_dEPKcm@Base 12.0.3
 _ZN4ceph12HeartbeatMapC1EPNS_6common11CephContextE@Base 12.0.3
 _ZN4ceph12HeartbeatMapC2EPNS_6common11CephContextE@Base 12.0.3
 _ZN4ceph12HeartbeatMapD1Ev@Base 12.0.3
 _ZN4ceph12HeartbeatMapD2Ev@Base 12.0.3
 _ZN4ceph12XMLFormatter10dump_floatESt17basic_string_viewIcSt11char_traitsIcEEd@Base 12.0.3
 _ZN4ceph12XMLFormatter10set_statusEiPKc@Base 12.0.3
 _ZN4ceph12XMLFormatter11dump_streamESt17basic_string_viewIcSt11char_traitsIcEE@Base 12.0.3
 _ZN4ceph12XMLFormatter11dump_stringESt17basic_string_viewIcSt11char_traitsIcEES4_@Base 12.0.3
 _ZN4ceph12XMLFormatter12print_spacesEv@Base 12.0.3
 _ZN4ceph12XMLFormatter13close_sectionEv@Base 12.0.3
 _ZN4ceph12XMLFormatter13dump_unsignedESt17basic_string_viewIcSt11char_traitsIcEEm@Base 12.0.3
 _ZN4ceph12XMLFormatter13get_attrs_strEPKNS_14FormatterAttrsERNSt7__cxx1112basic_stringIcSt11char_traitsIcESaIcEEE@Base 12.0.3
 _ZN4ceph12XMLFormatter13output_footerEv@Base 12.0.3
 _ZN4ceph12XMLFormatter13output_headerEv@Base 12.0.3
 _ZN4ceph12XMLFormatter14dump_format_vaESt17basic_string_viewIcSt11char_traitsIcEEPKcbS6_P13__va_list_tag@Base 12.0.3
 _ZN4ceph12XMLFormatter14write_raw_dataEPKc@Base 12.0.3
 _ZN4ceph12XMLFormatter17enable_line_breakEv@Base 12.0.3
 _ZN4ceph12XMLFormatter18open_array_sectionESt17basic_string_viewIcSt11char_traitsIcEE@Base 12.0.3
 _ZN4ceph12XMLFormatter18open_section_in_nsESt17basic_string_viewIcSt11char_traitsIcEEPKcPKNS_14FormatterAttrsE@Base 12.0.3
 _ZN4ceph12XMLFormatter19open_object_sectionESt17basic_string_viewIcSt11char_traitsIcEE@Base 12.0.3
 _ZN4ceph12XMLFormatter21finish_pending_stringEv@Base 12.0.3
 _ZN4ceph12XMLFormatter22dump_string_with_attrsESt17basic_string_viewIcSt11char_traitsIcEES4_RKNS_14FormatterAttrsE@Base 12.0.3
 _ZN4ceph12XMLFormatter24open_array_section_in_nsESt17basic_string_viewIcSt11char_traitsIcEEPKc@Base 12.0.3
 _ZN4ceph12XMLFormatter25open_object_section_in_nsESt17basic_string_viewIcSt11char_traitsIcEEPKc@Base 12.0.3
 _ZN4ceph12XMLFormatter29open_array_section_with_attrsESt17basic_string_viewIcSt11char_traitsIcEERKNS_14FormatterAttrsE@Base 12.0.3
 _ZN4ceph12XMLFormatter30open_object_section_with_attrsESt17basic_string_viewIcSt11char_traitsIcEERKNS_14FormatterAttrsE@Base 12.0.3
 _ZN4ceph12XMLFormatter5flushERSo@Base 12.0.3
 _ZN4ceph12XMLFormatter5resetEv@Base 12.0.3
 _ZN4ceph12XMLFormatter8dump_intESt17basic_string_viewIcSt11char_traitsIcEEl@Base 12.0.3
 _ZN4ceph12XMLFormatter9XML_1_DTDE@Base 12.0.3
 _ZN4ceph12XMLFormatter9add_valueIdEEvSt17basic_string_viewIcSt11char_traitsIcEET_@Base 12.0.3
 _ZN4ceph12XMLFormatter9add_valueIlEEvSt17basic_string_viewIcSt11char_traitsIcEET_@Base 12.0.3
 _ZN4ceph12XMLFormatter9add_valueImEEvSt17basic_string_viewIcSt11char_traitsIcEET_@Base 12.0.3
 _ZN4ceph12XMLFormatterC1Ebbb@Base 12.0.3
 _ZN4ceph12XMLFormatterC2Ebbb@Base 12.0.3
 _ZN4ceph12XMLFormatterD0Ev@Base 12.0.3
 _ZN4ceph12XMLFormatterD1Ev@Base 12.0.3
 _ZN4ceph12XMLFormatterD2Ev@Base 12.0.3
 _ZN4ceph12__ceph_abortEPKciS1_RKNSt7__cxx1112basic_stringIcSt11char_traitsIcESaIcEEE@Base 12.0.3
 _ZN4ceph12_get_bits_ofEi@Base 12.0.3
 _ZN4ceph12make_messageI10MOSDPGScanJEEEN5boost13intrusive_ptrIT_EEDpOT0_@Base 12.0.3
 _ZN4ceph12make_messageI10MOSDPGTempJEEEN5boost13intrusive_ptrIT_EEDpOT0_@Base 12.0.3
 _ZN4ceph12make_messageI11MClientSnapJEEEN5boost13intrusive_ptrIT_EEDpOT0_@Base 12.0.3
 _ZN4ceph12make_messageI11MMDSFindInoJEEEN5boost13intrusive_ptrIT_EEDpOT0_@Base 12.0.3
 _ZN4ceph12make_messageI11MMDSOpenInoJEEEN5boost13intrusive_ptrIT_EEDpOT0_@Base 12.0.3
 _ZN4ceph12make_messageI11MOSDBackoffJEEEN5boost13intrusive_ptrIT_EEDpOT0_@Base 12.0.3
 _ZN4ceph12make_messageI11MOSDPGInfo2JEEEN5boost13intrusive_ptrIT_EEDpOT0_@Base 12.0.3
 _ZN4ceph12make_messageI11MOSDPGQueryJEEEN5boost13intrusive_ptrIT_EEDpOT0_@Base 12.0.3
 _ZN4ceph12make_messageI11MPGStatsAckJEEEN5boost13intrusive_ptrIT_EEDpOT0_@Base 12.0.3
 _ZN4ceph12make_messageI12MCacheExpireJEEEN5boost13intrusive_ptrIT_EEDpOT0_@Base 12.0.3
 _ZN4ceph12make_messageI12MClientLeaseJEEEN5boost13intrusive_ptrIT_EEDpOT0_@Base 12.0.3
 _ZN4ceph12make_messageI12MMonGlobalIDJEEEN5boost13intrusive_ptrIT_EEDpOT0_@Base 12.0.3
 _ZN4ceph12make_messageI12MMonMetadataJEEEN5boost13intrusive_ptrIT_EEDpOT0_@Base 12.0.3
 _ZN4ceph12make_messageI12MOSDPGCreateJEEEN5boost13intrusive_ptrIT_EEDpOT0_@Base 12.0.3
 _ZN4ceph12make_messageI12MOSDPGRemoveJEEEN5boost13intrusive_ptrIT_EEDpOT0_@Base 12.0.3
 _ZN4ceph12make_messageI12MOSDRepScrubJEEEN5boost13intrusive_ptrIT_EEDpOT0_@Base 12.0.3
 _ZN4ceph12make_messageI12MWatchNotifyJEEEN5boost13intrusive_ptrIT_EEDpOT0_@Base 12.0.3
 _ZN4ceph12make_messageI13MCommandReplyJEEEN5boost13intrusive_ptrIT_EEDpOT0_@Base 12.0.3
 _ZN4ceph12make_messageI13MExportDirAckJEEEN5boost13intrusive_ptrIT_EEDpOT0_@Base 12.0.3
 _ZN4ceph12make_messageI13MOSDPGCreatedJEEEN5boost13intrusive_ptrIT_EEDpOT0_@Base 12.0.3
 _ZN4ceph12make_messageI13MOSDPGNotify2JEEEN5boost13intrusive_ptrIT_EEDpOT0_@Base 12.0.3
 _ZN4ceph12make_messageI14MClientReclaimJEEEN5boost13intrusive_ptrIT_EEDpOT0_@Base 12.0.3
 _ZN4ceph12make_messageI14MClientSessionJEEEN5boost13intrusive_ptrIT_EEDpOT0_@Base 12.0.3
 _ZN4ceph12make_messageI14MExportCapsAckJEEEN5boost13intrusive_ptrIT_EEDpOT0_@Base 12.0.3
 _ZN4ceph12make_messageI14MExportDirPrepJEEEN5boost13intrusive_ptrIT_EEDpOT0_@Base 12.0.3
 _ZN4ceph12make_messageI14MMDSSnapUpdateJEEEN5boost13intrusive_ptrIT_EEDpOT0_@Base 12.0.3
 _ZN4ceph12make_messageI14MMonGetVersionJEEEN5boost13intrusive_ptrIT_EEDpOT0_@Base 12.0.3
 _ZN4ceph12make_messageI14MOSDPGBackfillJEEEN5boost13intrusive_ptrIT_EEDpOT0_@Base 12.0.3
 _ZN4ceph12make_messageI16MExportDirCancelJEEEN5boost13intrusive_ptrIT_EEDpOT0_@Base 12.0.3
 _ZN4ceph12make_messageI16MExportDirFinishJEEEN5boost13intrusive_ptrIT_EEDpOT0_@Base 12.0.3
 _ZN4ceph12make_messageI16MMDSOpenInoReplyJEEEN5boost13intrusive_ptrIT_EEDpOT0_@Base 12.0.3
 _ZN4ceph12make_messageI16MMgrCommandReplyJEEEN5boost13intrusive_ptrIT_EEDpOT0_@Base 12.0.3
 _ZN4ceph12make_messageI16MOSDECSubOpWriteJEEEN5boost13intrusive_ptrIT_EEDpOT0_@Base 12.0.3
 _ZN4ceph12make_messageI17MExportDirPrepAckJEEEN5boost13intrusive_ptrIT_EEDpOT0_@Base 12.0.3
 _ZN4ceph12make_messageI18MMonGetPurgedSnapsJEEEN5boost13intrusive_ptrIT_EEDpOT0_@Base 12.0.3
 _ZN4ceph12make_messageI19MClientReclaimReplyJEEEN5boost13intrusive_ptrIT_EEDpOT0_@Base 12.0.3
 _ZN4ceph12make_messageI19MExportDirNotifyAckJEEEN5boost13intrusive_ptrIT_EEDpOT0_@Base 12.0.3
 _ZN4ceph12make_messageI19MMonGetVersionReplyJEEEN5boost13intrusive_ptrIT_EEDpOT0_@Base 12.0.3
 _ZN4ceph12make_messageI21MClientRequestForwardJEEEN5boost13intrusive_ptrIT_EEDpOT0_@Base 12.0.3
 _ZN4ceph12make_messageI22MOSDPGUpdateLogMissingJEEEN5boost13intrusive_ptrIT_EEDpOT0_@Base 12.0.3
 _ZN4ceph12make_messageI23MMonGetPurgedSnapsReplyJEEEN5boost13intrusive_ptrIT_EEDpOT0_@Base 12.0.3
 _ZN4ceph12make_messageI4MLogJEEEN5boost13intrusive_ptrIT_EEDpOT0_@Base 12.0.3
 _ZN4ceph12make_messageI4MLogJR6uuid_dSt5dequeI8LogEntrySaIS5_EEEEEN5boost13intrusive_ptrIT_EEDpOT0_@Base 12.0.3
 _ZN4ceph12make_messageI6MFSMapJEEEN5boost13intrusive_ptrIT_EEDpOT0_@Base 12.0.3
 _ZN4ceph12make_messageI6MOSDOpJEEEN5boost13intrusive_ptrIT_EEDpOT0_@Base 12.0.3
 _ZN4ceph12make_messageI6MRouteJEEEN5boost13intrusive_ptrIT_EEDpOT0_@Base 12.0.3
 _ZN4ceph12make_messageI7MConfigJEEEN5boost13intrusive_ptrIT_EEDpOT0_@Base 12.0.3
 _ZN4ceph12make_messageI7MMonMapJEEEN5boost13intrusive_ptrIT_EEDpOT0_@Base 12.0.3
 _ZN4ceph12make_messageI8MOSDFullJEEEN5boost13intrusive_ptrIT_EEDpOT0_@Base 12.0.3
 _ZN4ceph12make_messageI9MMgrCloseJEEEN5boost13intrusive_ptrIT_EEDpOT0_@Base 12.0.3
 _ZN4ceph12make_messageI9MOSDAliveJEEEN5boost13intrusive_ptrIT_EEDpOT0_@Base 12.0.3
 _ZN4ceph12make_messageI9MOSDPGLogJEEEN5boost13intrusive_ptrIT_EEDpOT0_@Base 12.0.3
 _ZN4ceph12make_messageI9MOSDRepOpJEEEN5boost13intrusive_ptrIT_EEDpOT0_@Base 12.0.3
 _ZN4ceph12timespan_strB5cxx11ENSt6chrono8durationImSt5ratioILl1ELl1000000000EEEE@Base 12.0.3
 _ZN4ceph13HTMLFormatter10dump_floatESt17basic_string_viewIcSt11char_traitsIcEEd@Base 12.0.3
 _ZN4ceph13HTMLFormatter10set_statusEiPKc@Base 12.0.3
 _ZN4ceph13HTMLFormatter11dump_streamESt17basic_string_viewIcSt11char_traitsIcEE@Base 12.0.3
 _ZN4ceph13HTMLFormatter11dump_stringESt17basic_string_viewIcSt11char_traitsIcEES4_@Base 12.0.3
 _ZN4ceph13HTMLFormatter13dump_unsignedESt17basic_string_viewIcSt11char_traitsIcEEm@Base 12.0.3
 _ZN4ceph13HTMLFormatter13output_headerEv@Base 12.0.3
 _ZN4ceph13HTMLFormatter14dump_format_vaESt17basic_string_viewIcSt11char_traitsIcEEPKcbS6_P13__va_list_tag@Base 12.0.3
 _ZN4ceph13HTMLFormatter22dump_string_with_attrsESt17basic_string_viewIcSt11char_traitsIcEES4_RKNS_14FormatterAttrsE@Base 12.0.3
 _ZN4ceph13HTMLFormatter5resetEv@Base 12.0.3
 _ZN4ceph13HTMLFormatter8dump_intESt17basic_string_viewIcSt11char_traitsIcEEl@Base 12.0.3
 _ZN4ceph13HTMLFormatterC1Eb@Base 12.0.3
 _ZN4ceph13HTMLFormatterC2Eb@Base 12.0.3
 _ZN4ceph13HTMLFormatterD0Ev@Base 12.0.3
 _ZN4ceph13HTMLFormatterD1Ev@Base 12.0.3
 _ZN4ceph13HTMLFormatterD2Ev@Base 12.0.3
 _ZN4ceph13JSONFormatter10dump_floatESt17basic_string_viewIcSt11char_traitsIcEEd@Base 12.0.3
 _ZN4ceph13JSONFormatter10print_nameESt17basic_string_viewIcSt11char_traitsIcEE@Base 12.0.3
 _ZN4ceph13JSONFormatter10set_statusEiPKc@Base 12.0.3
 _ZN4ceph13JSONFormatter11dump_streamESt17basic_string_viewIcSt11char_traitsIcEE@Base 12.0.3
 _ZN4ceph13JSONFormatter11dump_stringESt17basic_string_viewIcSt11char_traitsIcEES4_@Base 12.0.3
 _ZN4ceph13JSONFormatter11print_commaERNS0_28json_formatter_stack_entry_dE@Base 12.0.3
 _ZN4ceph13JSONFormatter12handle_valueESt17basic_string_viewIcSt11char_traitsIcEES4_b@Base 12.0.3
 _ZN4ceph13JSONFormatter12open_sectionESt17basic_string_viewIcSt11char_traitsIcEEPKcb@Base 12.0.3
 _ZN4ceph13JSONFormatter13close_sectionEv@Base 12.0.3
 _ZN4ceph13JSONFormatter13dump_unsignedESt17basic_string_viewIcSt11char_traitsIcEEm@Base 12.0.3
 _ZN4ceph13JSONFormatter13output_footerEv@Base 12.0.3
 _ZN4ceph13JSONFormatter13output_headerEv@Base 12.0.3
 _ZN4ceph13JSONFormatter14dump_format_vaESt17basic_string_viewIcSt11char_traitsIcEEPKcbS6_P13__va_list_tag@Base 12.0.3
 _ZN4ceph13JSONFormatter14write_raw_dataEPKc@Base 12.0.3
 _ZN4ceph13JSONFormatter17enable_line_breakEv@Base 12.0.3
 _ZN4ceph13JSONFormatter18open_array_sectionESt17basic_string_viewIcSt11char_traitsIcEE@Base 12.0.3
 _ZN4ceph13JSONFormatter19handle_open_sectionESt17basic_string_viewIcSt11char_traitsIcEEPKcb@Base 12.0.3
 _ZN4ceph13JSONFormatter19open_object_sectionESt17basic_string_viewIcSt11char_traitsIcEE@Base 12.0.3
 _ZN4ceph13JSONFormatter19print_quoted_stringESt17basic_string_viewIcSt11char_traitsIcEE@Base 12.0.3
 _ZN4ceph13JSONFormatter20handle_close_sectionEv@Base 12.0.3
 _ZN4ceph13JSONFormatter21finish_pending_stringEv@Base 12.0.3
 _ZN4ceph13JSONFormatter24open_array_section_in_nsESt17basic_string_viewIcSt11char_traitsIcEEPKc@Base 12.0.3
 _ZN4ceph13JSONFormatter25open_object_section_in_nsESt17basic_string_viewIcSt11char_traitsIcEEPKc@Base 12.0.3
 _ZN4ceph13JSONFormatter5flushERSo@Base 12.0.3
 _ZN4ceph13JSONFormatter5resetEv@Base 12.0.3
 _ZN4ceph13JSONFormatter8dump_intESt17basic_string_viewIcSt11char_traitsIcEEl@Base 12.0.3
 _ZN4ceph13JSONFormatter9add_valueESt17basic_string_viewIcSt11char_traitsIcEES4_b@Base 12.0.3
 _ZN4ceph13JSONFormatter9add_valueIdEEvSt17basic_string_viewIcSt11char_traitsIcEET_@Base 12.0.3
 _ZN4ceph13JSONFormatter9add_valueIlEEvSt17basic_string_viewIcSt11char_traitsIcEET_@Base 12.0.3
 _ZN4ceph13JSONFormatter9add_valueImEEvSt17basic_string_viewIcSt11char_traitsIcEET_@Base 12.0.3
 _ZN4ceph13JSONFormatterC1Eb@Base 12.0.3
 _ZN4ceph13JSONFormatterC2Eb@Base 12.0.3
 _ZN4ceph13JSONFormatterD0Ev@Base 12.0.3
 _ZN4ceph13JSONFormatterD1Ev@Base 12.0.3
 _ZN4ceph13JSONFormatterD2Ev@Base 12.0.3
 _ZN4ceph13__ceph_abortfEPKciS1_S1_z@Base 12.0.3
 _ZN4ceph13from_iso_8601EN5boost16basic_string_refIcSt11char_traitsIcEEEb@Base 12.0.3
 _ZN4ceph13shunique_lockISt12shared_mutexE6unlockEv@Base 12.0.3
 _ZN4ceph13shunique_lockISt12shared_mutexED1Ev@Base 12.0.3
 _ZN4ceph13shunique_lockISt12shared_mutexED2Ev@Base 12.0.3
 _ZN4ceph14FormatterAttrsC1EPKcz@Base 12.0.3
 _ZN4ceph14FormatterAttrsC2EPKcz@Base 12.0.3
 _ZN4ceph14PluginRegistry13get_with_loadERKNSt7__cxx1112basic_stringIcSt11char_traitsIcESaIcEEES8_@Base 12.0.3
 _ZN4ceph14PluginRegistry3addERKNSt7__cxx1112basic_stringIcSt11char_traitsIcESaIcEEES8_PNS_6PluginE@Base 12.0.3
 _ZN4ceph14PluginRegistry3getERKNSt7__cxx1112basic_stringIcSt11char_traitsIcESaIcEEES8_@Base 12.0.3
 _ZN4ceph14PluginRegistry4loadERKNSt7__cxx1112basic_stringIcSt11char_traitsIcESaIcEEES8_@Base 12.0.3
 _ZN4ceph14PluginRegistry6removeERKNSt7__cxx1112basic_stringIcSt11char_traitsIcESaIcEEES8_@Base 12.0.3
 _ZN4ceph14PluginRegistryC1EPNS_6common11CephContextE@Base 12.0.3
 _ZN4ceph14PluginRegistryC2EPNS_6common11CephContextE@Base 12.0.3
 _ZN4ceph14PluginRegistryD1Ev@Base 12.0.3
 _ZN4ceph14PluginRegistryD2Ev@Base 12.0.3
 _ZN4ceph14ResolvHWrapper12__res_nqueryEP11__res_statePKciiPhi@Base 12.0.3
 _ZN4ceph14ResolvHWrapper13__res_nsearchEP11__res_statePKciiPhi@Base 12.0.3
 _ZN4ceph14ResolvHWrapperD0Ev@Base 12.0.3
 _ZN4ceph14ResolvHWrapperD1Ev@Base 12.0.3
 _ZN4ceph14ResolvHWrapperD2Ev@Base 12.0.3
 _ZN4ceph14TableFormatter10dump_floatESt17basic_string_viewIcSt11char_traitsIcEEd@Base 12.0.3
 _ZN4ceph14TableFormatter10set_statusEiPKc@Base 12.0.3
 _ZN4ceph14TableFormatter11dump_streamESt17basic_string_viewIcSt11char_traitsIcEE@Base 12.0.3
 _ZN4ceph14TableFormatter11dump_stringESt17basic_string_viewIcSt11char_traitsIcEES4_@Base 12.0.3
 _ZN4ceph14TableFormatter11m_vec_indexESt17basic_string_viewIcSt11char_traitsIcEE@Base 12.0.3
 _ZN4ceph14TableFormatter13close_sectionEv@Base 12.0.3
 _ZN4ceph14TableFormatter13dump_unsignedESt17basic_string_viewIcSt11char_traitsIcEEm@Base 12.0.3
 _ZN4ceph14TableFormatter13get_attrs_strEPKNS_14FormatterAttrsERNSt7__cxx1112basic_stringIcSt11char_traitsIcESaIcEEE@Base 12.0.3
 _ZN4ceph14TableFormatter13output_footerEv@Base 12.0.3
 _ZN4ceph14TableFormatter13output_headerEv@Base 12.0.3
 _ZN4ceph14TableFormatter14dump_format_vaESt17basic_string_viewIcSt11char_traitsIcEEPKcbS6_P13__va_list_tag@Base 12.0.3
 _ZN4ceph14TableFormatter14write_raw_dataEPKc@Base 12.0.3
 _ZN4ceph14TableFormatter16get_section_nameB5cxx11ESt17basic_string_viewIcSt11char_traitsIcEE@Base 12.0.3
 _ZN4ceph14TableFormatter17enable_line_breakEv@Base 12.0.3
 _ZN4ceph14TableFormatter18open_array_sectionESt17basic_string_viewIcSt11char_traitsIcEE@Base 12.0.3
 _ZN4ceph14TableFormatter18open_section_in_nsESt17basic_string_viewIcSt11char_traitsIcEEPKcPKNS_14FormatterAttrsE@Base 12.0.3
 _ZN4ceph14TableFormatter19open_object_sectionESt17basic_string_viewIcSt11char_traitsIcEE@Base 12.0.3
 _ZN4ceph14TableFormatter21finish_pending_stringEv@Base 12.0.3
 _ZN4ceph14TableFormatter22dump_string_with_attrsESt17basic_string_viewIcSt11char_traitsIcEES4_RKNS_14FormatterAttrsE@Base 12.0.3
 _ZN4ceph14TableFormatter24open_array_section_in_nsESt17basic_string_viewIcSt11char_traitsIcEEPKc@Base 12.0.3
 _ZN4ceph14TableFormatter25open_object_section_in_nsESt17basic_string_viewIcSt11char_traitsIcEEPKc@Base 12.0.3
 _ZN4ceph14TableFormatter29open_array_section_with_attrsESt17basic_string_viewIcSt11char_traitsIcEERKNS_14FormatterAttrsE@Base 12.0.3
 _ZN4ceph14TableFormatter30open_object_section_with_attrsESt17basic_string_viewIcSt11char_traitsIcEERKNS_14FormatterAttrsE@Base 12.0.3
 _ZN4ceph14TableFormatter5flushERSo@Base 12.0.3
 _ZN4ceph14TableFormatter5resetEv@Base 12.0.3
 _ZN4ceph14TableFormatter8dump_intESt17basic_string_viewIcSt11char_traitsIcEEl@Base 12.0.3
 _ZN4ceph14TableFormatter9add_valueIdEEvSt17basic_string_viewIcSt11char_traitsIcEET_@Base 12.0.3
 _ZN4ceph14TableFormatter9add_valueIlEEvSt17basic_string_viewIcSt11char_traitsIcEET_@Base 12.0.3
 _ZN4ceph14TableFormatter9add_valueImEEvSt17basic_string_viewIcSt11char_traitsIcEET_@Base 12.0.3
 _ZN4ceph14TableFormatterC1Eb@Base 12.0.3
 _ZN4ceph14TableFormatterC2Eb@Base 12.0.3
 _ZN4ceph14TableFormatterD0Ev@Base 12.0.3
 _ZN4ceph14TableFormatterD1Ev@Base 12.0.3
 _ZN4ceph14TableFormatterD2Ev@Base 12.0.3
 _ZN4ceph14parse_timespanERKNSt7__cxx1112basic_stringIcSt11char_traitsIcESaIcEEE@Base 12.0.3
 _ZN4ceph15fixed_to_stringB5cxx11Eli@Base 12.0.3
 _ZN4ceph16copyable_sstreamC1ERKS0_@Base 12.0.3
 _ZN4ceph16copyable_sstreamD0Ev@Base 12.0.3
 _ZN4ceph16copyable_sstreamD1Ev@Base 12.0.3
 _ZN4ceph17fixed_u_to_stringB5cxx11Emi@Base 12.0.3
 _ZN4ceph18__ceph_assert_failEPKcS1_iS1_@Base 12.0.3
 _ZN4ceph18__ceph_assert_failERKNS_11assert_dataE@Base 12.0.3
 _ZN4ceph18__ceph_assert_warnEPKcS1_iS1_@Base 12.0.3
 _ZN4ceph18exact_timespan_strB5cxx11ENSt6chrono8durationImSt5ratioILl1ELl1000000000EEEE@Base 12.0.3
 _ZN4ceph18md_config_obs_implINS_6common11ConfigProxyEE20handle_subsys_changeERKS2_RKSt3setIiSt4lessIiESaIiEE@Base 12.0.3
 _ZN4ceph18mutex_debug_detail20mutex_debugging_base10_will_lockEb@Base 12.0.3
 _ZN4ceph18mutex_debug_detail20mutex_debugging_base12_will_unlockEv@Base 12.0.3
 _ZN4ceph18mutex_debug_detail20mutex_debugging_base7_lockedEv@Base 12.0.3
 _ZN4ceph18mutex_debug_detail20mutex_debugging_base9_registerEv@Base 12.0.3
 _ZN4ceph18mutex_debug_detail20mutex_debugging_baseC1ENSt7__cxx1112basic_stringIcSt11char_traitsIcESaIcEEEbb@Base 12.0.3
 _ZN4ceph18mutex_debug_detail20mutex_debugging_baseC2ENSt7__cxx1112basic_stringIcSt11char_traitsIcESaIcEEEbb@Base 12.0.3
 _ZN4ceph18mutex_debug_detail20mutex_debugging_baseD1Ev@Base 12.0.3
 _ZN4ceph18mutex_debug_detail20mutex_debugging_baseD2Ev@Base 12.0.3
 _ZN4ceph18shared_mutex_debug10_post_lockEv@Base 12.0.3
 _ZN4ceph18shared_mutex_debug11_pre_unlockEv@Base 12.0.3
 _ZN4ceph18shared_mutex_debug11lock_sharedEv@Base 12.0.3
 _ZN4ceph18shared_mutex_debug13unlock_sharedEv@Base 12.0.3
 _ZN4ceph18shared_mutex_debug15try_lock_sharedEv@Base 12.0.3
 _ZN4ceph18shared_mutex_debug17_post_lock_sharedEv@Base 12.0.3
 _ZN4ceph18shared_mutex_debug18_pre_unlock_sharedEv@Base 12.0.3
 _ZN4ceph18shared_mutex_debug4lockEv@Base 12.0.3
 _ZN4ceph18shared_mutex_debug6unlockEv@Base 12.0.3
 _ZN4ceph18shared_mutex_debug8try_lockEv@Base 12.0.3
 _ZN4ceph18shared_mutex_debugC1ENSt7__cxx1112basic_stringIcSt11char_traitsIcESaIcEEEbbb@Base 12.0.3
 _ZN4ceph18shared_mutex_debugC2ENSt7__cxx1112basic_stringIcSt11char_traitsIcESaIcEEEbbb@Base 12.0.3
 _ZN4ceph19__ceph_assertf_failEPKcS1_iS1_S1_z@Base 12.0.3
 _ZN4ceph23register_assert_contextEPNS_6common11CephContextE@Base 12.0.3
 _ZN4ceph24condition_variable_debug10notify_allEb@Base 12.0.3
 _ZN4ceph24condition_variable_debug10notify_oneEv@Base 12.0.3
 _ZN4ceph24condition_variable_debug11_wait_untilEPNS_18mutex_debug_detail16mutex_debug_implILb0EEEP8timespec@Base 12.0.3
 _ZN4ceph24condition_variable_debug4waitERSt11unique_lockINS_18mutex_debug_detail16mutex_debug_implILb0EEEE@Base 12.0.3
 _ZN4ceph24condition_variable_debugC1Ev@Base 12.0.3
 _ZN4ceph24condition_variable_debugC2Ev@Base 12.0.3
 _ZN4ceph24condition_variable_debugD1Ev@Base 12.0.3
 _ZN4ceph24condition_variable_debugD2Ev@Base 12.0.3
 _ZN4ceph2os11Transaction6decodeERNS_6buffer7v15_2_04list13iterator_implILb1EEE@Base 12.0.3
 _ZN4ceph4_any7op_funcI14StackSingletonEEvNS0_2opEPv@Base 12.0.3
 _ZN4ceph4_any7op_funcIN11EventCenter17AssociatedCentersEEEvNS0_2opEPv@Base 12.0.3
 _ZN4ceph4msgr2v210FrameErrorD0Ev@Base 12.0.3
 _ZN4ceph4msgr2v210FrameErrorD1Ev@Base 12.0.3
 _ZN4ceph4msgr2v210FrameErrorD2Ev@Base 12.0.3
 _ZN4ceph4msgr2v212ControlFrameINS1_13AuthDoneFrameEJmjNS_6buffer7v15_2_04listEEED1Ev@Base 12.0.3
 _ZN4ceph4msgr2v212ControlFrameINS1_13AuthDoneFrameEJmjNS_6buffer7v15_2_04listEEED2Ev@Base 12.0.3
 _ZN4ceph4msgr2v212ControlFrameINS1_14ReconnectFrameEJ16entity_addrvec_tmmmmmEED1Ev@Base 12.0.3
 _ZN4ceph4msgr2v212ControlFrameINS1_14ReconnectFrameEJ16entity_addrvec_tmmmmmEED2Ev@Base 12.0.3
 _ZN4ceph4msgr2v212ControlFrameINS1_16AuthRequestFrameEJjSt6vectorIjSaIjEENS_6buffer7v15_2_04listEEED1Ev@Base 12.0.3
 _ZN4ceph4msgr2v212ControlFrameINS1_16AuthRequestFrameEJjSt6vectorIjSaIjEENS_6buffer7v15_2_04listEEED2Ev@Base 12.0.3
 _ZN4ceph4msgr2v212ControlFrameINS1_16ClientIdentFrameEJ16entity_addrvec_t13entity_addr_tlmmmmmEED1Ev@Base 12.0.3
 _ZN4ceph4msgr2v212ControlFrameINS1_16ClientIdentFrameEJ16entity_addrvec_t13entity_addr_tlmmmmmEED2Ev@Base 12.0.3
 _ZN4ceph4msgr2v212ControlFrameINS1_16ServerIdentFrameEJ16entity_addrvec_tlmmmmmEED1Ev@Base 12.0.3
 _ZN4ceph4msgr2v212ControlFrameINS1_16ServerIdentFrameEJ16entity_addrvec_tlmmmmmEED2Ev@Base 12.0.3
 _ZN4ceph4msgr2v212ControlFrameINS1_18AuthBadMethodFrameEJjiSt6vectorIjSaIjEES6_EED1Ev@Base 12.0.3
 _ZN4ceph4msgr2v212ControlFrameINS1_18AuthBadMethodFrameEJjiSt6vectorIjSaIjEES6_EED2Ev@Base 12.0.3
 _ZN4ceph4msgr2v212ControlFrameINS1_18AuthReplyMoreFrameEJNS_6buffer7v15_2_04listEEED1Ev@Base 12.0.3
 _ZN4ceph4msgr2v212ControlFrameINS1_18AuthReplyMoreFrameEJNS_6buffer7v15_2_04listEEED2Ev@Base 12.0.3
 _ZN4ceph4msgr2v212ControlFrameINS1_20AuthRequestMoreFrameEJNS_6buffer7v15_2_04listEEED1Ev@Base 12.0.3
 _ZN4ceph4msgr2v212ControlFrameINS1_20AuthRequestMoreFrameEJNS_6buffer7v15_2_04listEEED2Ev@Base 12.0.3
 _ZN4ceph4msgr2v214FrameAssembler14assemble_frameENS1_3TagEPNS_6buffer7v15_2_04listEPKtm@Base 12.0.3
 _ZN4ceph4msgr2v214FrameAssembler20disassemble_preambleERNS_6buffer7v15_2_04listE@Base 12.0.3
 _ZN4ceph4msgr2v25FrameINS1_10HelloFrameEJLt8EEE10alignmentsE@Base 12.0.3
 _ZN4ceph4msgr2v25FrameINS1_10ResetFrameEJLt8EEE10alignmentsE@Base 12.0.3
 _ZN4ceph4msgr2v25FrameINS1_10RetryFrameEJLt8EEE10alignmentsE@Base 12.0.3
 _ZN4ceph4msgr2v25FrameINS1_12MessageFrameEJLt8ELt8ELt8ELt4096EEE10alignmentsE@Base 12.0.3
 _ZN4ceph4msgr2v25FrameINS1_13AuthDoneFrameEJLt8EEE10alignmentsE@Base 12.0.3
 _ZN4ceph4msgr2v25FrameINS1_14KeepAliveFrameEJLt8EEE10alignmentsE@Base 12.0.3
 _ZN4ceph4msgr2v25FrameINS1_14ReconnectFrameEJLt8EEE10alignmentsE@Base 12.0.3
 _ZN4ceph4msgr2v25FrameINS1_16AuthRequestFrameEJLt8EEE10alignmentsE@Base 12.0.3
 _ZN4ceph4msgr2v25FrameINS1_16ClientIdentFrameEJLt8EEE10alignmentsE@Base 12.0.3
 _ZN4ceph4msgr2v25FrameINS1_16ReconnectOkFrameEJLt8EEE10alignmentsE@Base 12.0.3
 _ZN4ceph4msgr2v25FrameINS1_16RetryGlobalFrameEJLt8EEE10alignmentsE@Base 12.0.3
 _ZN4ceph4msgr2v25FrameINS1_16ServerIdentFrameEJLt8EEE10alignmentsE@Base 12.0.3
 _ZN4ceph4msgr2v25FrameINS1_17KeepAliveFrameAckEJLt8EEE10alignmentsE@Base 12.0.3
 _ZN4ceph4msgr2v25FrameINS1_18AuthBadMethodFrameEJLt8EEE10alignmentsE@Base 12.0.3
 _ZN4ceph4msgr2v25FrameINS1_18AuthReplyMoreFrameEJLt8EEE10alignmentsE@Base 12.0.3
 _ZN4ceph4msgr2v25FrameINS1_18AuthSignatureFrameEJLt8EEE10alignmentsE@Base 12.0.3
 _ZN4ceph4msgr2v25FrameINS1_20AuthRequestMoreFrameEJLt8EEE10alignmentsE@Base 12.0.3
 _ZN4ceph4msgr2v25FrameINS1_25IdentMissingFeaturesFrameEJLt8EEE10alignmentsE@Base 12.0.3
 _ZN4ceph4msgr2v25FrameINS1_8AckFrameEJLt8EEE10alignmentsE@Base 12.0.3
 _ZN4ceph4msgr2v25FrameINS1_9WaitFrameEJLt8EEE10alignmentsE@Base 12.0.3
 _ZN4ceph4msgr2v2lsERSoRKNS1_14FrameAssemblerE@Base 12.0.3
 _ZN4ceph4util13version_1_0_36detail13randomize_rngISt26linear_congruential_engineImLm16807ELm0ELm2147483647EEEEvv@Base 12.0.3
 _ZN4ceph4util13version_1_0_36detail22generate_random_numberImSt24uniform_int_distributionImESt26linear_congruential_engineImLm16807ELm0ELm2147483647EEEET_S8_S8_@Base 12.0.3
 _ZN4ceph4util13version_1_0_36detail6engineISt26linear_congruential_engineImLm16807ELm0ELm2147483647EEEERT_v@Base 12.0.3
 _ZN4ceph5crush13CrushLocation15init_on_startupEv@Base 12.0.3
 _ZN4ceph5crush13CrushLocation16update_from_confEv@Base 12.0.3
 _ZN4ceph5crush13CrushLocation16update_from_hookEv@Base 12.0.3
 _ZN4ceph5crush13CrushLocation6_parseERKNSt7__cxx1112basic_stringIcSt11char_traitsIcESaIcEEE@Base 12.0.3
 _ZN4ceph5crushlsERSoRKNS0_13CrushLocationE@Base 12.0.3
 _ZN4ceph5timerINS_11time_detail17coarse_mono_clockEE12cancel_eventEm@Base 12.0.3
 _ZN4ceph5timerINS_11time_detail17coarse_mono_clockEE12timer_threadEv@Base 12.0.3
 _ZN4ceph5timerINS_11time_detail17coarse_mono_clockEED1Ev@Base 12.0.3
 _ZN4ceph5timerINS_11time_detail17coarse_mono_clockEED2Ev@Base 12.0.3
 _ZN4ceph6PluginD0Ev@Base 12.0.3
 _ZN4ceph6PluginD1Ev@Base 12.0.3
 _ZN4ceph6PluginD2Ev@Base 12.0.3
 _ZN4ceph6buffer7v15_2_010claim_charEjPc@Base 12.0.3
 _ZN4ceph6buffer7v15_2_010error_codeC1Ei@Base 12.0.3
 _ZN4ceph6buffer7v15_2_010error_codeC2Ei@Base 12.0.3
 _ZN4ceph6buffer7v15_2_010error_codeD0Ev@Base 12.0.3
 _ZN4ceph6buffer7v15_2_010error_codeD1Ev@Base 12.0.3
 _ZN4ceph6buffer7v15_2_010error_codeD2Ev@Base 12.0.3
 _ZN4ceph6buffer7v15_2_010raw_malloc11clone_emptyEv@Base 12.0.3
 _ZN4ceph6buffer7v15_2_010raw_mallocD0Ev@Base 12.0.3
 _ZN4ceph6buffer7v15_2_010raw_mallocD1Ev@Base 12.0.3
 _ZN4ceph6buffer7v15_2_010raw_mallocD2Ev@Base 12.0.3
 _ZN4ceph6buffer7v15_2_010raw_mallocdlEPv@Base 12.0.3
 _ZN4ceph6buffer7v15_2_010raw_mallocnwEm@Base 12.0.3
 _ZN4ceph6buffer7v15_2_010raw_static11clone_emptyEv@Base 12.0.3
 _ZN4ceph6buffer7v15_2_010raw_staticD0Ev@Base 12.0.3
 _ZN4ceph6buffer7v15_2_010raw_staticD1Ev@Base 12.0.3
 _ZN4ceph6buffer7v15_2_010raw_staticD2Ev@Base 12.0.3
 _ZN4ceph6buffer7v15_2_010raw_staticdlEPv@Base 12.0.3
 _ZN4ceph6buffer7v15_2_010raw_staticnwEm@Base 12.0.3
 _ZN4ceph6buffer7v15_2_012claim_bufferEjPc7deleter@Base 12.0.3
 _ZN4ceph6buffer7v15_2_012claim_mallocEjPc@Base 12.0.3
 _ZN4ceph6buffer7v15_2_012raw_combined11clone_emptyEv@Base 12.0.3
 _ZN4ceph6buffer7v15_2_012raw_combinedD0Ev@Base 12.0.3
 _ZN4ceph6buffer7v15_2_012raw_combinedD1Ev@Base 12.0.3
 _ZN4ceph6buffer7v15_2_012raw_combinedD2Ev@Base 12.0.3
 _ZN4ceph6buffer7v15_2_013create_mallocEj@Base 12.0.3
 _ZN4ceph6buffer7v15_2_013create_staticEjPc@Base 12.0.3
 _ZN4ceph6buffer7v15_2_013end_of_bufferD0Ev@Base 12.0.3
 _ZN4ceph6buffer7v15_2_013end_of_bufferD1Ev@Base 12.0.3
 _ZN4ceph6buffer7v15_2_013end_of_bufferD2Ev@Base 12.0.3
 _ZN4ceph6buffer7v15_2_014create_alignedEjj@Base 12.0.3
 _ZN4ceph6buffer7v15_2_014get_cached_crcEv@Base 12.0.3
 _ZN4ceph6buffer7v15_2_014get_missed_crcEv@Base 12.0.3
 _ZN4ceph6buffer7v15_2_015malformed_inputD0Ev@Base 12.0.3
 _ZN4ceph6buffer7v15_2_015malformed_inputD1Ev@Base 12.0.3
 _ZN4ceph6buffer7v15_2_015malformed_inputD2Ev@Base 12.0.3
 _ZN4ceph6buffer7v15_2_016raw_claim_buffer11clone_emptyEv@Base 12.0.3
 _ZN4ceph6buffer7v15_2_016raw_claim_bufferD0Ev@Base 12.0.3
 _ZN4ceph6buffer7v15_2_016raw_claim_bufferD1Ev@Base 12.0.3
 _ZN4ceph6buffer7v15_2_016raw_claim_bufferD2Ev@Base 12.0.3
 _ZN4ceph6buffer7v15_2_016raw_claimed_char11clone_emptyEv@Base 12.0.3
 _ZN4ceph6buffer7v15_2_016raw_claimed_charD0Ev@Base 12.0.3
 _ZN4ceph6buffer7v15_2_016raw_claimed_charD1Ev@Base 12.0.3
 _ZN4ceph6buffer7v15_2_016raw_claimed_charD2Ev@Base 12.0.3
 _ZN4ceph6buffer7v15_2_016raw_claimed_chardlEPv@Base 12.0.3
 _ZN4ceph6buffer7v15_2_016raw_claimed_charnwEm@Base 12.0.3
 _ZN4ceph6buffer7v15_2_016track_cached_crcEb@Base 12.0.3
 _ZN4ceph6buffer7v15_2_017create_in_mempoolEji@Base 12.0.3
 _ZN4ceph6buffer7v15_2_017raw_posix_aligned11clone_emptyEv@Base 12.0.3
 _ZN4ceph6buffer7v15_2_017raw_posix_alignedD0Ev@Base 12.0.3
 _ZN4ceph6buffer7v15_2_017raw_posix_alignedD1Ev@Base 12.0.3
 _ZN4ceph6buffer7v15_2_017raw_posix_alignedD2Ev@Base 12.0.3
 _ZN4ceph6buffer7v15_2_017raw_posix_aligneddlEPv@Base 12.0.3
 _ZN4ceph6buffer7v15_2_017raw_posix_alignednwEm@Base 12.0.3
 _ZN4ceph6buffer7v15_2_019create_page_alignedEj@Base 12.0.3
 _ZN4ceph6buffer7v15_2_023get_cached_crc_adjustedEv@Base 12.0.3
 _ZN4ceph6buffer7v15_2_025create_aligned_in_mempoolEjji@Base 12.0.3
 _ZN4ceph6buffer7v15_2_025create_small_page_alignedEj@Base 12.0.3
 _ZN4ceph6buffer7v15_2_03ptr12append_zerosEj@Base 12.0.3
 _ZN4ceph6buffer7v15_2_03ptr13iterator_implILb1EEC1EPKS2_mb@Base 12.0.3
 _ZN4ceph6buffer7v15_2_03ptr13iterator_implILb1EEC2EPKS2_mb@Base 12.0.3
 _ZN4ceph6buffer7v15_2_03ptr19reassign_to_mempoolEi@Base 12.0.3
 _ZN4ceph6buffer7v15_2_03ptr21try_assign_to_mempoolEi@Base 12.0.3
 _ZN4ceph6buffer7v15_2_03ptr4swapERS2_@Base 12.0.3
 _ZN4ceph6buffer7v15_2_03ptr4zeroEb@Base 12.0.3
 _ZN4ceph6buffer7v15_2_03ptr4zeroEjjb@Base 12.0.3
 _ZN4ceph6buffer7v15_2_03ptr5c_strEv@Base 12.0.3
 _ZN4ceph6buffer7v15_2_03ptr5cloneEv@Base 12.0.3
 _ZN4ceph6buffer7v15_2_03ptr6appendEPKcj@Base 12.0.3
 _ZN4ceph6buffer7v15_2_03ptr6appendEc@Base 12.0.3
 _ZN4ceph6buffer7v15_2_03ptr7copy_inEjjPKcb@Base 12.0.3
 _ZN4ceph6buffer7v15_2_03ptr7releaseEv@Base 12.0.3
 _ZN4ceph6buffer7v15_2_03ptr9end_c_strEv@Base 12.0.3
 _ZN4ceph6buffer7v15_2_03ptrC1ENS_19unique_leakable_ptrINS1_3rawEEE@Base 12.0.3
 _ZN4ceph6buffer7v15_2_03ptrC1EOS2_@Base 12.0.3
 _ZN4ceph6buffer7v15_2_03ptrC1EPKcj@Base 12.0.3
 _ZN4ceph6buffer7v15_2_03ptrC1ERKS2_@Base 12.0.3
 _ZN4ceph6buffer7v15_2_03ptrC1ERKS2_NS_19unique_leakable_ptrINS1_3rawEEE@Base 12.0.3
 _ZN4ceph6buffer7v15_2_03ptrC1ERKS2_jj@Base 12.0.3
 _ZN4ceph6buffer7v15_2_03ptrC1Ej@Base 12.0.3
 _ZN4ceph6buffer7v15_2_03ptrC2ENS_19unique_leakable_ptrINS1_3rawEEE@Base 12.0.3
 _ZN4ceph6buffer7v15_2_03ptrC2EOS2_@Base 12.0.3
 _ZN4ceph6buffer7v15_2_03ptrC2EPKcj@Base 12.0.3
 _ZN4ceph6buffer7v15_2_03ptrC2ERKS2_@Base 12.0.3
 _ZN4ceph6buffer7v15_2_03ptrC2ERKS2_NS_19unique_leakable_ptrINS1_3rawEEE@Base 12.0.3
 _ZN4ceph6buffer7v15_2_03ptrC2ERKS2_jj@Base 12.0.3
 _ZN4ceph6buffer7v15_2_03ptrC2Ej@Base 12.0.3
 _ZN4ceph6buffer7v15_2_03ptrD1Ev@Base 12.0.3
 _ZN4ceph6buffer7v15_2_03ptrD2Ev@Base 12.0.3
 _ZN4ceph6buffer7v15_2_03ptraSEOS2_@Base 12.0.3
 _ZN4ceph6buffer7v15_2_03ptraSERKS2_@Base 12.0.3
 _ZN4ceph6buffer7v15_2_03ptrixEj@Base 12.0.3
 _ZN4ceph6buffer7v15_2_03rawD0Ev@Base 12.0.3
 _ZN4ceph6buffer7v15_2_03rawD1Ev@Base 12.0.3
 _ZN4ceph6buffer7v15_2_03rawD2Ev@Base 12.0.3
 _ZN4ceph6buffer7v15_2_04copyEPKcj@Base 12.0.3
 _ZN4ceph6buffer7v15_2_04list10pread_fileEPKcmmPNSt7__cxx1112basic_stringIcSt11char_traitsIcESaIcEEE@Base 12.0.3
 _ZN4ceph6buffer7v15_2_04list10write_fileEPKci@Base 12.0.3
 _ZN4ceph6buffer7v15_2_04list11append_holeEj@Base 12.0.3
 _ZN4ceph6buffer7v15_2_04list11append_zeroEj@Base 12.0.3
 _ZN4ceph6buffer7v15_2_04list12claim_appendERS2_@Base 12.0.3
 _ZN4ceph6buffer7v15_2_04list12prepend_zeroEj@Base 12.0.3
 _ZN4ceph6buffer7v15_2_04list13decode_base64ERS2_@Base 12.0.3
 _ZN4ceph6buffer7v15_2_04list13encode_base64ERS2_@Base 12.0.3
 _ZN4ceph6buffer7v15_2_04list13iterator_implILb0EE12copy_shallowEjRNS1_3ptrE@Base 12.0.3
 _ZN4ceph6buffer7v15_2_04list13iterator_implILb0EE19get_ptr_and_advanceEmPPKc@Base 12.0.3
 _ZN4ceph6buffer7v15_2_04list13iterator_implILb0EE4copyEjPc@Base 12.0.3
 _ZN4ceph6buffer7v15_2_04list13iterator_implILb0EE4copyEjRNS1_3ptrE@Base 12.0.3
 _ZN4ceph6buffer7v15_2_04list13iterator_implILb0EE4copyEjRNSt7__cxx1112basic_stringIcSt11char_traitsIcESaIcEEE@Base 12.0.3
 _ZN4ceph6buffer7v15_2_04list13iterator_implILb0EE4copyEjRS2_@Base 12.0.3
 _ZN4ceph6buffer7v15_2_04list13iterator_implILb0EE4seekEj@Base 12.0.3
 _ZN4ceph6buffer7v15_2_04list13iterator_implILb0EE6crc32cEmj@Base 12.0.3
 _ZN4ceph6buffer7v15_2_04list13iterator_implILb0EE8copy_allERS2_@Base 12.0.3
 _ZN4ceph6buffer7v15_2_04list13iterator_implILb0EE9copy_deepEjRNS1_3ptrE@Base 12.0.3
 _ZN4ceph6buffer7v15_2_04list13iterator_implILb0EEC1EPS2_j@Base 12.0.3
 _ZN4ceph6buffer7v15_2_04list13iterator_implILb0EEC1EPS2_jNS2_9buffers_t16buffers_iteratorINS1_8ptr_nodeEEEj@Base 12.0.3
 _ZN4ceph6buffer7v15_2_04list13iterator_implILb0EEC1ERKNS2_8iteratorE@Base 12.0.3
 _ZN4ceph6buffer7v15_2_04list13iterator_implILb0EEC1Ev@Base 12.0.3
 _ZN4ceph6buffer7v15_2_04list13iterator_implILb0EEC2EPS2_j@Base 12.0.3
 _ZN4ceph6buffer7v15_2_04list13iterator_implILb0EEC2EPS2_jNS2_9buffers_t16buffers_iteratorINS1_8ptr_nodeEEEj@Base 12.0.3
 _ZN4ceph6buffer7v15_2_04list13iterator_implILb0EEC2ERKNS2_8iteratorE@Base 12.0.3
 _ZN4ceph6buffer7v15_2_04list13iterator_implILb0EEC2Ev@Base 12.0.3
 _ZN4ceph6buffer7v15_2_04list13iterator_implILb0EEpLEj@Base 12.0.3
 _ZN4ceph6buffer7v15_2_04list13iterator_implILb0EEppEv@Base 12.0.3
 _ZN4ceph6buffer7v15_2_04list13iterator_implILb1EE12copy_shallowEjRNS1_3ptrE@Base 12.0.3
 _ZN4ceph6buffer7v15_2_04list13iterator_implILb1EE19get_ptr_and_advanceEmPPKc@Base 12.0.3
 _ZN4ceph6buffer7v15_2_04list13iterator_implILb1EE4copyEjPc@Base 12.0.3
 _ZN4ceph6buffer7v15_2_04list13iterator_implILb1EE4copyEjRNS1_3ptrE@Base 12.0.3
 _ZN4ceph6buffer7v15_2_04list13iterator_implILb1EE4copyEjRNSt7__cxx1112basic_stringIcSt11char_traitsIcESaIcEEE@Base 12.0.3
 _ZN4ceph6buffer7v15_2_04list13iterator_implILb1EE4copyEjRS2_@Base 12.0.3
 _ZN4ceph6buffer7v15_2_04list13iterator_implILb1EE4seekEj@Base 12.0.3
 _ZN4ceph6buffer7v15_2_04list13iterator_implILb1EE6crc32cEmj@Base 12.0.3
 _ZN4ceph6buffer7v15_2_04list13iterator_implILb1EE8copy_allERS2_@Base 12.0.3
 _ZN4ceph6buffer7v15_2_04list13iterator_implILb1EE9copy_deepEjRNS1_3ptrE@Base 12.0.3
 _ZN4ceph6buffer7v15_2_04list13iterator_implILb1EEC1EPKS2_j@Base 12.0.3
 _ZN4ceph6buffer7v15_2_04list13iterator_implILb1EEC1EPKS2_jNS2_9buffers_t16buffers_iteratorIKNS1_8ptr_nodeEEEj@Base 12.0.3
 _ZN4ceph6buffer7v15_2_04list13iterator_implILb1EEC1ERKNS2_8iteratorE@Base 12.0.3
 _ZN4ceph6buffer7v15_2_04list13iterator_implILb1EEC1Ev@Base 12.0.3
 _ZN4ceph6buffer7v15_2_04list13iterator_implILb1EEC2EPKS2_j@Base 12.0.3
 _ZN4ceph6buffer7v15_2_04list13iterator_implILb1EEC2EPKS2_jNS2_9buffers_t16buffers_iteratorIKNS1_8ptr_nodeEEEj@Base 12.0.3
 _ZN4ceph6buffer7v15_2_04list13iterator_implILb1EEC2ERKNS2_8iteratorE@Base 12.0.3
 _ZN4ceph6buffer7v15_2_04list13iterator_implILb1EEC2Ev@Base 12.0.3
 _ZN4ceph6buffer7v15_2_04list13iterator_implILb1EEpLEj@Base 12.0.3
 _ZN4ceph6buffer7v15_2_04list13iterator_implILb1EEppEv@Base 12.0.3
 _ZN4ceph6buffer7v15_2_04list14invalidate_crcEv@Base 12.0.3
 _ZN4ceph6buffer7v15_2_04list15rebuild_alignedEj@Base 12.0.3
 _ZN4ceph6buffer7v15_2_04list15static_from_memEPcm@Base 12.0.3
 _ZN4ceph6buffer7v15_2_04list17always_empty_bptrE@Base 12.0.3
 _ZN4ceph6buffer7v15_2_04list18static_from_stringERNSt7__cxx1112basic_stringIcSt11char_traitsIcESaIcEEE@Base 12.0.3
 _ZN4ceph6buffer7v15_2_04list19reassign_to_mempoolEi@Base 12.0.3
 _ZN4ceph6buffer7v15_2_04list19refill_append_spaceEj@Base 12.0.3
 _ZN4ceph6buffer7v15_2_04list19static_from_cstringEPc@Base 12.0.3
 _ZN4ceph6buffer7v15_2_04list20rebuild_page_alignedEv@Base 12.0.3
 _ZN4ceph6buffer7v15_2_04list21try_assign_to_mempoolEi@Base 12.0.3
 _ZN4ceph6buffer7v15_2_04list22claim_append_piecewiseERS2_@Base 12.0.3
 _ZN4ceph6buffer7v15_2_04list23obtain_contiguous_spaceEj@Base 12.0.3
 _ZN4ceph6buffer7v15_2_04list31rebuild_aligned_size_and_memoryEjjj@Base 12.0.3
 _ZN4ceph6buffer7v15_2_04list4swapERS2_@Base 12.0.3
 _ZN4ceph6buffer7v15_2_04list4zeroEjj@Base 12.0.3
 _ZN4ceph6buffer7v15_2_04list4zeroEv@Base 12.0.3
 _ZN4ceph6buffer7v15_2_04list5c_strEv@Base 12.0.3
 _ZN4ceph6buffer7v15_2_04list5claimERS2_@Base 12.0.3
 _ZN4ceph6buffer7v15_2_04list6appendEONS1_3ptrE@Base 12.0.3
 _ZN4ceph6buffer7v15_2_04list6appendEPKcj@Base 12.0.3
 _ZN4ceph6buffer7v15_2_04list6appendERKNS1_3ptrE@Base 12.0.3
 _ZN4ceph6buffer7v15_2_04list6appendERKNS1_3ptrEjj@Base 12.0.3
 _ZN4ceph6buffer7v15_2_04list6appendERKS2_@Base 12.0.3
 _ZN4ceph6buffer7v15_2_04list6appendERSi@Base 12.0.3
 _ZN4ceph6buffer7v15_2_04list6appendEc@Base 12.0.3
 _ZN4ceph6buffer7v15_2_04list6spliceEjjPS2_@Base 12.0.3
 _ZN4ceph6buffer7v15_2_04list7read_fdEim@Base 12.0.3
 _ZN4ceph6buffer7v15_2_04list7rebuildESt10unique_ptrINS1_8ptr_nodeENS4_8disposerEE@Base 12.0.3
 _ZN4ceph6buffer7v15_2_04list7rebuildEv@Base 12.0.3
 _ZN4ceph6buffer7v15_2_04list7reserveEm@Base 12.0.3
 _ZN4ceph6buffer7v15_2_04list8iterator7copy_inEjPKcb@Base 12.0.3
 _ZN4ceph6buffer7v15_2_04list8iterator7copy_inEjRKS2_@Base 12.0.3
 _ZN4ceph6buffer7v15_2_04list8iteratorC1EPS2_j@Base 12.0.3
 _ZN4ceph6buffer7v15_2_04list8iteratorC1EPS2_jNS2_9buffers_t16buffers_iteratorINS1_8ptr_nodeEEEj@Base 12.0.3
 _ZN4ceph6buffer7v15_2_04list8iteratorC2EPS2_j@Base 12.0.3
 _ZN4ceph6buffer7v15_2_04list8iteratorC2EPS2_jNS2_9buffers_t16buffers_iteratorINS1_8ptr_nodeEEEj@Base 12.0.3
 _ZN4ceph6buffer7v15_2_04list9read_fileEPKcPNSt7__cxx1112basic_stringIcSt11char_traitsIcESaIcEEE@Base 12.0.3
 _ZN4ceph6buffer7v15_2_04list9substr_ofERKS2_jj@Base 12.0.3
 _ZN4ceph6buffer7v15_2_05errorD0Ev@Base 12.0.3
 _ZN4ceph6buffer7v15_2_05errorD1Ev@Base 12.0.3
 _ZN4ceph6buffer7v15_2_05errorD2Ev@Base 12.0.3
 _ZN4ceph6buffer7v15_2_06createEj@Base 12.0.3
 _ZN4ceph6buffer7v15_2_08ptr_node20create_hypercombinedENS_19unique_leakable_ptrINS1_3rawEEE@Base 12.0.3
 _ZN4ceph6buffer7v15_2_08ptr_node24dispose_if_hypercombinedEPS2_@Base 12.0.3
 _ZN4ceph6buffer7v15_2_08ptr_node6clonerclERKS2_@Base 12.0.3
 _ZN4ceph6buffer7v15_2_08raw_char11clone_emptyEv@Base 12.0.3
 _ZN4ceph6buffer7v15_2_08raw_charD0Ev@Base 12.0.3
 _ZN4ceph6buffer7v15_2_08raw_charD1Ev@Base 12.0.3
 _ZN4ceph6buffer7v15_2_08raw_charD2Ev@Base 12.0.3
 _ZN4ceph6buffer7v15_2_08raw_chardlEPv@Base 12.0.3
 _ZN4ceph6buffer7v15_2_08raw_charnwEm@Base 12.0.3
 _ZN4ceph6buffer7v15_2_09bad_allocD0Ev@Base 12.0.3
 _ZN4ceph6buffer7v15_2_09bad_allocD1Ev@Base 12.0.3
 _ZN4ceph6buffer7v15_2_09bad_allocD2Ev@Base 12.0.3
 _ZN4ceph6bufferlsERSoRKNS0_7v15_2_03ptrE@Base 12.0.3
 _ZN4ceph6bufferlsERSoRKNS0_7v15_2_03rawE@Base 12.0.3
 _ZN4ceph6bufferlsERSoRKNS0_7v15_2_04listE@Base 12.0.3
 _ZN4ceph6bufferlsERSoRKNS0_7v15_2_05errorE@Base 12.0.3
 _ZN4ceph6common10cmd_getvalERKSt3mapINSt7__cxx1112basic_stringIcSt11char_traitsIcESaIcEEEN5boost7variantIS7_JbldSt6vectorIS7_SaIS7_EESA_IlSaIlEESA_IdSaIdEEEEESt4lessIvESaISt4pairIKS7_SH_EEERSL_Rb@Base 12.0.3
 _ZN4ceph6common10cmd_getvalINSt7__cxx1112basic_stringIcSt11char_traitsIcESaIcEEEEEbRKSt3mapIS7_N5boost7variantIS7_JbldSt6vectorIS7_SaIS7_EESB_IlSaIlEESB_IdSaIdEEEEESt4lessIvESaISt4pairIKS7_SI_EEERSM_RT_@Base 12.0.3
 _ZN4ceph6common10cmd_getvalINSt7__cxx1112basic_stringIcSt11char_traitsIcESaIcEEEEEbRKSt3mapIS7_N5boost7variantIS7_JbldSt6vectorIS7_SaIS7_EESB_IlSaIlEESB_IdSaIdEEEEESt4lessIvESaISt4pairIKS7_SI_EEERSM_RT_RKST_@Base 12.0.3
 _ZN4ceph6common10cmd_getvalISt6vectorINSt7__cxx1112basic_stringIcSt11char_traitsIcESaIcEEESaIS8_EEEEbRKSt3mapIS8_N5boost7variantIS8_JbldSA_S2_IlSaIlEES2_IdSaIdEEEEESt4lessIvESaISt4pairIKS8_SI_EEERSM_RT_@Base 12.0.3
 _ZN4ceph6common10cmd_getvalISt6vectorIdSaIdEEEEbRKSt3mapINSt7__cxx1112basic_stringIcSt11char_traitsIcESaIcEEEN5boost7variantISB_JbldS2_ISB_SaISB_EES2_IlSaIlEES4_EEESt4lessIvESaISt4pairIKSB_SI_EEERSM_RT_@Base 12.0.3
 _ZN4ceph6common10cmd_getvalISt6vectorIlSaIlEEEEbRKSt3mapINSt7__cxx1112basic_stringIcSt11char_traitsIcESaIcEEEN5boost7variantISB_JbldS2_ISB_SaISB_EES4_S2_IdSaIdEEEEESt4lessIvESaISt4pairIKSB_SI_EEERSM_RT_@Base 12.0.3
 _ZN4ceph6common10cmd_getvalIdEEbRKSt3mapINSt7__cxx1112basic_stringIcSt11char_traitsIcESaIcEEEN5boost7variantIS8_JbldSt6vectorIS8_SaIS8_EESB_IlSaIlEESB_IdSaIdEEEEESt4lessIvESaISt4pairIKS8_SI_EEERSM_RT_@Base 12.0.3
 _ZN4ceph6common10cmd_getvalIlEEbRKSt3mapINSt7__cxx1112basic_stringIcSt11char_traitsIcESaIcEEEN5boost7variantIS8_JbldSt6vectorIS8_SaIS8_EESB_IlSaIlEESB_IdSaIdEEEEESt4lessIvESaISt4pairIKS8_SI_EEERSM_RT_@Base 12.0.3
 _ZN4ceph6common10cmd_getvalIlEEbRKSt3mapINSt7__cxx1112basic_stringIcSt11char_traitsIcESaIcEEEN5boost7variantIS8_JbldSt6vectorIS8_SaIS8_EESB_IlSaIlEESB_IdSaIdEEEEESt4lessIvESaISt4pairIKS8_SI_EEERSM_RT_RKST_@Base 12.0.3
 _ZN4ceph6common11CephContext10do_commandESt17basic_string_viewIcSt11char_traitsIcEERKSt3mapINSt7__cxx1112basic_stringIcS4_SaIcEEEN5boost7variantISA_JbldSt6vectorISA_SaISA_EESD_IlSaIlEESD_IdSaIdEEEEESt4lessIvESaISt4pairIKSA_SK_EEEPNS_9FormatterERSoPNS_6buffer7v15_2_04listE@Base 12.0.3
 _ZN4ceph6common11CephContext11_do_commandESt17basic_string_viewIcSt11char_traitsIcEERKSt3mapINSt7__cxx1112basic_stringIcS4_SaIcEEEN5boost7variantISA_JbldSt6vectorISA_SaISA_EESD_IlSaIlEESD_IdSaIdEEEEESt4lessIvESaISt4pairIKSA_SK_EEEPNS_9FormatterERSoPNS_6buffer7v15_2_04listE@Base 12.0.3
 _ZN4ceph6common11CephContext11init_cryptoEv@Base 12.0.3
 _ZN4ceph6common11CephContext11reopen_logsEv@Base 12.0.3
 _ZN4ceph6common11CephContext13set_mon_addrsERK6MonMap@Base 12.0.3
 _ZN4ceph6common11CephContext14set_init_flagsEi@Base 12.0.3
 _ZN4ceph6common11CephContext15notify_pre_forkEv@Base 12.0.3
 _ZN4ceph6common11CephContext15shutdown_cryptoEv@Base 12.0.3
 _ZN4ceph6common11CephContext16get_admin_socketEv@Base 12.0.3
 _ZN4ceph6common11CephContext16notify_post_forkEv@Base 12.0.3
 _ZN4ceph6common11CephContext18get_crypto_handlerEi@Base 12.0.3
 _ZN4ceph6common11CephContext19join_service_threadEv@Base 12.0.3
 _ZN4ceph6common11CephContext20_enable_perf_counterEv@Base 12.0.3
 _ZN4ceph6common11CephContext20_refresh_perf_valuesEv@Base 12.0.3
 _ZN4ceph6common11CephContext20start_service_threadEv@Base 12.0.3
 _ZN4ceph6common11CephContext21_disable_perf_counterEv@Base 12.0.3
 _ZN4ceph6common11CephContext27get_perfcounters_collectionEv@Base 12.0.3
 _ZN4ceph6common11CephContext33lookup_or_create_singleton_objectI14StackSingletonJRPS1_EEERT_St17basic_string_viewIcSt11char_traitsIcEEbDpOT0_@Base 12.0.3
 _ZN4ceph6common11CephContext33lookup_or_create_singleton_objectIN11EventCenter17AssociatedCentersEJEEERT_St17basic_string_viewIcSt11char_traitsIcEEbDpOT0_@Base 12.0.3
 _ZN4ceph6common11CephContext34check_experimental_feature_enabledERKNSt7__cxx1112basic_stringIcSt11char_traitsIcESaIcEEE@Base 12.0.3
 _ZN4ceph6common11CephContext34check_experimental_feature_enabledERKNSt7__cxx1112basic_stringIcSt11char_traitsIcESaIcEEEPSo@Base 12.0.3
 _ZN4ceph6common11CephContext3putEv@Base 12.0.3
 _ZN4ceph6common11CephContextC1Ej18code_environment_ti@Base 12.0.3
 _ZN4ceph6common11CephContextC2Ej18code_environment_ti@Base 12.0.3
 _ZN4ceph6common11CephContextD1Ev@Base 12.0.3
 _ZN4ceph6common11CephContextD2Ev@Base 12.0.3
 _ZN4ceph6common11ConfigProxy12set_mon_valsEPNS0_11CephContextERKSt3mapINSt7__cxx1112basic_stringIcSt11char_traitsIcESaIcEEESA_St4lessIvESaISt4pairIKSA_SA_EEESt8functionIFbRSE_SL_EE@Base 12.0.3
 _ZN4ceph6common11ConfigProxy13apply_changesEPSo@Base 12.0.3
 _ZN4ceph6common11ConfigProxyC1Eb@Base 12.0.3
 _ZN4ceph6common11ConfigProxyC2Eb@Base 12.0.3
 _ZN4ceph6common11bad_cmd_getC1ERKNSt7__cxx1112basic_stringIcSt11char_traitsIcESaIcEEERKSt3mapIS7_N5boost7variantIS7_JbldSt6vectorIS7_SaIS7_EESD_IlSaIlEESD_IdSaIdEEEEESt4lessIvESaISt4pairIS8_SK_EEE@Base 12.0.3
 _ZN4ceph6common11bad_cmd_getC2ERKNSt7__cxx1112basic_stringIcSt11char_traitsIcESaIcEEERKSt3mapIS7_N5boost7variantIS7_JbldSt6vectorIS7_SaIS7_EESD_IlSaIlEESD_IdSaIdEEEEESt4lessIvESaISt4pairIS8_SK_EEE@Base 12.0.3
 _ZN4ceph6common11bad_cmd_getD0Ev@Base 12.0.3
 _ZN4ceph6common11bad_cmd_getD1Ev@Base 12.0.3
 _ZN4ceph6common11bad_cmd_getD2Ev@Base 12.0.3
 _ZN4ceph6common11cmdmap_dumpERKSt3mapINSt7__cxx1112basic_stringIcSt11char_traitsIcESaIcEEEN5boost7variantIS7_JbldSt6vectorIS7_SaIS7_EESA_IlSaIlEESA_IdSaIdEEEEESt4lessIvESaISt4pairIKS7_SH_EEEPNS_9FormatterE@Base 12.0.3
 _ZN4ceph6common12PerfCounters3decEim@Base 12.0.3
 _ZN4ceph6common12PerfCounters3incEim@Base 12.0.3
 _ZN4ceph6common12PerfCounters3setEim@Base 12.0.3
 _ZN4ceph6common12PerfCounters4hincEill@Base 12.0.3
 _ZN4ceph6common12PerfCounters4tincEi7utime_t@Base 12.0.3
 _ZN4ceph6common12PerfCounters4tincEiNSt6chrono8durationImSt5ratioILl1ELl1000000000EEEE@Base 12.0.3
 _ZN4ceph6common12PerfCounters4tsetEi7utime_t@Base 12.0.3
 _ZN4ceph6common12PerfCounters5resetEv@Base 12.0.3
 _ZN4ceph6common12PerfCountersC1EPNS0_11CephContextERKNSt7__cxx1112basic_stringIcSt11char_traitsIcESaIcEEEii@Base 12.0.3
 _ZN4ceph6common12PerfCountersC2EPNS0_11CephContextERKNSt7__cxx1112basic_stringIcSt11char_traitsIcESaIcEEEii@Base 12.0.3
 _ZN4ceph6common12PerfCountersD1Ev@Base 12.0.3
 _ZN4ceph6common12PerfCountersD2Ev@Base 12.0.3
 _ZN4ceph6common12parse_osd_idEPKcPSo@Base 12.0.3
 _ZN4ceph6common12validate_cmdEPNS0_11CephContextERKNSt7__cxx1112basic_stringIcSt11char_traitsIcESaIcEEERKSt3mapIS8_N5boost7variantIS8_JbldSt6vectorIS8_SaIS8_EESE_IlSaIlEESE_IdSaIdEEEEESt4lessIvESaISt4pairIS9_SL_EEERSo@Base 12.0.3
 _ZN4ceph6common14CephContextObs18handle_conf_changeERKNS0_11ConfigProxyERKSt3setINSt7__cxx1112basic_stringIcSt11char_traitsIcESaIcEEESt4lessISB_ESaISB_EE@Base 12.0.3
 _ZN4ceph6common14CephContextObsD0Ev@Base 12.0.3
 _ZN4ceph6common14CephContextObsD1Ev@Base 12.0.3
 _ZN4ceph6common14CephContextObsD2Ev@Base 12.0.3
 _ZN4ceph6common14handle_bad_getEPNS0_11CephContextERKNSt7__cxx1112basic_stringIcSt11char_traitsIcESaIcEEEPKc@Base 12.0.3
 _ZN4ceph6common14parse_pos_longEPKcPSo@Base 12.0.3
 _ZN4ceph6common15CephContextHook4callESt17basic_string_viewIcSt11char_traitsIcEERKSt3mapINSt7__cxx1112basic_stringIcS4_SaIcEEEN5boost7variantISA_JbldSt6vectorISA_SaISA_EESD_IlSaIlEESD_IdSaIdEEEEESt4lessIvESaISt4pairIKSA_SK_EEEPNS_9FormatterERSoRNS_6buffer7v15_2_04listE@Base 12.0.3
 _ZN4ceph6common15CephContextHookD0Ev@Base 12.0.3
 _ZN4ceph6common15CephContextHookD1Ev@Base 12.0.3
 _ZN4ceph6common15CephContextHookD2Ev@Base 12.0.3
 _ZN4ceph6common16RefCountedObjectD0Ev@Base 12.0.3
 _ZN4ceph6common16RefCountedObjectD1Ev@Base 12.0.3
 _ZN4ceph6common16RefCountedObjectD2Ev@Base 12.0.3
 _ZN4ceph6common16cmddesc_get_argsESt17basic_string_viewIcSt11char_traitsIcEE@Base 12.0.3
 _ZN4ceph6common16cmdmap_from_jsonERKSt6vectorINSt7__cxx1112basic_stringIcSt11char_traitsIcESaIcEEESaIS7_EEPSt3mapIS7_N5boost7variantIS7_JbldS9_S1_IlSaIlEES1_IdSaIdEEEEESt4lessIvESaISt4pairIKS7_SJ_EEERNS2_18basic_stringstreamIcS5_S6_EE@Base 12.0.3
 _ZN4ceph6common16dump_cmd_to_jsonEPNS_9FormatterEmRKNSt7__cxx1112basic_stringIcSt11char_traitsIcESaIcEEE@Base 12.0.3
 _ZN4ceph6common18cmddesc_get_prefixB5cxx11ERKSt17basic_string_viewIcSt11char_traitsIcEE@Base 12.0.3
 _ZN4ceph6common19PerfCountersBuilder11add_u64_avgEiPKcS3_S3_ii@Base 12.0.3
 _ZN4ceph6common19PerfCountersBuilder12add_time_avgEiPKcS3_S3_i@Base 12.0.3
 _ZN4ceph6common19PerfCountersBuilder15add_u64_counterEiPKcS3_S3_ii@Base 12.0.3
 _ZN4ceph6common19PerfCountersBuilder20create_perf_countersEv@Base 12.0.3
 _ZN4ceph6common19PerfCountersBuilder25add_u64_counter_histogramEiPKcN19PerfHistogramCommon13axis_config_dES5_S3_S3_ii@Base 12.0.3
 _ZN4ceph6common19PerfCountersBuilder7add_u64EiPKcS3_S3_ii@Base 12.0.3
 _ZN4ceph6common19PerfCountersBuilder8add_implEiPKcS3_S3_iiiSt10unique_ptrI13PerfHistogramILi2EESt14default_deleteIS6_EE@Base 12.0.3
 _ZN4ceph6common19PerfCountersBuilder8add_timeEiPKcS3_S3_i@Base 12.0.3
 _ZN4ceph6common19PerfCountersBuilderC1EPNS0_11CephContextERKNSt7__cxx1112basic_stringIcSt11char_traitsIcESaIcEEEii@Base 12.0.3
 _ZN4ceph6common19PerfCountersBuilderC2EPNS0_11CephContextERKNSt7__cxx1112basic_stringIcSt11char_traitsIcESaIcEEEii@Base 12.0.3
 _ZN4ceph6common19PerfCountersBuilderD1Ev@Base 12.0.3
 _ZN4ceph6common19PerfCountersBuilderD2Ev@Base 12.0.3
 _ZN4ceph6common19PerfCountersDeleterclEPNS0_12PerfCountersE@Base 12.0.3
 _ZN4ceph6common20RefCountedObjectSafeD0Ev@Base 12.0.3
 _ZN4ceph6common20RefCountedObjectSafeD1Ev@Base 12.0.3
 _ZN4ceph6common20RefCountedObjectSafeD2Ev@Base 12.0.3
 _ZN4ceph6common20dump_cmddesc_to_jsonEPNS_9FormatterEmRKNSt7__cxx1112basic_stringIcSt11char_traitsIcESaIcEEESA_SA_SA_SA_m@Base 12.0.3
 _ZN4ceph6common21cmd_vartype_stringifyERKN5boost7variantINSt7__cxx1112basic_stringIcSt11char_traitsIcESaIcEEEJbldSt6vectorIS8_SaIS8_EES9_IlSaIlEES9_IdSaIdEEEEE@Base 12.0.3
 _ZN4ceph6common22PerfCountersCollection14dump_formattedEPNS_9FormatterEbRKNSt7__cxx1112basic_stringIcSt11char_traitsIcESaIcEEESB_@Base 12.0.3
 _ZN4ceph6common22PerfCountersCollection25dump_formatted_histogramsEPNS_9FormatterEbRKNSt7__cxx1112basic_stringIcSt11char_traitsIcESaIcEEESB_@Base 12.0.3
 _ZN4ceph6common22PerfCountersCollection3addEPNS0_12PerfCountersE@Base 12.0.3
 _ZN4ceph6common22PerfCountersCollection5clearEv@Base 12.0.3
 _ZN4ceph6common22PerfCountersCollection5resetERKNSt7__cxx1112basic_stringIcSt11char_traitsIcESaIcEEE@Base 12.0.3
 _ZN4ceph6common22PerfCountersCollection6removeEPNS0_12PerfCountersE@Base 12.0.3
 _ZN4ceph6common22PerfCountersCollectionC1EPNS0_11CephContextE@Base 12.0.3
 _ZN4ceph6common22PerfCountersCollectionC2EPNS0_11CephContextE@Base 12.0.3
 _ZN4ceph6common22PerfCountersCollectionD1Ev@Base 12.0.3
 _ZN4ceph6common22PerfCountersCollectionD2Ev@Base 12.0.3
 _ZN4ceph6common24CephContextServiceThread5entryEv@Base 12.0.3
 _ZN4ceph6common24CephContextServiceThreadD0Ev@Base 12.0.3
 _ZN4ceph6common24CephContextServiceThreadD1Ev@Base 12.0.3
 _ZN4ceph6common24CephContextServiceThreadD2Ev@Base 12.0.3
 _ZN4ceph6common25dump_cmd_and_help_to_jsonEPNS_9FormatterEmRKNSt7__cxx1112basic_stringIcSt11char_traitsIcESaIcEEESA_SA_@Base 12.0.3
 _ZN4ceph6common26PerfCountersCollectionImpl3addEPNS0_12PerfCountersE@Base 12.0.3
 _ZN4ceph6common26PerfCountersCollectionImpl5clearEv@Base 12.0.3
 _ZN4ceph6common26PerfCountersCollectionImpl5resetERKNSt7__cxx1112basic_stringIcSt11char_traitsIcESaIcEEE@Base 12.0.3
 _ZN4ceph6common26PerfCountersCollectionImpl6removeEPNS0_12PerfCountersE@Base 12.0.3
 _ZN4ceph6common26PerfCountersCollectionImplC1Ev@Base 12.0.3
 _ZN4ceph6common26PerfCountersCollectionImplC2Ev@Base 12.0.3
 _ZN4ceph6common26PerfCountersCollectionImplD1Ev@Base 12.0.3
 _ZN4ceph6common26PerfCountersCollectionImplD2Ev@Base 12.0.3
 _ZN4ceph6common30cmddesc_get_prenautilus_compatERKNSt7__cxx1112basic_stringIcSt11char_traitsIcESaIcEEE@Base 12.0.3
 _ZN4ceph6crypto15DigestExceptionD0Ev@Base 12.0.3
 _ZN4ceph6crypto15DigestExceptionD1Ev@Base 12.0.3
 _ZN4ceph6crypto15DigestExceptionD2Ev@Base 12.0.3
 _ZN4ceph6crypto20zeroize_for_securityEPvm@Base 12.0.3
 _ZN4ceph6crypto3ssl13OpenSSLDigest5FinalEPh@Base 12.0.3
 _ZN4ceph6crypto3ssl13OpenSSLDigest6UpdateEPKhm@Base 12.0.3
 _ZN4ceph6crypto3ssl13OpenSSLDigest7RestartEv@Base 12.0.3
 _ZN4ceph6crypto3ssl13OpenSSLDigestC1EPK9evp_md_st@Base 12.0.3
 _ZN4ceph6crypto3ssl13OpenSSLDigestC2EPK9evp_md_st@Base 12.0.3
 _ZN4ceph6crypto3ssl13OpenSSLDigestD1Ev@Base 12.0.3
 _ZN4ceph6crypto3ssl13OpenSSLDigestD2Ev@Base 12.0.3
 _ZN4ceph6crypto3ssl20zeroize_for_securityEPvm@Base 12.0.3
 _ZN4ceph6crypto4initEv@Base 12.0.3
 _ZN4ceph6crypto6onwire12MsgAuthErrorD0Ev@Base 12.0.3
 _ZN4ceph6crypto6onwire12MsgAuthErrorD1Ev@Base 12.0.3
 _ZN4ceph6crypto6onwire12MsgAuthErrorD2Ev@Base 12.0.3
 _ZN4ceph6crypto6onwire14TxHandlerErrorC1EPKc@Base 12.0.3
 _ZN4ceph6crypto6onwire14TxHandlerErrorC2EPKc@Base 12.0.3
 _ZN4ceph6crypto6onwire14TxHandlerErrorD0Ev@Base 12.0.3
 _ZN4ceph6crypto6onwire14TxHandlerErrorD1Ev@Base 12.0.3
 _ZN4ceph6crypto6onwire14TxHandlerErrorD2Ev@Base 12.0.3
 _ZN4ceph6crypto6onwire25AES128GCM_OnWireRxHandler16reset_rx_handlerEv@Base 12.0.3
 _ZN4ceph6crypto6onwire25AES128GCM_OnWireRxHandler23get_extra_size_at_finalEv@Base 12.0.3
 _ZN4ceph6crypto6onwire25AES128GCM_OnWireRxHandler28authenticated_decrypt_updateERNS_6buffer7v15_2_04listE@Base 12.0.3
 _ZN4ceph6crypto6onwire25AES128GCM_OnWireRxHandler34authenticated_decrypt_update_finalERNS_6buffer7v15_2_04listE@Base 12.0.3
 _ZN4ceph6crypto6onwire25AES128GCM_OnWireRxHandlerD0Ev@Base 12.0.3
 _ZN4ceph6crypto6onwire25AES128GCM_OnWireRxHandlerD1Ev@Base 12.0.3
 _ZN4ceph6crypto6onwire25AES128GCM_OnWireRxHandlerD2Ev@Base 12.0.3
 _ZN4ceph6crypto6onwire25AES128GCM_OnWireTxHandler16reset_tx_handlerEPKjS4_@Base 12.0.3
 _ZN4ceph6crypto6onwire25AES128GCM_OnWireTxHandler27authenticated_encrypt_finalEv@Base 12.0.3
 _ZN4ceph6crypto6onwire25AES128GCM_OnWireTxHandler28authenticated_encrypt_updateERKNS_6buffer7v15_2_04listE@Base 12.0.3
 _ZN4ceph6crypto6onwire25AES128GCM_OnWireTxHandlerD0Ev@Base 12.0.3
 _ZN4ceph6crypto6onwire25AES128GCM_OnWireTxHandlerD1Ev@Base 12.0.3
 _ZN4ceph6crypto6onwire25AES128GCM_OnWireTxHandlerD2Ev@Base 12.0.3
 _ZN4ceph6crypto6onwire6rxtx_t19create_handler_pairEPNS_6common11CephContextERK18AuthConnectionMetabb@Base 12.0.3
 _ZN4ceph6crypto8shutdownEb@Base 12.0.3
 _ZN4ceph6decodeERNS_6buffer7v15_2_04listERNS2_13iterator_implILb1EEE@Base 12.0.3
 _ZN4ceph6decodeERNSt7__cxx1112basic_stringIcSt11char_traitsIcESaIcEEERNS_6buffer7v15_2_04list13iterator_implILb1EEE@Base 12.0.3
 _ZN4ceph6decodeI11osd_reqid_t11denc_traitsIS1_vEEENSt9enable_ifIXaasrT0_9supportedsrS5_15need_contiguousEvE4typeERT_RNS_6buffer7v15_2_04list13iterator_implILb1EEE@Base 12.0.3
 _ZN4ceph6decodeI13entity_name_t11denc_traitsIS1_vEEENSt9enable_ifIXaasrT0_9supportedsrS5_15need_contiguousEvE4typeERT_RNS_6buffer7v15_2_04list13iterator_implILb1EEE@Base 12.0.3
 _ZN4ceph6decodeI14ceph_release_t11denc_traitsIS1_vEEENSt9enable_ifIXaasrT0_9supportedntsrS5_15need_contiguousEvE4typeERT_RNS_6buffer7v15_2_04list13iterator_implILb1EEE@Base 12.0.3
 _ZN4ceph6decodeI16OSDConfigPayload11denc_traitsIS1_vEEENSt9enable_ifIXaasrT0_9supportedsrS5_15need_contiguousEvE4typeERT_RNS_6buffer7v15_2_04list13iterator_implILb1EEE@Base 12.0.3
 _ZN4ceph6decodeI16OSDMetricPayload11denc_traitsIS1_vEEENSt9enable_ifIXaasrT0_9supportedsrS5_15need_contiguousEvE4typeERT_RNS_6buffer7v15_2_04list13iterator_implILb1EEE@Base 12.0.3
 _ZN4ceph6decodeI16entity_addrvec_tN7mempool14pool_allocatorILNS2_12pool_index_tE23ESt10shared_ptrIS1_EEEEEvRSt6vectorIS5_IT_ET0_ERNS_6buffer7v15_2_04list13iterator_implILb1EEE@Base 12.0.3
 _ZN4ceph6decodeI18health_check_map_t11denc_traitsIS1_vEEENSt9enable_ifIXaasrT0_9supportedsrS5_15need_contiguousEvE4typeERT_RNS_6buffer7v15_2_04list13iterator_implILb1EEE@Base 12.0.3
 _ZN4ceph6decodeI20UnknownConfigPayload11denc_traitsIS1_vEEENSt9enable_ifIXaasrT0_9supportedsrS5_15need_contiguousEvE4typeERT_RNS_6buffer7v15_2_04list13iterator_implILb1EEE@Base 12.0.3
 _ZN4ceph6decodeI20UnknownMetricPayload11denc_traitsIS1_vEEENSt9enable_ifIXaasrT0_9supportedsrS5_15need_contiguousEvE4typeERT_RNS_6buffer7v15_2_04list13iterator_implILb1EEE@Base 12.0.3
 _ZN4ceph6decodeI4pg_tSt6vectorISt4pairIiiEN7mempool14pool_allocatorILNS5_12pool_index_tE23ES4_EEESt4lessIS1_ENS6_ILS7_23ES3_IKS1_S9_EEE11denc_traitsIS1_vESF_IS9_vEEENSt9enable_ifIXoontsrT3_9supportedntsrT4_9supportedEvE4typeERSt3mapIT_T0_T1_T2_ERNS_6buffer7v15_2_04list13iterator_implILb1EEE@Base 12.0.3
 _ZN4ceph6decodeI4pg_tSt6vectorIiN7mempool14pool_allocatorILNS3_12pool_index_tE23EiEEESt4lessIS1_ENS4_ILS5_23ESt4pairIKS1_S7_EEE11denc_traitsIS1_vESE_IS7_vEEENSt9enable_ifIXoontsrT3_9supportedntsrT4_9supportedEvE4typeERSt3mapIT_T0_T1_T2_ERNS_6buffer7v15_2_04list13iterator_implILb1EEE@Base 12.0.3
 _ZN4ceph6decodeI9dirfrag_tN12MCacheExpire5realmESt4lessIS1_ESaISt4pairIKS1_S3_EE11denc_traitsIS1_vESA_IS3_vEEENSt9enable_ifIXoontsrT3_9supportedntsrT4_9supportedEvE4typeERSt3mapIT_T0_T1_T2_ERNS_6buffer7v15_2_04list13iterator_implILb1EEE@Base 12.0.3
 _ZN4ceph6decodeI9dirfrag_tSt3mapI13string_snap_tN15MMDSCacheRejoin11slave_reqidESt4lessIS3_ESaISt4pairIKS3_S5_EEES6_IS1_ESaIS8_IKS1_SC_EE11denc_traitsIS1_vESH_ISC_vEEENSt9enable_ifIXoontsrT3_9supportedntsrT4_9supportedEvE4typeERS2_IT_T0_T1_T2_ERNS_6buffer7v15_2_04list13iterator_implILb1EEE@Base 12.0.3
 _ZN4ceph6decodeI9dirfrag_tSt3mapI13string_snap_tN15MMDSCacheRejoin9dn_strongESt4lessIS3_ESaISt4pairIKS3_S5_EEES6_IS1_ESaIS8_IKS1_SC_EE11denc_traitsIS1_vESH_ISC_vEEENSt9enable_ifIXoontsrT3_9supportedntsrT4_9supportedEvE4typeERS2_IT_T0_T1_T2_ERNS_6buffer7v15_2_04list13iterator_implILb1EEE@Base 12.0.3
 _ZN4ceph6decodeI9dirfrag_tSt3mapI13string_snap_tNSt7__cxx114listIN15MMDSCacheRejoin11slave_reqidESaIS7_EEESt4lessIS3_ESaISt4pairIKS3_S9_EEESA_IS1_ESaISC_IKS1_SG_EE11denc_traitsIS1_vESL_ISG_vEEENSt9enable_ifIXoontsrT3_9supportedntsrT4_9supportedEvE4typeERS2_IT_T0_T1_T2_ERNS_6buffer7v15_2_04list13iterator_implILb1EEE@Base 12.0.3
 _ZN4ceph6decodeISt3mapI18OSDPerfMetricQuerySt3setI18OSDPerfMetricLimitSt4lessIS4_ESaIS4_EES5_IS2_ESaISt4pairIKS2_S8_EEE11denc_traitsISE_vEEENSt9enable_ifIXaasrT0_9supportedsrSI_15need_contiguousEvE4typeERT_RNS_6buffer7v15_2_04list13iterator_implILb1EEE@Base 12.0.3
 _ZN4ceph6decodeISt3mapINSt7__cxx1112basic_stringIcSt11char_traitsIcESaIcEEENS_6buffer7v15_2_03ptrESt4lessIS7_ESaISt4pairIKS7_SA_EEE11denc_traitsISH_vEEENSt9enable_ifIXaasrT0_9supportedntsrSL_15need_contiguousEvE4typeERT_RNS9_4list13iterator_implILb1EEE@Base 12.0.3
 _ZN4ceph6decodeISt3mapINSt7__cxx1112basic_stringIcSt11char_traitsIcESaIcEEENS_6buffer7v15_2_04listESt4lessIS7_ESaISt4pairIKS7_SA_EEE11denc_traitsISH_vEEENSt9enable_ifIXaasrT0_9supportedntsrSL_15need_contiguousEvE4typeERT_RNSA_13iterator_implILb1EEE@Base 12.0.3
 _ZN4ceph6decodeISt3mapINSt7__cxx1112basic_stringIcSt11char_traitsIcESaIcEEES1_IS7_S7_St4lessIS7_ESaISt4pairIKS7_S7_EEES9_N7mempool14pool_allocatorILNSF_12pool_index_tE23ESA_ISB_SE_EEEE11denc_traitsISK_vEEENSt9enable_ifIXaasrT0_9supportedntsrSO_15need_contiguousEvE4typeERT_RNS_6buffer7v15_2_04list13iterator_implILb1EEE@Base 12.0.3
 _ZN4ceph6decodeISt3mapINSt7__cxx1112basic_stringIcSt11char_traitsIcESaIcEEES1_IS7_S7_St4lessIS7_ESaISt4pairIKS7_S7_EEES9_SaISA_ISB_SE_EEE11denc_traitsISH_vEEENSt9enable_ifIXaasrT0_9supportedntsrSL_15need_contiguousEvE4typeERT_RNS_6buffer7v15_2_04list13iterator_implILb1EEE@Base 12.0.3
 _ZN4ceph6decodeISt3mapINSt7__cxx1112basic_stringIcSt11char_traitsIcESaIcEEES7_St4lessIS7_ESaISt4pairIKS7_S7_EEE11denc_traitsISE_vEEENSt9enable_ifIXaasrT0_9supportedntsrSI_15need_contiguousEvE4typeERT_RNS_6buffer7v15_2_04list13iterator_implILb1EEE@Base 12.0.3
 _ZN4ceph6decodeISt3mapINSt7__cxx1112basic_stringIcSt11char_traitsIcESaIcEEESt8optionalINS_6buffer7v15_2_04listEESt4lessIS7_ESaISt4pairIKS7_SC_EEE11denc_traitsISJ_vEEENSt9enable_ifIXaasrT0_9supportedntsrSN_15need_contiguousEvE4typeERT_RNSB_13iterator_implILb1EEE@Base 12.0.3
 _ZN4ceph6decodeISt3mapISt4pairIliE14store_statfs_tSt4lessIS3_EN7mempool14pool_allocatorILNS7_12pool_index_tE25ES2_IKS3_S4_EEEE11denc_traitsISD_vEEENSt9enable_ifIXaasrT0_9supportedsrSH_15need_contiguousEvE4typeERT_RNS_6buffer7v15_2_04list13iterator_implILb1EEE@Base 12.0.3
 _ZN4ceph6decodeISt3mapIiS1_INSt7__cxx1112basic_stringIcSt11char_traitsIcESaIcEEES7_St4lessIS7_ESaISt4pairIKS7_S7_EEES8_IiESaISA_IKiSE_EEE11denc_traitsISJ_vEEENSt9enable_ifIXaasrT0_9supportedntsrSN_15need_contiguousEvE4typeERT_RNS_6buffer7v15_2_04list13iterator_implILb1EEE@Base 12.0.3
 _ZN4ceph6decodeISt3mapIiSt4pairIjjESt4lessIiEN7mempool14pool_allocatorILNS6_12pool_index_tE23ES2_IKiS3_EEEE11denc_traitsISC_vEEENSt9enable_ifIXaasrT0_9supportedntsrSG_15need_contiguousEvE4typeERT_RNS_6buffer7v15_2_04list13iterator_implILb1EEE@Base 12.0.3
 _ZN4ceph6decodeISt3mapIihSt4lessIiESaISt4pairIKihEEE11denc_traitsIS8_vEEENSt9enable_ifIXaasrT0_9supportedntsrSC_15need_contiguousEvE4typeERT_RNS_6buffer7v15_2_04list13iterator_implILb1EEE@Base 12.0.3
 _ZN4ceph6decodeISt3mapIijSt4lessIiEN7mempool14pool_allocatorILNS4_12pool_index_tE23ESt4pairIKijEEEE11denc_traitsISB_vEEENSt9enable_ifIXaasrT0_9supportedntsrSF_15need_contiguousEvE4typeERT_RNS_6buffer7v15_2_04list13iterator_implILb1EEE@Base 12.0.3
 _ZN4ceph6decodeISt3mapIjNS_6buffer7v15_2_04listESt4lessIjESaISt4pairIKjS4_EEE11denc_traitsISB_vEEENSt9enable_ifIXaasrT0_9supportedntsrSF_15need_contiguousEvE4typeERT_RNS4_13iterator_implILb1EEE@Base 12.0.3
 _ZN4ceph6decodeISt3mapIjSt3setINSt7__cxx1112basic_stringIcSt11char_traitsIcESaIcEEESt4lessIS8_ESaIS8_EES9_IjESaISt4pairIKjSC_EEE11denc_traitsISI_vEEENSt9enable_ifIXaasrT0_9supportedntsrSM_15need_contiguousEvE4typeERT_RNS_6buffer7v15_2_04list13iterator_implILb1EEE@Base 12.0.3
 _ZN4ceph6decodeISt3mapIl12interval_setI8snapid_tN5boost9container8flat_mapIS3_S3_St4lessIS3_EN7mempool14pool_allocatorILNS9_12pool_index_tE23ESt4pairIS3_S3_EEEEEES7_IlENSA_ILSB_23ESC_IKlSG_EEEE11denc_traitsISL_vEEENSt9enable_ifIXaasrT0_9supportedsrSP_15need_contiguousEvE4typeERT_RNS_6buffer7v15_2_04list13iterator_implILb1EEE@Base 12.0.3
 _ZN4ceph6decodeISt3mapIl14store_statfs_tSt4lessIlESaISt4pairIKlS2_EEE11denc_traitsIS9_vEEENSt9enable_ifIXaasrT0_9supportedsrSD_15need_contiguousEvE4typeERT_RNS_6buffer7v15_2_04list13iterator_implILb1EEE@Base 12.0.3
 _ZN4ceph6decodeISt3mapIlNSt7__cxx1112basic_stringIcSt11char_traitsIcESaIcEEESt4lessIlEN7mempool14pool_allocatorILNSA_12pool_index_tE23ESt4pairIKlS7_EEEE11denc_traitsISH_vEEENSt9enable_ifIXaasrT0_9supportedntsrSL_15need_contiguousEvE4typeERT_RNS_6buffer7v15_2_04list13iterator_implILb1EEE@Base 12.0.3
 _ZN4ceph6decodeISt3setI10pg_shard_tSt4lessIS2_ESaIS2_EEiS3_IS6_ESaISt4pairIKS6_iEE11denc_traitsIS6_vESC_IivEEENSt9enable_ifIXoontsrT3_9supportedntsrT4_9supportedEvE4typeERSt3mapIT_T0_T1_T2_ERNS_6buffer7v15_2_04list13iterator_implILb1EEE@Base 12.0.3
 _ZN4ceph6decodeISt3setINSt7__cxx1112basic_stringIcSt11char_traitsIcESaIcEEESt4lessIS7_ESaIS7_EE11denc_traitsISB_vEEENSt9enable_ifIXaasrT0_9supportedntsrSF_15need_contiguousEvE4typeERT_RNS_6buffer7v15_2_04list13iterator_implILb1EEE@Base 12.0.3
 _ZN4ceph6decodeISt3setIiSt4lessIiESaIiEE11denc_traitsIS5_vEEENSt9enable_ifIXaasrT0_9supportedntsrS9_15need_contiguousEvE4typeERT_RNS_6buffer7v15_2_04list13iterator_implILb1EEE@Base 12.0.3
 _ZN4ceph6decodeISt3setIlSt4lessIlEN7mempool14pool_allocatorILNS4_12pool_index_tE23ElEEE11denc_traitsIS8_vEEENSt9enable_ifIXaasrT0_9supportedntsrSC_15need_contiguousEvE4typeERT_RNS_6buffer7v15_2_04list13iterator_implILb1EEE@Base 12.0.3
 _ZN4ceph6decodeISt6vectorINS_6buffer7v15_2_04listESaIS4_EE11denc_traitsIS6_vEEENSt9enable_ifIXaasrT0_9supportedntsrSA_15need_contiguousEvE4typeERT_RNS4_13iterator_implILb1EEE@Base 12.0.3
 _ZN4ceph6decodeISt6vectorINSt7__cxx1112basic_stringIcSt11char_traitsIcESaIcEEESaIS7_EE11denc_traitsIS9_vEEENSt9enable_ifIXaasrT0_9supportedntsrSD_15need_contiguousEvE4typeERT_RNS_6buffer7v15_2_04list13iterator_implILb1EEE@Base 12.0.3
 _ZN4ceph6decodeISt6vectorIhSaIhEE11denc_traitsIS3_vEEENSt9enable_ifIXaasrT0_9supportedntsrS7_15need_contiguousEvE4typeERT_RNS_6buffer7v15_2_04list13iterator_implILb1EEE@Base 12.0.3
 _ZN4ceph6decodeISt6vectorIjN7mempool14pool_allocatorILNS2_12pool_index_tE23EjEEE11denc_traitsIS6_vEEENSt9enable_ifIXaasrT0_9supportedntsrSA_15need_contiguousEvE4typeERT_RNS_6buffer7v15_2_04list13iterator_implILb1EEE@Base 12.0.3
 _ZN4ceph6decodeIi16entity_addrvec_tSt4lessIiEN7mempool14pool_allocatorILNS4_12pool_index_tE23ESt4pairIKiS1_EEE11denc_traitsIivESB_IS1_vEEENSt9enable_ifIXoontsrT3_9supportedntsrT4_9supportedEvE4typeERSt3mapIT_T0_T1_T2_ERNS_6buffer7v15_2_04list13iterator_implILb1EEE@Base 12.0.3
 _ZN4ceph6decodeIl9pg_pool_tSt4lessIlEN7mempool14pool_allocatorILNS4_12pool_index_tE23ESt4pairIKlS1_EEE11denc_traitsIlvESB_IS1_vEEENSt9enable_ifIXoontsrT3_9supportedntsrT4_9supportedEvE4typeERSt3mapIT_T0_T1_T2_ERNS_6buffer7v15_2_04list13iterator_implILb1EEE@Base 12.0.3
 _ZN4ceph6decodeIlSt5ratioILl1ELl1000000000EELPv0EEEvRNSt6chrono8durationIT_T0_EERNS_6buffer7v15_2_04list13iterator_implILb1EEE@Base 12.0.3
 _ZN4ceph6encodeERKNS_6buffer7v15_2_04listERS2_@Base 12.0.3
 _ZN4ceph6encodeI10FilesystemSaISt10shared_ptrIS1_EEEEvRKSt6vectorIS2_IT_ET0_ERNS_6buffer7v15_2_04listEm@Base 12.0.3
 _ZN4ceph6encodeI16entity_addrvec_tN7mempool14pool_allocatorILNS2_12pool_index_tE23ESt10shared_ptrIS1_EEEEEvRKSt6vectorIS5_IT_ET0_ERNS_6buffer7v15_2_04listEm@Base 12.0.3
 _ZN4ceph6encodeI18health_check_map_t11denc_traitsIS1_vEEENSt9enable_ifIXaasrT0_9supportedntsrS5_8featuredEvE4typeERKT_RNS_6buffer7v15_2_04listEm@Base 12.0.3
 _ZN4ceph6encodeIN6MgrMap10ModuleInfoESaIS2_E11denc_traitsIS2_vEEENSt9enable_ifIXntsrT1_9supportedEvE4typeERKSt6vectorIT_T0_ERNS_6buffer7v15_2_04listE@Base 12.0.3
 _ZN4ceph6encodeINS_6buffer7v15_2_04listE11denc_traitsIS3_vEEENSt9enable_ifIXaasrT0_9supportedntsrS7_8featuredEvE4typeERKT_RS3_m@Base 12.0.3
 _ZN4ceph6encodeISt3mapINSt7__cxx1112basic_stringIcSt11char_traitsIcESaIcEEENS_6buffer7v15_2_04listESt4lessIS7_ESaISt4pairIKS7_SA_EEE11denc_traitsISH_vEEENSt9enable_ifIXaasrT0_9supportedntsrSL_8featuredEvE4typeERKT_RSA_m@Base 12.0.3
 _ZN4ceph6encodeISt3mapINSt7__cxx1112basic_stringIcSt11char_traitsIcESaIcEEES1_IS7_S7_St4lessIS7_ESaISt4pairIKS7_S7_EEES9_N7mempool14pool_allocatorILNSF_12pool_index_tE23ESA_ISB_SE_EEEE11denc_traitsISK_vEEENSt9enable_ifIXaasrT0_9supportedntsrSO_8featuredEvE4typeERKT_RNS_6buffer7v15_2_04listEm@Base 12.0.3
 _ZN4ceph6encodeISt3mapINSt7__cxx1112basic_stringIcSt11char_traitsIcESaIcEEES1_IS7_S7_St4lessIS7_ESaISt4pairIKS7_S7_EEES9_SaISA_ISB_SE_EEE11denc_traitsISH_vEEENSt9enable_ifIXaasrT0_9supportedntsrSL_8featuredEvE4typeERKT_RNS_6buffer7v15_2_04listEm@Base 12.0.3
 _ZN4ceph6encodeISt3mapINSt7__cxx1112basic_stringIcSt11char_traitsIcESaIcEEES7_St4lessIS7_ESaISt4pairIKS7_S7_EEE11denc_traitsISE_vEEENSt9enable_ifIXaasrT0_9supportedntsrSI_8featuredEvE4typeERKT_RNS_6buffer7v15_2_04listEm@Base 12.0.3
 _ZN4ceph6encodeISt3mapIiNSt7__cxx1112basic_stringIcSt11char_traitsIcESaIcEEESt4lessIiESaISt4pairIKiS7_EEE11denc_traitsISE_vEEENSt9enable_ifIXaasrT0_9supportedntsrSI_8featuredEvE4typeERKT_RNS_6buffer7v15_2_04listEm@Base 12.0.3
 _ZN4ceph6encodeISt3mapIiS1_INSt7__cxx1112basic_stringIcSt11char_traitsIcESaIcEEES7_St4lessIS7_ESaISt4pairIKS7_S7_EEES8_IiESaISA_IKiSE_EEE11denc_traitsISJ_vEEENSt9enable_ifIXaasrT0_9supportedntsrSN_8featuredEvE4typeERKT_RNS_6buffer7v15_2_04listEm@Base 12.0.3
 _ZN4ceph6encodeISt3mapIijSt4lessIiEN7mempool14pool_allocatorILNS4_12pool_index_tE23ESt4pairIKijEEEE11denc_traitsISB_vEEENSt9enable_ifIXaasrT0_9supportedntsrSF_8featuredEvE4typeERKT_RNS_6buffer7v15_2_04listEm@Base 12.0.3
 _ZN4ceph6encodeISt3mapIjNS_6buffer7v15_2_04listESt4lessIjESaISt4pairIKjS4_EEE11denc_traitsISB_vEEENSt9enable_ifIXaasrT0_9supportedntsrSF_8featuredEvE4typeERKT_RS4_m@Base 12.0.3
 _ZN4ceph6encodeISt3mapIjS1_Il12interval_setI8snapid_tN5boost9container8flat_mapIS3_S3_St4lessIS3_EN7mempool14pool_allocatorILNS9_12pool_index_tE23ESt4pairIS3_S3_EEEEEES7_IlENSA_ILSB_23ESC_IKlSG_EEEES7_IjESaISC_IKjSL_EEE11denc_traitsISQ_vEEENSt9enable_ifIXaasrT0_9supportedntsrSU_8featuredEvE4typeERKT_RNS_6buffer7v15_2_04listEm@Base 12.0.3
 _ZN4ceph6encodeISt3mapIl12interval_setI8snapid_tN5boost9container8flat_mapIS3_S3_St4lessIS3_EN7mempool14pool_allocatorILNS9_12pool_index_tE23ESt4pairIS3_S3_EEEEEES7_IlENSA_ILSB_23ESC_IKlSG_EEEE11denc_traitsISL_vEEENSt9enable_ifIXaasrT0_9supportedntsrSP_8featuredEvE4typeERKT_RNS_6buffer7v15_2_04listEm@Base 12.0.3
 _ZN4ceph6encodeISt3mapIlNSt7__cxx1112basic_stringIcSt11char_traitsIcESaIcEEESt4lessIlEN7mempool14pool_allocatorILNSA_12pool_index_tE23ESt4pairIKlS7_EEEE11denc_traitsISH_vEEENSt9enable_ifIXaasrT0_9supportedntsrSL_8featuredEvE4typeERKT_RNS_6buffer7v15_2_04listEm@Base 12.0.3
 _ZN4ceph6encodeISt3setINSt7__cxx1112basic_stringIcSt11char_traitsIcESaIcEEESt4lessIS7_ESaIS7_EE11denc_traitsISB_vEEENSt9enable_ifIXaasrT0_9supportedntsrSF_8featuredEvE4typeERKT_RNS_6buffer7v15_2_04listEm@Base 12.0.3
 _ZN4ceph6encodeISt3setIiSt4lessIiESaIiEE11denc_traitsIS5_vEEENSt9enable_ifIXaasrT0_9supportedntsrS9_8featuredEvE4typeERKT_RNS_6buffer7v15_2_04listEm@Base 12.0.3
 _ZN4ceph6encodeIi16entity_addrvec_tSt4lessIiEN7mempool14pool_allocatorILNS4_12pool_index_tE23ESt4pairIKiS1_EEE11denc_traitsIivESB_IS1_vEEENSt9enable_ifIXoontsrT3_9supportedntsrT4_9supportedEvE4typeERKSt3mapIT_T0_T1_T2_ERNS_6buffer7v15_2_04listEm@Base 12.0.3
 _ZN4ceph6encodeIlSt5ratioILl1ELl1000000000EELPv0EEEvRKNSt6chrono8durationIT_T0_EERNS_6buffer7v15_2_04listE@Base 12.0.3
 _ZN4ceph6global10g_eio_pathE@Base 12.0.3
 _ZN4ceph6global11g_eio_errorE@Base 12.0.3
 _ZN4ceph6global12g_assert_msgE@Base 12.0.3
 _ZN4ceph6global12g_eio_iotypeE@Base 12.0.3
 _ZN4ceph6global12g_eio_lengthE@Base 12.0.3
 _ZN4ceph6global12g_eio_offsetE@Base 12.0.3
 _ZN4ceph6global13g_assert_fileE@Base 12.0.3
 _ZN4ceph6global13g_assert_funcE@Base 12.0.3
 _ZN4ceph6global13g_assert_lineE@Base 12.0.3
 _ZN4ceph6global13g_eio_devnameE@Base 12.0.3
 _ZN4ceph6global14g_ceph_contextE@Base 12.0.3
 _ZN4ceph6global14g_process_nameE@Base 12.0.3
 _ZN4ceph6global15g_assert_threadE@Base 12.0.3
 _ZN4ceph6global18g_assert_conditionE@Base 12.0.3
 _ZN4ceph6global19note_io_error_eventEPKcS2_iiyy@Base 12.0.3
 _ZN4ceph6global20g_assert_thread_nameE@Base 12.0.3
 _ZN4ceph6global5g_eioE@Base 12.0.3
 _ZN4ceph6global6g_confEv@Base 12.0.3
 _ZN4ceph7logging12MutableEntryD0Ev@Base 12.0.3
 _ZN4ceph7logging12MutableEntryD1Ev@Base 12.0.3
 _ZN4ceph7logging12MutableEntryD2Ev@Base 12.0.3
 _ZN4ceph7logging12SubsystemMapC1Ev@Base 12.0.3
 _ZN4ceph7logging12SubsystemMapC2Ev@Base 12.0.3
 _ZN4ceph7logging13ConcreteEntryC1ERKNS0_5EntryE@Base 12.0.3
 _ZN4ceph7logging13ConcreteEntryC2ERKNS0_5EntryE@Base 12.0.3
 _ZN4ceph7logging13ConcreteEntryD0Ev@Base 12.0.3
 _ZN4ceph7logging13ConcreteEntryD1Ev@Base 12.0.3
 _ZN4ceph7logging13ConcreteEntryD2Ev@Base 12.0.3
 _ZN4ceph7logging3Log10reset_segvEv@Base 12.0.3
 _ZN4ceph7logging3Log11dump_recentEv@Base 12.0.3
 _ZN4ceph7logging3Log11inject_segvEv@Base 12.0.3
 _ZN4ceph7logging3Log11set_max_newEm@Base 12.0.3
 _ZN4ceph7logging3Log12_log_messageEPKcb@Base 12.0.3
 _ZN4ceph7logging3Log12set_log_fileESt17basic_string_viewIcSt11char_traitsIcEE@Base 12.0.3
 _ZN4ceph7logging3Log12stop_graylogEv@Base 12.0.3
 _ZN4ceph7logging3Log12submit_entryEONS0_5EntryE@Base 12.0.3
 _ZN4ceph7logging3Log13_flush_logbufEv@Base 12.0.3
 _ZN4ceph7logging3Log13start_graylogEv@Base 12.0.3
 _ZN4ceph7logging3Log14chown_log_fileEjj@Base 12.0.3
 _ZN4ceph7logging3Log14set_max_recentEm@Base 12.0.3
 _ZN4ceph7logging3Log15_log_safe_writeESt17basic_string_viewIcSt11char_traitsIcEE@Base 12.0.3
 _ZN4ceph7logging3Log15reopen_log_fileEv@Base 12.0.3
 _ZN4ceph7logging3Log16set_stderr_levelEii@Base 12.0.3
 _ZN4ceph7logging3Log16set_syslog_levelEii@Base 12.0.3
 _ZN4ceph7logging3Log17set_flush_on_exitEv@Base 12.0.3
 _ZN4ceph7logging3Log17set_graylog_levelEii@Base 12.0.3
 _ZN4ceph7logging3Log18is_inside_log_lockEv@Base 12.0.3
 _ZN4ceph7logging3Log21set_coarse_timestampsEb@Base 12.0.3
 _ZN4ceph7logging3Log21set_log_stderr_prefixESt17basic_string_viewIcSt11char_traitsIcEE@Base 12.0.3
 _ZN4ceph7logging3Log4stopEv@Base 12.0.3
 _ZN4ceph7logging3Log5entryEv@Base 12.0.3
 _ZN4ceph7logging3Log5flushEv@Base 12.0.3
 _ZN4ceph7logging3Log5startEv@Base 12.0.3
 _ZN4ceph7logging3Log6_flushERSt6vectorINS0_13ConcreteEntryESaIS3_EEb@Base 12.0.3
 _ZN4ceph7logging3LogC1EPKNS0_12SubsystemMapE@Base 12.0.3
 _ZN4ceph7logging3LogC2EPKNS0_12SubsystemMapE@Base 12.0.3
 _ZN4ceph7logging3LogD0Ev@Base 12.0.3
 _ZN4ceph7logging3LogD1Ev@Base 12.0.3
 _ZN4ceph7logging3LogD2Ev@Base 12.0.3
 _ZN4ceph7logging5EntryC1Ess@Base 12.0.3
 _ZN4ceph7logging5EntryC2Ess@Base 12.0.3
 _ZN4ceph7logging7Graylog12set_hostnameERKNSt7__cxx1112basic_stringIcSt11char_traitsIcESaIcEEE@Base 12.0.3
 _ZN4ceph7logging7Graylog13log_log_entryEPK8LogEntry@Base 12.0.3
 _ZN4ceph7logging7Graylog15set_destinationERKNSt7__cxx1112basic_stringIcSt11char_traitsIcESaIcEEEi@Base 12.0.3
 _ZN4ceph7logging7Graylog8set_fsidERK6uuid_d@Base 12.0.3
 _ZN4ceph7logging7Graylog9log_entryERKNS0_5EntryE@Base 12.0.3
 _ZN4ceph7logging7GraylogC1EPKNS0_12SubsystemMapERKNSt7__cxx1112basic_stringIcSt11char_traitsIcESaIcEEE@Base 12.0.3
 _ZN4ceph7logging7GraylogC1ERKNSt7__cxx1112basic_stringIcSt11char_traitsIcESaIcEEE@Base 12.0.3
 _ZN4ceph7logging7GraylogC2EPKNS0_12SubsystemMapERKNSt7__cxx1112basic_stringIcSt11char_traitsIcESaIcEEE@Base 12.0.3
 _ZN4ceph7logging7GraylogC2ERKNSt7__cxx1112basic_stringIcSt11char_traitsIcESaIcEEE@Base 12.0.3
 _ZN4ceph7logging7GraylogD0Ev@Base 12.0.3
 _ZN4ceph7logging7GraylogD1Ev@Base 12.0.3
 _ZN4ceph7logging7GraylogD2Ev@Base 12.0.3
 _ZN4ceph7logging9log_clock10coarse_nowEv@Base 12.0.3
 _ZN4ceph7logging9log_clock8fine_nowEv@Base 12.0.3
 _ZN4ceph8make_refI15AsyncConnectionJRPNS_6common11CephContextEP14AsyncMessengerP13DispatchQueueRP6WorkerbbEEEN5boost13intrusive_ptrIT_EEDpOT0_@Base 12.0.3
 _ZN4ceph9BackTraceC1Ei@Base 12.0.3
 _ZN4ceph9BackTraceC2Ei@Base 12.0.3
 _ZN4ceph9Formatter11dump_formatESt17basic_string_viewIcSt11char_traitsIcEEPKcz@Base 12.0.3
 _ZN4ceph9Formatter14dump_format_nsESt17basic_string_viewIcSt11char_traitsIcEEPKcS6_z@Base 12.0.3
 _ZN4ceph9Formatter20dump_format_unquotedESt17basic_string_viewIcSt11char_traitsIcEEPKcz@Base 12.0.3
 _ZN4ceph9Formatter22dump_string_with_attrsESt17basic_string_viewIcSt11char_traitsIcEES4_RKNS_14FormatterAttrsE@Base 12.0.3
 _ZN4ceph9Formatter28get_external_feature_handlerERKNSt7__cxx1112basic_stringIcSt11char_traitsIcESaIcEEE@Base 12.0.3
 _ZN4ceph9Formatter29open_array_section_with_attrsESt17basic_string_viewIcSt11char_traitsIcEERKNS_14FormatterAttrsE@Base 12.0.3
 _ZN4ceph9Formatter30open_object_section_with_attrsESt17basic_string_viewIcSt11char_traitsIcEERKNS_14FormatterAttrsE@Base 12.0.3
 _ZN4ceph9Formatter5flushERNS_6buffer7v15_2_04listE@Base 12.0.3
 _ZN4ceph9Formatter6createESt17basic_string_viewIcSt11char_traitsIcEES4_S4_@Base 12.0.3
 _ZN4ceph9Formatter9dump_boolESt17basic_string_viewIcSt11char_traitsIcEEb@Base 12.0.3
 _ZN4ceph9FormatterC1Ev@Base 12.0.3
 _ZN4ceph9FormatterC2Ev@Base 12.0.3
 _ZN4ceph9FormatterD0Ev@Base 12.0.3
 _ZN4ceph9FormatterD1Ev@Base 12.0.3
 _ZN4ceph9FormatterD2Ev@Base 12.0.3
 _ZN4cephlsERSoRKNSt6chrono8durationImSt5ratioILl1ELl1000000000EEEE@Base 12.0.3
 _ZN4cephlsINS_11time_detail10mono_clockELPv0EEERSoS4_RKNSt6chrono10time_pointIT_NS7_8durationEEE@Base 12.0.3
 _ZN4cephlsINS_11time_detail10real_clockELPv0EEERSoS4_RKNSt6chrono10time_pointIT_NS7_8durationEEE@Base 12.0.3
 _ZN4cephlsINS_11time_detail17coarse_mono_clockELPv0EEERSoS4_RKNSt6chrono10time_pointIT_NS7_8durationEEE@Base 12.0.3
 _ZN4cephlsINS_11time_detail17coarse_real_clockELPv0EEERSoS4_RKNSt6chrono10time_pointIT_NS7_8durationEEE@Base 12.0.3
 _ZN4pg_t23generate_test_instancesERNSt7__cxx114listIPS_SaIS2_EEE@Base 12.0.3
 _ZN4pg_t5parseEPKc@Base 12.0.3
 _ZN4pg_t6decodeERN4ceph6buffer7v15_2_04list13iterator_implILb1EEE@Base 12.0.3
 _ZN5CtFunI10ProtocolV1JEED0Ev@Base 12.0.3
 _ZN5CtFunI10ProtocolV1JEED1Ev@Base 12.0.3
 _ZN5CtFunI10ProtocolV1JEED2Ev@Base 12.0.3
 _ZN5CtFunI10ProtocolV1JPciEED0Ev@Base 12.0.3
 _ZN5CtFunI10ProtocolV1JPciEED1Ev@Base 12.0.3
 _ZN5CtFunI10ProtocolV1JPciEED2Ev@Base 12.0.3
 _ZN5CtFunI10ProtocolV1JiEED0Ev@Base 12.0.3
 _ZN5CtFunI10ProtocolV1JiEED1Ev@Base 12.0.3
 _ZN5CtFunI10ProtocolV1JiEED2Ev@Base 12.0.3
 _ZN5CtFunI10ProtocolV2JEED0Ev@Base 12.0.3
 _ZN5CtFunI10ProtocolV2JEED1Ev@Base 12.0.3
 _ZN5CtFunI10ProtocolV2JEED2Ev@Base 12.0.3
 _ZN5FSMap12check_healthEv@Base 12.0.3
 _ZN5FSMap13update_compatERK9CompatSet@Base 12.0.3
 _ZN5FSMap16erase_filesystemEi@Base 12.0.3
 _ZN5FSMap16reset_filesystemEi@Base 12.0.3
 _ZN5FSMap17create_filesystemESt17basic_string_viewIcSt11char_traitsIcEEllm@Base 12.0.3
 _ZN5FSMap21assign_standby_replayE9mds_gid_tii@Base 12.0.3
 _ZN5FSMap23generate_test_instancesERNSt7__cxx114listIPS_SaIS2_EEE@Base 12.0.3
 _ZN5FSMap4stopE9mds_gid_t@Base 12.0.3
 _ZN5FSMap5eraseE9mds_gid_tj@Base 12.0.3
 _ZN5FSMap6decodeERN4ceph6buffer7v15_2_04list13iterator_implILb1EEE@Base 12.0.3
 _ZN5FSMap6insertERKN6MDSMap10mds_info_tE@Base 12.0.3
 _ZN5FSMap7damagedE9mds_gid_tj@Base 12.0.3
 _ZN5FSMap7promoteE9mds_gid_tR10Filesystemi@Base 12.0.3
 _ZN5FSMap8sanitizeERKSt8functionIFblEE@Base 12.0.3
 _ZN5FSMap9undamagedEii@Base 12.0.3
 _ZN5FSMapaSERKS_@Base 12.0.3
 _ZN5MAuth14decode_payloadEv@Base 12.0.3
 _ZN5MAuth14encode_payloadEm@Base 12.0.3
 _ZN5MAuthD0Ev@Base 12.0.3
 _ZN5MAuthD1Ev@Base 12.0.3
 _ZN5MAuthD2Ev@Base 12.0.3
 _ZN5MLock14decode_payloadEv@Base 12.0.3
 _ZN5MLock14encode_payloadEm@Base 12.0.3
 _ZN5MLockD0Ev@Base 12.0.3
 _ZN5MLockD1Ev@Base 12.0.3
 _ZN5MLockD2Ev@Base 12.0.3
 _ZN5MPing14decode_payloadEv@Base 12.0.3
 _ZN5MPing14encode_payloadEm@Base 12.0.3
 _ZN5MPingD0Ev@Base 12.0.3
 _ZN5MPingD1Ev@Base 12.0.3
 _ZN5MPingD2Ev@Base 12.0.3
 _ZN5MTrimD0Ev@Base 12.0.3
 _ZN5MTrimD1Ev@Base 12.0.3
 _ZN5MTrimD2Ev@Base 12.0.3
 _ZN5OSDOp10clear_dataERSt6vectorIS_SaIS_EE@Base 12.0.3
 _ZN5OSDOp27merge_osd_op_vector_in_dataERSt6vectorIS_SaIS_EERN4ceph6buffer7v15_2_04listE@Base 12.0.3
 _ZN5OSDOp27split_osd_op_vector_in_dataERSt6vectorIS_SaIS_EERN4ceph6buffer7v15_2_04listE@Base 12.0.3
 _ZN5OSDOp28merge_osd_op_vector_out_dataERSt6vectorIS_SaIS_EERN4ceph6buffer7v15_2_04listE@Base 12.0.3
 _ZN5OSDOp28split_osd_op_vector_out_dataERSt6vectorIS_SaIS_EERN4ceph6buffer7v15_2_04listE@Base 12.0.3
 _ZN5OSDOpD1Ev@Base 12.0.3
 _ZN5OSDOpD2Ev@Base 12.0.3
 _ZN5PGMap10calc_statsEv@Base 12.0.3
 _ZN5PGMap11Incremental23generate_test_instancesERNSt7__cxx114listIPS0_SaIS3_EEE@Base 12.0.3
 _ZN5PGMap11IncrementaldlEPv@Base 12.0.3
 _ZN5PGMap11IncrementalnwEm@Base 12.0.3
 _ZN5PGMap11clear_deltaEv@Base 12.0.3
 _ZN5PGMap11stat_pg_addERK4pg_tRK9pg_stat_tb@Base 12.0.3
 _ZN5PGMap11stat_pg_subERK4pg_tRK9pg_stat_tb@Base 12.0.3
 _ZN5PGMap12deleted_poolEl@Base 12.0.3
 _ZN5PGMap12stat_osd_addEiRK10osd_stat_t@Base 12.0.3
 _ZN5PGMap12stat_osd_subEiRK10osd_stat_t@Base 12.0.3
 _ZN5PGMap12update_deltaEPN4ceph6common11CephContextE7utime_tRK11pool_stat_tPS4_S7_PS5_S8_PNSt7__cxx114listISt4pairIS5_S4_EN7mempool14pool_allocatorILNSE_12pool_index_tE25ESD_EEEE@Base 12.0.3
 _ZN5PGMap13encode_digestERK6OSDMapRN4ceph6buffer7v15_2_04listEm@Base 12.0.3
 _ZN5PGMap17apply_incrementalEPN4ceph6common11CephContextERKNS_11IncrementalE@Base 12.0.3
 _ZN5PGMap17calc_purged_snapsEv@Base 12.0.3
 _ZN5PGMap18update_pool_deltasEPN4ceph6common11CephContextE7utime_tRKSt13unordered_mapIi11pool_stat_tSt4hashIiESt8equal_toIiEN7mempool14pool_allocatorILNSB_12pool_index_tE25ESt4pairIKiS6_EEEE@Base 12.0.3
 _ZN5PGMap21calc_osd_sum_by_classERK6OSDMap@Base 12.0.3
 _ZN5PGMap21update_one_pool_deltaEPN4ceph6common11CephContextE7utime_tlRK11pool_stat_t@Base 12.0.3
 _ZN5PGMap23generate_test_instancesERNSt7__cxx114listIPS_SaIS2_EEE@Base 12.0.3
 _ZN5PGMap6decodeERN4ceph6buffer7v15_2_04list13iterator_implILb1EEE@Base 12.0.3
 _ZN5PGMapD0Ev@Base 12.0.3
 _ZN5PGMapD1Ev@Base 12.0.3
 _ZN5PGMapD2Ev@Base 12.0.3
 _ZN5PGMapdlEPv@Base 12.0.3
 _ZN5PGMapnwEm@Base 12.0.3
 _ZN5_denc14container_baseISt3mapNS_15maplike_detailsIS1_I18OSDPerfMetricQuery19OSDPerfMetricReportSt4lessIS3_ESaISt4pairIKS3_S4_EEEEEJS3_S4_S6_SA_EE12bound_encodeIS7_IS3_S4_EEEvRKSB_Rmm@Base 12.0.3
 _ZN5_denc14container_baseISt3mapNS_15maplike_detailsIS1_I18OSDPerfMetricQuery19OSDPerfMetricReportSt4lessIS3_ESaISt4pairIKS3_S4_EEEEEJS3_S4_S6_SA_EE13encode_noheadERKSB_RN4ceph6buffer7v15_2_04list19contiguous_appenderEm@Base 12.0.3
 _ZN5_denc14container_baseISt3mapNS_15maplike_detailsIS1_I18OSDPerfMetricQuery19OSDPerfMetricReportSt4lessIS3_ESaISt4pairIKS3_S4_EEEEEJS3_S4_S6_SA_EE6decodeERSB_RN4ceph6buffer7v15_2_03ptr13iterator_implILb1EEEm@Base 12.0.3
 _ZN5_denc14container_baseISt3mapNS_15maplike_detailsIS1_I18OSDPerfMetricQuerySt3setI18OSDPerfMetricLimitSt4lessIS5_ESaIS5_EES6_IS3_ESaISt4pairIKS3_S9_EEEEEJS3_S9_SA_SE_EE12bound_encodeISB_IS3_S9_EEEvRKSF_Rmm@Base 12.0.3
 _ZN5_denc14container_baseISt3mapNS_15maplike_detailsIS1_ISt6vectorIS3_INSt7__cxx1112basic_stringIcSt11char_traitsIcESaIcEEESaIS9_EESaISB_EEN4ceph6buffer7v15_2_04listESt4lessISD_ESaISt4pairIKSD_SH_EEEEEJSD_SH_SJ_SN_EE13decode_noheadEmRSO_RNSG_3ptr13iterator_implILb1EEEm@Base 12.0.3
 _ZN5_denc14container_baseISt3mapNS_15maplike_detailsIS1_IjS1_Il12interval_setI8snapid_tN5boost9container8flat_mapIS4_S4_St4lessIS4_EN7mempool14pool_allocatorILNSA_12pool_index_tE23ESt4pairIS4_S4_EEEEEES8_IlENSB_ILSC_23ESD_IKlSH_EEEES8_IjESaISD_IKjSM_EEEEEJjSM_SN_SQ_EE13decode_noheadEmRSR_RN4ceph6buffer7v15_2_03ptr13iterator_implILb1EEEm@Base 12.0.3
 _ZN5_denc14container_baseISt3mapNS_15maplike_detailsIS1_Il12interval_setI8snapid_tN5boost9container8flat_mapIS4_S4_St4lessIS4_EN7mempool14pool_allocatorILNSA_12pool_index_tE23ESt4pairIS4_S4_EEEEEES8_IlENSB_ILSC_23ESD_IKlSH_EEEEEEJlSH_SI_SL_EE6decodeERSM_RN4ceph6buffer7v15_2_03ptr13iterator_implILb1EEEm@Base 12.0.3
 _ZN5boost10cb_details8iteratorINS_15circular_bufferIN4ceph7logging13ConcreteEntryESaIS5_EEENS0_15nonconst_traitsINS0_16allocator_traitsIS6_EEEEEpLEl@Base 12.0.3
 _ZN5boost10lock_errorD0Ev@Base 12.0.3
 _ZN5boost10lock_errorD1Ev@Base 12.0.3
 _ZN5boost10lock_errorD2Ev@Base 12.0.3
 _ZN5boost10shared_ptrINS_6spirit4impl26object_with_id_base_supplyImEEED1Ev@Base 12.0.3
 _ZN5boost10shared_ptrINS_6spirit4impl26object_with_id_base_supplyImEEED2Ev@Base 12.0.3
 _ZN5boost10shared_ptrINS_6spirit7classic4impl26object_with_id_base_supplyImEEED1Ev@Base 12.0.3
 _ZN5boost10shared_ptrINS_6spirit7classic4impl26object_with_id_base_supplyImEEED2Ev@Base 12.0.3
 _ZN5boost10statechart21intrusive_ptr_releaseEPKNS0_10event_baseE@Base 12.0.3
 _ZN5boost10statechart6detail9id_holderI10MNotifyRecE11idProvider_E@Base 12.0.3
 _ZN5boost10statechart6detail9id_holderI12RecoveryDoneE11idProvider_E@Base 12.0.3
 _ZN5boost10statechart6detail9id_holderI13DeferRecoveryE11idProvider_E@Base 12.0.3
 _ZN5boost10statechart6detail9id_holderI19RequestBackfillPrioE11idProvider_E@Base 12.0.3
 _ZN5boost10statechart6detail9id_holderI19RequestRecoveryPrioE11idProvider_E@Base 12.0.3
 _ZN5boost10statechart6detail9id_holderI22RemoteBackfillReservedE11idProvider_E@Base 12.0.3
 _ZN5boost10statechart6detail9id_holderI22RemoteRecoveryReservedE11idProvider_E@Base 12.0.3
 _ZN5boost10statechart6detail9id_holderI24RemoteReservationRevokedE11idProvider_E@Base 12.0.3
 _ZN5boost10statechart6detail9id_holderI25RemoteReservationCanceledE11idProvider_E@Base 12.0.3
 _ZN5boost10statechart6detail9id_holderI31RemoteReservationRevokedTooFullE11idProvider_E@Base 12.0.3
 _ZN5boost10statechart6detail9id_holderI32RemoteReservationRejectedTooFullE11idProvider_E@Base 12.0.3
 _ZN5boost10statechart6detail9id_holderI5MTrimE11idProvider_E@Base 12.0.3
 _ZN5boost10statechart6detail9id_holderI6MLeaseE11idProvider_E@Base 12.0.3
 _ZN5boost10statechart6detail9id_holderI6MQueryE11idProvider_E@Base 12.0.3
 _ZN5boost10statechart6detail9id_holderI7MLogRecE11idProvider_E@Base 12.0.3
 _ZN5boost10statechart6detail9id_holderI8MInfoRecE11idProvider_E@Base 12.0.3
 _ZN5boost10statechart6detail9id_holderI9MLeaseAckE11idProvider_E@Base 12.0.3
 _ZN5boost10wrapexceptINS_10lock_errorEED0Ev@Base 12.0.3
 _ZN5boost10wrapexceptINS_10lock_errorEED1Ev@Base 12.0.3
 _ZN5boost10wrapexceptINS_16bad_lexical_castEED0Ev@Base 12.0.3
 _ZN5boost10wrapexceptINS_16bad_lexical_castEED1Ev@Base 12.0.3
 _ZN5boost10wrapexceptINS_17bad_function_callEED0Ev@Base 12.0.3
 _ZN5boost10wrapexceptINS_17bad_function_callEED1Ev@Base 12.0.3
 _ZN5boost10wrapexceptINS_18escaped_list_errorEED0Ev@Base 12.0.3
 _ZN5boost10wrapexceptINS_18escaped_list_errorEED1Ev@Base 12.0.3
 _ZN5boost10wrapexceptINS_21thread_resource_errorEED0Ev@Base 12.0.3
 _ZN5boost10wrapexceptINS_21thread_resource_errorEED1Ev@Base 12.0.3
 _ZN5boost10wrapexceptINS_2io12too_few_argsEED0Ev@Base 12.0.3
 _ZN5boost10wrapexceptINS_2io12too_few_argsEED1Ev@Base 12.0.3
 _ZN5boost10wrapexceptINS_2io13too_many_argsEED0Ev@Base 12.0.3
 _ZN5boost10wrapexceptINS_2io13too_many_argsEED1Ev@Base 12.0.3
 _ZN5boost10wrapexceptINS_2io17bad_format_stringEED0Ev@Base 12.0.3
 _ZN5boost10wrapexceptINS_2io17bad_format_stringEED1Ev@Base 12.0.3
 _ZN5boost10wrapexceptINS_4asio21invalid_service_ownerEED0Ev@Base 12.0.3
 _ZN5boost10wrapexceptINS_4asio21invalid_service_ownerEED1Ev@Base 12.0.3
 _ZN5boost10wrapexceptINS_4asio22service_already_existsEED0Ev@Base 12.0.3
 _ZN5boost10wrapexceptINS_4asio22service_already_existsEED1Ev@Base 12.0.3
 _ZN5boost10wrapexceptINS_6spirit2qi19expectation_failureINS1_17line_pos_iteratorIPKcEEEEED0Ev@Base 12.0.3
 _ZN5boost10wrapexceptINS_6spirit2qi19expectation_failureINS1_17line_pos_iteratorIPKcEEEEED1Ev@Base 12.0.3
 _ZN5boost10wrapexceptINS_6spirit7classic19multi_pass_policies20illegal_backtrackingEED0Ev@Base 12.0.3
 _ZN5boost10wrapexceptINS_6spirit7classic19multi_pass_policies20illegal_backtrackingEED1Ev@Base 12.0.3
 _ZN5boost10wrapexceptINS_6system12system_errorEED0Ev@Base 12.0.3
 _ZN5boost10wrapexceptINS_6system12system_errorEED1Ev@Base 12.0.3
 _ZN5boost10wrapexceptINS_7bad_getEED0Ev@Base 12.0.3
 _ZN5boost10wrapexceptINS_7bad_getEED1Ev@Base 12.0.3
 _ZN5boost10wrapexceptINSt8ios_base7failureB5cxx11EED0Ev@Base 12.0.3
 _ZN5boost10wrapexceptINSt8ios_base7failureB5cxx11EED1Ev@Base 12.0.3
 _ZN5boost10wrapexceptISt11logic_errorED0Ev@Base 12.0.3
 _ZN5boost10wrapexceptISt11logic_errorED1Ev@Base 12.0.3
 _ZN5boost10wrapexceptISt12out_of_rangeED0Ev@Base 12.0.3
 _ZN5boost10wrapexceptISt12out_of_rangeED1Ev@Base 12.0.3
 _ZN5boost10wrapexceptISt13runtime_errorED0Ev@Base 12.0.3
 _ZN5boost10wrapexceptISt13runtime_errorED1Ev@Base 12.0.3
 _ZN5boost11relaxed_getINSt7__cxx1112basic_stringIcSt11char_traitsIcESaIcEEES6_JbldSt6vectorIS6_SaIS6_EES7_IlSaIlEES7_IdSaIdEEEEENS_13add_referenceIKT_E4typeERKNS_7variantIT0_JDpT1_EEE@Base 12.0.3
 _ZN5boost11relaxed_getINSt7__cxx114listINS_6spirit4infoESaIS4_EEENS4_4nil_EJNS1_12basic_stringIcSt11char_traitsIcESaIcEEENS_17recursive_wrapperIS4_EENSD_ISt4pairIS4_S4_EEENSD_IS6_EEEEENS_13add_referenceIT_E4typeERNS_7variantIT0_JDpT1_EEE@Base 12.0.3
 _ZN5boost11shared_lockISt12shared_mutexE4lockEv@Base 12.0.3
 _ZN5boost11shared_lockISt12shared_mutexE6unlockEv@Base 12.0.3
 _ZN5boost11unique_lockINS_5mutexEE4lockEv@Base 12.0.3
 _ZN5boost12basic_formatIcSt11char_traitsIcESaIcEE18make_or_reuse_dataEm@Base 12.0.3
 _ZN5boost12basic_formatIcSt11char_traitsIcESaIcEE5clearEv@Base 12.0.3
 _ZN5boost12basic_formatIcSt11char_traitsIcESaIcEE5parseERKNSt7__cxx1112basic_stringIcS2_S3_EE@Base 12.0.3
 _ZN5boost12basic_formatIcSt11char_traitsIcESaIcEEC1EPKc@Base 12.0.3
 _ZN5boost12basic_formatIcSt11char_traitsIcESaIcEEC1ERKNSt7__cxx1112basic_stringIcS2_S3_EE@Base 12.0.3
 _ZN5boost12basic_formatIcSt11char_traitsIcESaIcEEC2EPKc@Base 12.0.3
 _ZN5boost12basic_formatIcSt11char_traitsIcESaIcEEC2ERKNSt7__cxx1112basic_stringIcS2_S3_EE@Base 12.0.3
 _ZN5boost12basic_formatIcSt11char_traitsIcESaIcEED1Ev@Base 12.0.3
 _ZN5boost12basic_formatIcSt11char_traitsIcESaIcEED2Ev@Base 12.0.3
 _ZN5boost13intrusive_ptrI15AsyncConnectionED1Ev@Base 12.0.3
 _ZN5boost13intrusive_ptrI15AsyncConnectionED2Ev@Base 12.0.3
 _ZN5boost14checked_deleteINS_9iostreams16symmetric_filterINS1_6detail20zlib_compressor_implISaIcEEES5_E4implEEEvPT_@Base 12.0.3
 _ZN5boost14checked_deleteINS_9iostreams6detail10chain_baseINS1_5chainINS1_6outputEcSt11char_traitsIcESaIcEEEcS7_S8_S5_E10chain_implEEEvPT_@Base 12.0.3
 _ZN5boost14token_iteratorINS_22escaped_list_separatorIcSt11char_traitsIcEEEN9__gnu_cxx17__normal_iteratorIPKcNSt7__cxx1112basic_stringIcS3_SaIcEEEEESC_ED1Ev@Base 12.0.3
 _ZN5boost14token_iteratorINS_22escaped_list_separatorIcSt11char_traitsIcEEEN9__gnu_cxx17__normal_iteratorIPKcNSt7__cxx1112basic_stringIcS3_SaIcEEEEESC_ED2Ev@Base 12.0.3
 _ZN5boost15aligned_storageILm8ELm8EED1Ev@Base 12.0.3
 _ZN5boost15aligned_storageILm8ELm8EED2Ev@Base 12.0.3
 _ZN5boost15throw_exceptionINS_10lock_errorEEEvRKT_@Base 12.0.3
 _ZN5boost15throw_exceptionINS_17bad_function_callEEEvRKT_@Base 12.0.3
 _ZN5boost15throw_exceptionINS_2io12too_few_argsEEEvRKT_@Base 12.0.3
 _ZN5boost15throw_exceptionINS_2io17bad_format_stringEEEvRKT_@Base 12.0.3
 _ZN5boost15throw_exceptionINS_6spirit2qi19expectation_failureINS1_17line_pos_iteratorIPKcEEEEEEvRKT_@Base 12.0.3
 _ZN5boost15throw_exceptionINS_6system12system_errorEEEvRKT_@Base 12.0.3
 _ZN5boost15throw_exceptionINSt8ios_base7failureB5cxx11EEEvRKT_@Base 12.0.3
 _ZN5boost15throw_exceptionISt11logic_errorEEvRKT_@Base 12.0.3
 _ZN5boost16bad_lexical_castD0Ev@Base 12.0.3
 _ZN5boost16bad_lexical_castD1Ev@Base 12.0.3
 _ZN5boost16bad_lexical_castD2Ev@Base 12.0.3
 _ZN5boost16exception_detail10clone_implINS0_19error_info_injectorINS_10lock_errorEEEED0Ev@Base 12.0.3
 _ZN5boost16exception_detail10clone_implINS0_19error_info_injectorINS_10lock_errorEEEED1Ev@Base 12.0.3
 _ZN5boost16exception_detail10clone_implINS0_19error_info_injectorINS_16bad_lexical_castEEEED0Ev@Base 12.0.3
 _ZN5boost16exception_detail10clone_implINS0_19error_info_injectorINS_16bad_lexical_castEEEED1Ev@Base 12.0.3
 _ZN5boost16exception_detail10clone_implINS0_19error_info_injectorINS_17bad_function_callEEEED0Ev@Base 12.0.3
 _ZN5boost16exception_detail10clone_implINS0_19error_info_injectorINS_17bad_function_callEEEED1Ev@Base 12.0.3
 _ZN5boost16exception_detail10clone_implINS0_19error_info_injectorINS_18escaped_list_errorEEEED0Ev@Base 12.0.3
 _ZN5boost16exception_detail10clone_implINS0_19error_info_injectorINS_18escaped_list_errorEEEED1Ev@Base 12.0.3
 _ZN5boost16exception_detail10clone_implINS0_19error_info_injectorINS_21thread_resource_errorEEEED0Ev@Base 12.0.3
 _ZN5boost16exception_detail10clone_implINS0_19error_info_injectorINS_21thread_resource_errorEEEED1Ev@Base 12.0.3
 _ZN5boost16exception_detail10clone_implINS0_19error_info_injectorINS_2io12too_few_argsEEEED0Ev@Base 12.0.3
 _ZN5boost16exception_detail10clone_implINS0_19error_info_injectorINS_2io12too_few_argsEEEED1Ev@Base 12.0.3
 _ZN5boost16exception_detail10clone_implINS0_19error_info_injectorINS_2io13too_many_argsEEEED0Ev@Base 12.0.3
 _ZN5boost16exception_detail10clone_implINS0_19error_info_injectorINS_2io13too_many_argsEEEED1Ev@Base 12.0.3
 _ZN5boost16exception_detail10clone_implINS0_19error_info_injectorINS_2io17bad_format_stringEEEED0Ev@Base 12.0.3
 _ZN5boost16exception_detail10clone_implINS0_19error_info_injectorINS_2io17bad_format_stringEEEED1Ev@Base 12.0.3
 _ZN5boost16exception_detail10clone_implINS0_19error_info_injectorINS_4asio21invalid_service_ownerEEEED0Ev@Base 12.0.3
 _ZN5boost16exception_detail10clone_implINS0_19error_info_injectorINS_4asio21invalid_service_ownerEEEED1Ev@Base 12.0.3
 _ZN5boost16exception_detail10clone_implINS0_19error_info_injectorINS_4asio22service_already_existsEEEED0Ev@Base 12.0.3
 _ZN5boost16exception_detail10clone_implINS0_19error_info_injectorINS_4asio22service_already_existsEEEED1Ev@Base 12.0.3
 _ZN5boost16exception_detail10clone_implINS0_19error_info_injectorINS_6spirit2qi19expectation_failureINS3_17line_pos_iteratorIPKcEEEEEEED0Ev@Base 12.0.3
 _ZN5boost16exception_detail10clone_implINS0_19error_info_injectorINS_6spirit2qi19expectation_failureINS3_17line_pos_iteratorIPKcEEEEEEED1Ev@Base 12.0.3
 _ZN5boost16exception_detail10clone_implINS0_19error_info_injectorINS_6spirit7classic19multi_pass_policies20illegal_backtrackingEEEED0Ev@Base 12.0.3
 _ZN5boost16exception_detail10clone_implINS0_19error_info_injectorINS_6spirit7classic19multi_pass_policies20illegal_backtrackingEEEED1Ev@Base 12.0.3
 _ZN5boost16exception_detail10clone_implINS0_19error_info_injectorINS_6system12system_errorEEEED0Ev@Base 12.0.3
 _ZN5boost16exception_detail10clone_implINS0_19error_info_injectorINS_6system12system_errorEEEED1Ev@Base 12.0.3
 _ZN5boost16exception_detail10clone_implINS0_19error_info_injectorINS_7bad_getEEEED0Ev@Base 12.0.3
 _ZN5boost16exception_detail10clone_implINS0_19error_info_injectorINS_7bad_getEEEED1Ev@Base 12.0.3
 _ZN5boost16exception_detail10clone_implINS0_19error_info_injectorINSt8ios_base7failureB5cxx11EEEED0Ev@Base 12.0.3
 _ZN5boost16exception_detail10clone_implINS0_19error_info_injectorINSt8ios_base7failureB5cxx11EEEED1Ev@Base 12.0.3
 _ZN5boost16exception_detail10clone_implINS0_19error_info_injectorISt11logic_errorEEED0Ev@Base 12.0.3
 _ZN5boost16exception_detail10clone_implINS0_19error_info_injectorISt11logic_errorEEED1Ev@Base 12.0.3
 _ZN5boost16exception_detail10clone_implINS0_19error_info_injectorISt12out_of_rangeEEED0Ev@Base 12.0.3
 _ZN5boost16exception_detail10clone_implINS0_19error_info_injectorISt12out_of_rangeEEED1Ev@Base 12.0.3
 _ZN5boost16exception_detail10clone_implINS0_19error_info_injectorISt13runtime_errorEEED0Ev@Base 12.0.3
 _ZN5boost16exception_detail10clone_implINS0_19error_info_injectorISt13runtime_errorEEED1Ev@Base 12.0.3
 _ZN5boost16exception_detail11enable_bothINS0_19error_info_injectorISt13runtime_errorEEEENS_10wrapexceptINS0_26remove_error_info_injectorIT_E4typeEEERKS7_@Base 12.0.3
 _ZN5boost16exception_detail11enable_bothINS_10lock_errorEEENS_10wrapexceptINS0_26remove_error_info_injectorIT_E4typeEEERKS5_@Base 12.0.3
 _ZN5boost16exception_detail11enable_bothINS_16bad_lexical_castEEENS_10wrapexceptINS0_26remove_error_info_injectorIT_E4typeEEERKS5_@Base 12.0.3
 _ZN5boost16exception_detail11enable_bothINS_17bad_function_callEEENS_10wrapexceptINS0_26remove_error_info_injectorIT_E4typeEEERKS5_@Base 12.0.3
 _ZN5boost16exception_detail11enable_bothINS_21thread_resource_errorEEENS_10wrapexceptINS0_26remove_error_info_injectorIT_E4typeEEERKS5_@Base 12.0.3
 _ZN5boost16exception_detail11enable_bothINS_2io12too_few_argsEEENS_10wrapexceptINS0_26remove_error_info_injectorIT_E4typeEEERKS6_@Base 12.0.3
 _ZN5boost16exception_detail11enable_bothINS_2io13too_many_argsEEENS_10wrapexceptINS0_26remove_error_info_injectorIT_E4typeEEERKS6_@Base 12.0.3
 _ZN5boost16exception_detail11enable_bothINS_2io17bad_format_stringEEENS_10wrapexceptINS0_26remove_error_info_injectorIT_E4typeEEERKS6_@Base 12.0.3
 _ZN5boost16exception_detail11enable_bothINS_4asio21invalid_service_ownerEEENS_10wrapexceptINS0_26remove_error_info_injectorIT_E4typeEEERKS6_@Base 12.0.3
 _ZN5boost16exception_detail11enable_bothINS_4asio22service_already_existsEEENS_10wrapexceptINS0_26remove_error_info_injectorIT_E4typeEEERKS6_@Base 12.0.3
 _ZN5boost16exception_detail11enable_bothINS_6spirit2qi19expectation_failureINS2_17line_pos_iteratorIPKcEEEEEENS_10wrapexceptINS0_26remove_error_info_injectorIT_E4typeEEERKSC_@Base 12.0.3
 _ZN5boost16exception_detail11enable_bothINS_6system12system_errorEEENS_10wrapexceptINS0_26remove_error_info_injectorIT_E4typeEEERKS6_@Base 12.0.3
 _ZN5boost16exception_detail11enable_bothINSt8ios_base7failureB5cxx11EEENS_10wrapexceptINS0_26remove_error_info_injectorIT_E4typeEEERKS6_@Base 12.0.3
 _ZN5boost16exception_detail11enable_bothISt11logic_errorEENS_10wrapexceptINS0_26remove_error_info_injectorIT_E4typeEEERKS5_@Base 12.0.3
 _ZN5boost16exception_detail11enable_bothISt12out_of_rangeEENS_10wrapexceptINS0_26remove_error_info_injectorIT_E4typeEEERKS5_@Base 12.0.3
 _ZN5boost16exception_detail16throw_exception_INS_18escaped_list_errorEEEvRKT_PKcS7_i@Base 12.0.3
 _ZN5boost16exception_detail19error_info_injectorINS_10lock_errorEEC1ERKS3_@Base 12.0.3
 _ZN5boost16exception_detail19error_info_injectorINS_10lock_errorEEC2ERKS3_@Base 12.0.3
 _ZN5boost16exception_detail19error_info_injectorINS_10lock_errorEED0Ev@Base 12.0.3
 _ZN5boost16exception_detail19error_info_injectorINS_10lock_errorEED1Ev@Base 12.0.3
 _ZN5boost16exception_detail19error_info_injectorINS_10lock_errorEED2Ev@Base 12.0.3
 _ZN5boost16exception_detail19error_info_injectorINS_16bad_lexical_castEEC1ERKS3_@Base 12.0.3
 _ZN5boost16exception_detail19error_info_injectorINS_16bad_lexical_castEEC2ERKS3_@Base 12.0.3
 _ZN5boost16exception_detail19error_info_injectorINS_16bad_lexical_castEED0Ev@Base 12.0.3
 _ZN5boost16exception_detail19error_info_injectorINS_16bad_lexical_castEED1Ev@Base 12.0.3
 _ZN5boost16exception_detail19error_info_injectorINS_16bad_lexical_castEED2Ev@Base 12.0.3
 _ZN5boost16exception_detail19error_info_injectorINS_17bad_function_callEEC1ERKS3_@Base 12.0.3
 _ZN5boost16exception_detail19error_info_injectorINS_17bad_function_callEEC2ERKS3_@Base 12.0.3
 _ZN5boost16exception_detail19error_info_injectorINS_17bad_function_callEED0Ev@Base 12.0.3
 _ZN5boost16exception_detail19error_info_injectorINS_17bad_function_callEED1Ev@Base 12.0.3
 _ZN5boost16exception_detail19error_info_injectorINS_17bad_function_callEED2Ev@Base 12.0.3
 _ZN5boost16exception_detail19error_info_injectorINS_18escaped_list_errorEEC1ERKS3_@Base 12.0.3
 _ZN5boost16exception_detail19error_info_injectorINS_18escaped_list_errorEEC2ERKS3_@Base 12.0.3
 _ZN5boost16exception_detail19error_info_injectorINS_18escaped_list_errorEED0Ev@Base 12.0.3
 _ZN5boost16exception_detail19error_info_injectorINS_18escaped_list_errorEED1Ev@Base 12.0.3
 _ZN5boost16exception_detail19error_info_injectorINS_18escaped_list_errorEED2Ev@Base 12.0.3
 _ZN5boost16exception_detail19error_info_injectorINS_21thread_resource_errorEEC1ERKS3_@Base 12.0.3
 _ZN5boost16exception_detail19error_info_injectorINS_21thread_resource_errorEEC2ERKS3_@Base 12.0.3
 _ZN5boost16exception_detail19error_info_injectorINS_21thread_resource_errorEED0Ev@Base 12.0.3
 _ZN5boost16exception_detail19error_info_injectorINS_21thread_resource_errorEED1Ev@Base 12.0.3
 _ZN5boost16exception_detail19error_info_injectorINS_21thread_resource_errorEED2Ev@Base 12.0.3
 _ZN5boost16exception_detail19error_info_injectorINS_2io12too_few_argsEEC1ERKS4_@Base 12.0.3
 _ZN5boost16exception_detail19error_info_injectorINS_2io12too_few_argsEEC2ERKS4_@Base 12.0.3
 _ZN5boost16exception_detail19error_info_injectorINS_2io12too_few_argsEED0Ev@Base 12.0.3
 _ZN5boost16exception_detail19error_info_injectorINS_2io12too_few_argsEED1Ev@Base 12.0.3
 _ZN5boost16exception_detail19error_info_injectorINS_2io12too_few_argsEED2Ev@Base 12.0.3
 _ZN5boost16exception_detail19error_info_injectorINS_2io13too_many_argsEEC1ERKS4_@Base 12.0.3
 _ZN5boost16exception_detail19error_info_injectorINS_2io13too_many_argsEEC2ERKS4_@Base 12.0.3
 _ZN5boost16exception_detail19error_info_injectorINS_2io13too_many_argsEED0Ev@Base 12.0.3
 _ZN5boost16exception_detail19error_info_injectorINS_2io13too_many_argsEED1Ev@Base 12.0.3
 _ZN5boost16exception_detail19error_info_injectorINS_2io13too_many_argsEED2Ev@Base 12.0.3
 _ZN5boost16exception_detail19error_info_injectorINS_2io17bad_format_stringEEC1ERKS4_@Base 12.0.3
 _ZN5boost16exception_detail19error_info_injectorINS_2io17bad_format_stringEEC2ERKS4_@Base 12.0.3
 _ZN5boost16exception_detail19error_info_injectorINS_2io17bad_format_stringEED0Ev@Base 12.0.3
 _ZN5boost16exception_detail19error_info_injectorINS_2io17bad_format_stringEED1Ev@Base 12.0.3
 _ZN5boost16exception_detail19error_info_injectorINS_2io17bad_format_stringEED2Ev@Base 12.0.3
 _ZN5boost16exception_detail19error_info_injectorINS_4asio21invalid_service_ownerEEC1ERKS4_@Base 12.0.3
 _ZN5boost16exception_detail19error_info_injectorINS_4asio21invalid_service_ownerEEC2ERKS4_@Base 12.0.3
 _ZN5boost16exception_detail19error_info_injectorINS_4asio21invalid_service_ownerEED0Ev@Base 12.0.3
 _ZN5boost16exception_detail19error_info_injectorINS_4asio21invalid_service_ownerEED1Ev@Base 12.0.3
 _ZN5boost16exception_detail19error_info_injectorINS_4asio21invalid_service_ownerEED2Ev@Base 12.0.3
 _ZN5boost16exception_detail19error_info_injectorINS_4asio22service_already_existsEEC1ERKS4_@Base 12.0.3
 _ZN5boost16exception_detail19error_info_injectorINS_4asio22service_already_existsEEC2ERKS4_@Base 12.0.3
 _ZN5boost16exception_detail19error_info_injectorINS_4asio22service_already_existsEED0Ev@Base 12.0.3
 _ZN5boost16exception_detail19error_info_injectorINS_4asio22service_already_existsEED1Ev@Base 12.0.3
 _ZN5boost16exception_detail19error_info_injectorINS_4asio22service_already_existsEED2Ev@Base 12.0.3
 _ZN5boost16exception_detail19error_info_injectorINS_6spirit2qi19expectation_failureINS2_17line_pos_iteratorIPKcEEEEEC1ERKSA_@Base 12.0.3
 _ZN5boost16exception_detail19error_info_injectorINS_6spirit2qi19expectation_failureINS2_17line_pos_iteratorIPKcEEEEEC2ERKSA_@Base 12.0.3
 _ZN5boost16exception_detail19error_info_injectorINS_6spirit2qi19expectation_failureINS2_17line_pos_iteratorIPKcEEEEED0Ev@Base 12.0.3
 _ZN5boost16exception_detail19error_info_injectorINS_6spirit2qi19expectation_failureINS2_17line_pos_iteratorIPKcEEEEED1Ev@Base 12.0.3
 _ZN5boost16exception_detail19error_info_injectorINS_6spirit2qi19expectation_failureINS2_17line_pos_iteratorIPKcEEEEED2Ev@Base 12.0.3
 _ZN5boost16exception_detail19error_info_injectorINS_6spirit7classic19multi_pass_policies20illegal_backtrackingEEC1ERKS6_@Base 12.0.3
 _ZN5boost16exception_detail19error_info_injectorINS_6spirit7classic19multi_pass_policies20illegal_backtrackingEEC2ERKS6_@Base 12.0.3
 _ZN5boost16exception_detail19error_info_injectorINS_6spirit7classic19multi_pass_policies20illegal_backtrackingEED0Ev@Base 12.0.3
 _ZN5boost16exception_detail19error_info_injectorINS_6spirit7classic19multi_pass_policies20illegal_backtrackingEED1Ev@Base 12.0.3
 _ZN5boost16exception_detail19error_info_injectorINS_6spirit7classic19multi_pass_policies20illegal_backtrackingEED2Ev@Base 12.0.3
 _ZN5boost16exception_detail19error_info_injectorINS_6system12system_errorEEC1ERKS4_@Base 12.0.3
 _ZN5boost16exception_detail19error_info_injectorINS_6system12system_errorEEC2ERKS4_@Base 12.0.3
 _ZN5boost16exception_detail19error_info_injectorINS_6system12system_errorEED0Ev@Base 12.0.3
 _ZN5boost16exception_detail19error_info_injectorINS_6system12system_errorEED1Ev@Base 12.0.3
 _ZN5boost16exception_detail19error_info_injectorINS_6system12system_errorEED2Ev@Base 12.0.3
 _ZN5boost16exception_detail19error_info_injectorINS_7bad_getEEC1ERKS3_@Base 12.0.3
 _ZN5boost16exception_detail19error_info_injectorINS_7bad_getEEC2ERKS3_@Base 12.0.3
 _ZN5boost16exception_detail19error_info_injectorINS_7bad_getEED0Ev@Base 12.0.3
 _ZN5boost16exception_detail19error_info_injectorINS_7bad_getEED1Ev@Base 12.0.3
 _ZN5boost16exception_detail19error_info_injectorINS_7bad_getEED2Ev@Base 12.0.3
 _ZN5boost16exception_detail19error_info_injectorINSt8ios_base7failureB5cxx11EEC1ERKS4_@Base 12.0.3
 _ZN5boost16exception_detail19error_info_injectorINSt8ios_base7failureB5cxx11EEC2ERKS4_@Base 12.0.3
 _ZN5boost16exception_detail19error_info_injectorINSt8ios_base7failureB5cxx11EED0Ev@Base 12.0.3
 _ZN5boost16exception_detail19error_info_injectorINSt8ios_base7failureB5cxx11EED1Ev@Base 12.0.3
 _ZN5boost16exception_detail19error_info_injectorINSt8ios_base7failureB5cxx11EED2Ev@Base 12.0.3
 _ZN5boost16exception_detail19error_info_injectorISt11logic_errorEC1ERKS3_@Base 12.0.3
 _ZN5boost16exception_detail19error_info_injectorISt11logic_errorEC2ERKS3_@Base 12.0.3
 _ZN5boost16exception_detail19error_info_injectorISt11logic_errorED0Ev@Base 12.0.3
 _ZN5boost16exception_detail19error_info_injectorISt11logic_errorED1Ev@Base 12.0.3
 _ZN5boost16exception_detail19error_info_injectorISt11logic_errorED2Ev@Base 12.0.3
 _ZN5boost16exception_detail19error_info_injectorISt12out_of_rangeEC1ERKS3_@Base 12.0.3
 _ZN5boost16exception_detail19error_info_injectorISt12out_of_rangeEC2ERKS3_@Base 12.0.3
 _ZN5boost16exception_detail19error_info_injectorISt12out_of_rangeED0Ev@Base 12.0.3
 _ZN5boost16exception_detail19error_info_injectorISt12out_of_rangeED1Ev@Base 12.0.3
 _ZN5boost16exception_detail19error_info_injectorISt12out_of_rangeED2Ev@Base 12.0.3
 _ZN5boost16exception_detail19error_info_injectorISt13runtime_errorEC1ERKS3_@Base 12.0.3
 _ZN5boost16exception_detail19error_info_injectorISt13runtime_errorEC2ERKS3_@Base 12.0.3
 _ZN5boost16exception_detail19error_info_injectorISt13runtime_errorED0Ev@Base 12.0.3
 _ZN5boost16exception_detail19error_info_injectorISt13runtime_errorED1Ev@Base 12.0.3
 _ZN5boost16exception_detail19error_info_injectorISt13runtime_errorED2Ev@Base 12.0.3
 _ZN5boost16exception_detail20copy_boost_exceptionEPNS_9exceptionEPKS1_@Base 12.0.3
 _ZN5boost16thread_exceptionD0Ev@Base 12.0.3
 _ZN5boost16thread_exceptionD1Ev@Base 12.0.3
 _ZN5boost16thread_exceptionD2Ev@Base 12.0.3
 _ZN5boost17bad_function_callD0Ev@Base 12.0.3
 _ZN5boost17bad_function_callD1Ev@Base 12.0.3
 _ZN5boost17bad_function_callD2Ev@Base 12.0.3
 _ZN5boost17recursive_wrapperINS_6spirit4infoEEC1EOS3_@Base 12.0.3
 _ZN5boost17recursive_wrapperINS_6spirit4infoEEC2EOS3_@Base 12.0.3
 _ZN5boost17recursive_wrapperINSt7__cxx114listINS_6spirit4infoESaIS4_EEEEC1EOS7_@Base 12.0.3
 _ZN5boost17recursive_wrapperINSt7__cxx114listINS_6spirit4infoESaIS4_EEEEC1ERKS7_@Base 12.0.3
 _ZN5boost17recursive_wrapperINSt7__cxx114listINS_6spirit4infoESaIS4_EEEEC2EOS7_@Base 12.0.3
 _ZN5boost17recursive_wrapperINSt7__cxx114listINS_6spirit4infoESaIS4_EEEEC2ERKS7_@Base 12.0.3
 _ZN5boost17recursive_wrapperISt3mapINSt7__cxx1112basic_stringIcSt11char_traitsIcESaIcEEEN11json_spirit10Value_implINS8_10Config_mapIS7_EEEESt4lessIS7_ESaISt4pairIKS7_SC_EEEEC1EOSK_@Base 12.0.3
 _ZN5boost17recursive_wrapperISt3mapINSt7__cxx1112basic_stringIcSt11char_traitsIcESaIcEEEN11json_spirit10Value_implINS8_10Config_mapIS7_EEEESt4lessIS7_ESaISt4pairIKS7_SC_EEEEC1ERKSJ_@Base 12.0.3
 _ZN5boost17recursive_wrapperISt3mapINSt7__cxx1112basic_stringIcSt11char_traitsIcESaIcEEEN11json_spirit10Value_implINS8_10Config_mapIS7_EEEESt4lessIS7_ESaISt4pairIKS7_SC_EEEEC2EOSK_@Base 12.0.3
 _ZN5boost17recursive_wrapperISt3mapINSt7__cxx1112basic_stringIcSt11char_traitsIcESaIcEEEN11json_spirit10Value_implINS8_10Config_mapIS7_EEEESt4lessIS7_ESaISt4pairIKS7_SC_EEEEC2ERKSJ_@Base 12.0.3
 _ZN5boost17recursive_wrapperISt4pairINS_6spirit4infoES3_EEC1EOS5_@Base 12.0.3
 _ZN5boost17recursive_wrapperISt4pairINS_6spirit4infoES3_EEC2EOS5_@Base 12.0.3
 _ZN5boost17recursive_wrapperISt6vectorIN11json_spirit10Value_implINS2_10Config_mapINSt7__cxx1112basic_stringIcSt11char_traitsIcESaIcEEEEEEESaISC_EEEC1EOSF_@Base 12.0.3
 _ZN5boost17recursive_wrapperISt6vectorIN11json_spirit10Value_implINS2_10Config_mapINSt7__cxx1112basic_stringIcSt11char_traitsIcESaIcEEEEEEESaISC_EEEC1ERKSE_@Base 12.0.3
 _ZN5boost17recursive_wrapperISt6vectorIN11json_spirit10Value_implINS2_10Config_mapINSt7__cxx1112basic_stringIcSt11char_traitsIcESaIcEEEEEEESaISC_EEEC2EOSF_@Base 12.0.3
 _ZN5boost17recursive_wrapperISt6vectorIN11json_spirit10Value_implINS2_10Config_mapINSt7__cxx1112basic_stringIcSt11char_traitsIcESaIcEEEEEEESaISC_EEEC2ERKSE_@Base 12.0.3
 _ZN5boost17recursive_wrapperISt6vectorIN11json_spirit10Value_implINS2_13Config_vectorINSt7__cxx1112basic_stringIcSt11char_traitsIcESaIcEEEEEEESaISC_EEEC1EOSF_@Base 12.0.3
 _ZN5boost17recursive_wrapperISt6vectorIN11json_spirit10Value_implINS2_13Config_vectorINSt7__cxx1112basic_stringIcSt11char_traitsIcESaIcEEEEEEESaISC_EEEC1ERKSE_@Base 12.0.3
 _ZN5boost17recursive_wrapperISt6vectorIN11json_spirit10Value_implINS2_13Config_vectorINSt7__cxx1112basic_stringIcSt11char_traitsIcESaIcEEEEEEESaISC_EEEC2EOSF_@Base 12.0.3
 _ZN5boost17recursive_wrapperISt6vectorIN11json_spirit10Value_implINS2_13Config_vectorINSt7__cxx1112basic_stringIcSt11char_traitsIcESaIcEEEEEEESaISC_EEEC2ERKSE_@Base 12.0.3
 _ZN5boost17recursive_wrapperISt6vectorIN11json_spirit9Pair_implINS2_13Config_vectorINSt7__cxx1112basic_stringIcSt11char_traitsIcESaIcEEEEEEESaISC_EEEC1EOSF_@Base 12.0.3
 _ZN5boost17recursive_wrapperISt6vectorIN11json_spirit9Pair_implINS2_13Config_vectorINSt7__cxx1112basic_stringIcSt11char_traitsIcESaIcEEEEEEESaISC_EEEC1ERKSE_@Base 12.0.3
 _ZN5boost17recursive_wrapperISt6vectorIN11json_spirit9Pair_implINS2_13Config_vectorINSt7__cxx1112basic_stringIcSt11char_traitsIcESaIcEEEEEEESaISC_EEEC1ERKSF_@Base 12.0.3
 _ZN5boost17recursive_wrapperISt6vectorIN11json_spirit9Pair_implINS2_13Config_vectorINSt7__cxx1112basic_stringIcSt11char_traitsIcESaIcEEEEEEESaISC_EEEC2EOSF_@Base 12.0.3
 _ZN5boost17recursive_wrapperISt6vectorIN11json_spirit9Pair_implINS2_13Config_vectorINSt7__cxx1112basic_stringIcSt11char_traitsIcESaIcEEEEEEESaISC_EEEC2ERKSE_@Base 12.0.3
 _ZN5boost17recursive_wrapperISt6vectorIN11json_spirit9Pair_implINS2_13Config_vectorINSt7__cxx1112basic_stringIcSt11char_traitsIcESaIcEEEEEEESaISC_EEEC2ERKSF_@Base 12.0.3
 _ZN5boost18escaped_list_errorD0Ev@Base 12.0.3
 _ZN5boost18escaped_list_errorD1Ev@Base 12.0.3
 _ZN5boost18escaped_list_errorD2Ev@Base 12.0.3
 _ZN5boost19thread_specific_ptrINS_8weak_ptrINS_6spirit7classic4impl14grammar_helperINS3_7grammarIN11json_spirit12Json_grammerINS7_10Value_implINS7_10Config_mapINSt7__cxx1112basic_stringIcSt11char_traitsIcESaIcEEEEEEEN9__gnu_cxx17__normal_iteratorIPKcSG_EEEENS3_14parser_contextINS3_5nil_tEEEEESO_NS3_7scannerISN_NS3_16scanner_policiesINS3_24skipper_iteration_policyINS3_16iteration_policyEEENS3_12match_policyENS3_13action_policyEEEEEEEEEE14cleanup_callerEPFvPvES15_@Base 12.0.3
 _ZN5boost19thread_specific_ptrINS_8weak_ptrINS_6spirit7classic4impl14grammar_helperINS3_7grammarIN11json_spirit12Json_grammerINS7_10Value_implINS7_10Config_mapINSt7__cxx1112basic_stringIcSt11char_traitsIcESaIcEEEEEEEN9__gnu_cxx17__normal_iteratorIPKcSG_EEEENS3_14parser_contextINS3_5nil_tEEEEESO_NS3_7scannerISN_NS3_16scanner_policiesINS3_24skipper_iteration_policyINS3_16iteration_policyEEENS3_12match_policyENS3_13action_policyEEEEEEEEEE15default_deleterEPS13_@Base 12.0.3
 _ZN5boost19thread_specific_ptrINS_8weak_ptrINS_6spirit7classic4impl14grammar_helperINS3_7grammarIN11json_spirit12Json_grammerINS7_10Value_implINS7_10Config_mapINSt7__cxx1112basic_stringIcSt11char_traitsIcESaIcEEEEEEENS3_10multi_passISt16istream_iteratorIccSE_lENS3_19multi_pass_policies14input_iteratorENSM_11ref_countedENSM_12buf_id_checkENSM_9std_dequeEEEEENS3_14parser_contextINS3_5nil_tEEEEESS_NS3_7scannerISR_NS3_16scanner_policiesINS3_24skipper_iteration_policyINS3_16iteration_policyEEENS3_12match_policyENS3_13action_policyEEEEEEEEEE14cleanup_callerEPFvPvES19_@Base 12.0.3
 _ZN5boost19thread_specific_ptrINS_8weak_ptrINS_6spirit7classic4impl14grammar_helperINS3_7grammarIN11json_spirit12Json_grammerINS7_10Value_implINS7_10Config_mapINSt7__cxx1112basic_stringIcSt11char_traitsIcESaIcEEEEEEENS3_10multi_passISt16istream_iteratorIccSE_lENS3_19multi_pass_policies14input_iteratorENSM_11ref_countedENSM_12buf_id_checkENSM_9std_dequeEEEEENS3_14parser_contextINS3_5nil_tEEEEESS_NS3_7scannerISR_NS3_16scanner_policiesINS3_24skipper_iteration_policyINS3_16iteration_policyEEENS3_12match_policyENS3_13action_policyEEEEEEEEEE15default_deleterEPS17_@Base 12.0.3
 _ZN5boost19thread_specific_ptrINS_8weak_ptrINS_6spirit7classic4impl14grammar_helperINS3_7grammarIN11json_spirit12Json_grammerINS7_10Value_implINS7_10Config_mapINSt7__cxx1112basic_stringIcSt11char_traitsIcESaIcEEEEEEENS3_17position_iteratorIN9__gnu_cxx17__normal_iteratorIPKcSG_EENS3_18file_position_baseISG_EENS3_5nil_tEEEEENS3_14parser_contextISR_EEEEST_NS3_7scannerISS_NS3_16scanner_policiesINS3_24skipper_iteration_policyINS3_16iteration_policyEEENS3_12match_policyENS3_13action_policyEEEEEEEEEE14cleanup_callerEPFvPvES19_@Base 12.0.3
 _ZN5boost19thread_specific_ptrINS_8weak_ptrINS_6spirit7classic4impl14grammar_helperINS3_7grammarIN11json_spirit12Json_grammerINS7_10Value_implINS7_10Config_mapINSt7__cxx1112basic_stringIcSt11char_traitsIcESaIcEEEEEEENS3_17position_iteratorIN9__gnu_cxx17__normal_iteratorIPKcSG_EENS3_18file_position_baseISG_EENS3_5nil_tEEEEENS3_14parser_contextISR_EEEEST_NS3_7scannerISS_NS3_16scanner_policiesINS3_24skipper_iteration_policyINS3_16iteration_policyEEENS3_12match_policyENS3_13action_policyEEEEEEEEEE15default_deleterEPS17_@Base 12.0.3
 _ZN5boost19thread_specific_ptrINS_8weak_ptrINS_6spirit7classic4impl14grammar_helperINS3_7grammarIN11json_spirit12Json_grammerINS7_10Value_implINS7_10Config_mapINSt7__cxx1112basic_stringIcSt11char_traitsIcESaIcEEEEEEENS3_17position_iteratorINS3_10multi_passISt16istream_iteratorIccSE_lENS3_19multi_pass_policies14input_iteratorENSN_11ref_countedENSN_12buf_id_checkENSN_9std_dequeEEENS3_18file_position_baseISG_EENS3_5nil_tEEEEENS3_14parser_contextISV_EEEESX_NS3_7scannerISW_NS3_16scanner_policiesINS3_24skipper_iteration_policyINS3_16iteration_policyEEENS3_12match_policyENS3_13action_policyEEEEEEEEEE14cleanup_callerEPFvPvES1D_@Base 12.0.3
 _ZN5boost19thread_specific_ptrINS_8weak_ptrINS_6spirit7classic4impl14grammar_helperINS3_7grammarIN11json_spirit12Json_grammerINS7_10Value_implINS7_10Config_mapINSt7__cxx1112basic_stringIcSt11char_traitsIcESaIcEEEEEEENS3_17position_iteratorINS3_10multi_passISt16istream_iteratorIccSE_lENS3_19multi_pass_policies14input_iteratorENSN_11ref_countedENSN_12buf_id_checkENSN_9std_dequeEEENS3_18file_position_baseISG_EENS3_5nil_tEEEEENS3_14parser_contextISV_EEEESX_NS3_7scannerISW_NS3_16scanner_policiesINS3_24skipper_iteration_policyINS3_16iteration_policyEEENS3_12match_policyENS3_13action_policyEEEEEEEEEE15default_deleterEPS1B_@Base 12.0.3
 _ZN5boost19thread_specific_ptrINS_8weak_ptrINS_6spirit7classic4impl14grammar_helperINS3_7grammarIN11json_spirit12Json_grammerINS7_10Value_implINS7_13Config_vectorINSt7__cxx1112basic_stringIcSt11char_traitsIcESaIcEEEEEEEN9__gnu_cxx17__normal_iteratorIPKcSG_EEEENS3_14parser_contextINS3_5nil_tEEEEESO_NS3_7scannerISN_NS3_16scanner_policiesINS3_24skipper_iteration_policyINS3_16iteration_policyEEENS3_12match_policyENS3_13action_policyEEEEEEEEEE14cleanup_callerEPFvPvES15_@Base 12.0.3
 _ZN5boost19thread_specific_ptrINS_8weak_ptrINS_6spirit7classic4impl14grammar_helperINS3_7grammarIN11json_spirit12Json_grammerINS7_10Value_implINS7_13Config_vectorINSt7__cxx1112basic_stringIcSt11char_traitsIcESaIcEEEEEEEN9__gnu_cxx17__normal_iteratorIPKcSG_EEEENS3_14parser_contextINS3_5nil_tEEEEESO_NS3_7scannerISN_NS3_16scanner_policiesINS3_24skipper_iteration_policyINS3_16iteration_policyEEENS3_12match_policyENS3_13action_policyEEEEEEEEEE15default_deleterEPS13_@Base 12.0.3
 _ZN5boost19thread_specific_ptrINS_8weak_ptrINS_6spirit7classic4impl14grammar_helperINS3_7grammarIN11json_spirit12Json_grammerINS7_10Value_implINS7_13Config_vectorINSt7__cxx1112basic_stringIcSt11char_traitsIcESaIcEEEEEEENS3_10multi_passISt16istream_iteratorIccSE_lENS3_19multi_pass_policies14input_iteratorENSM_11ref_countedENSM_12buf_id_checkENSM_9std_dequeEEEEENS3_14parser_contextINS3_5nil_tEEEEESS_NS3_7scannerISR_NS3_16scanner_policiesINS3_24skipper_iteration_policyINS3_16iteration_policyEEENS3_12match_policyENS3_13action_policyEEEEEEEEEE14cleanup_callerEPFvPvES19_@Base 12.0.3
 _ZN5boost19thread_specific_ptrINS_8weak_ptrINS_6spirit7classic4impl14grammar_helperINS3_7grammarIN11json_spirit12Json_grammerINS7_10Value_implINS7_13Config_vectorINSt7__cxx1112basic_stringIcSt11char_traitsIcESaIcEEEEEEENS3_10multi_passISt16istream_iteratorIccSE_lENS3_19multi_pass_policies14input_iteratorENSM_11ref_countedENSM_12buf_id_checkENSM_9std_dequeEEEEENS3_14parser_contextINS3_5nil_tEEEEESS_NS3_7scannerISR_NS3_16scanner_policiesINS3_24skipper_iteration_policyINS3_16iteration_policyEEENS3_12match_policyENS3_13action_policyEEEEEEEEEE15default_deleterEPS17_@Base 12.0.3
 _ZN5boost19thread_specific_ptrINS_8weak_ptrINS_6spirit7classic4impl14grammar_helperINS3_7grammarIN11json_spirit12Json_grammerINS7_10Value_implINS7_13Config_vectorINSt7__cxx1112basic_stringIcSt11char_traitsIcESaIcEEEEEEENS3_17position_iteratorIN9__gnu_cxx17__normal_iteratorIPKcSG_EENS3_18file_position_baseISG_EENS3_5nil_tEEEEENS3_14parser_contextISR_EEEEST_NS3_7scannerISS_NS3_16scanner_policiesINS3_24skipper_iteration_policyINS3_16iteration_policyEEENS3_12match_policyENS3_13action_policyEEEEEEEEEE14cleanup_callerEPFvPvES19_@Base 12.0.3
 _ZN5boost19thread_specific_ptrINS_8weak_ptrINS_6spirit7classic4impl14grammar_helperINS3_7grammarIN11json_spirit12Json_grammerINS7_10Value_implINS7_13Config_vectorINSt7__cxx1112basic_stringIcSt11char_traitsIcESaIcEEEEEEENS3_17position_iteratorIN9__gnu_cxx17__normal_iteratorIPKcSG_EENS3_18file_position_baseISG_EENS3_5nil_tEEEEENS3_14parser_contextISR_EEEEST_NS3_7scannerISS_NS3_16scanner_policiesINS3_24skipper_iteration_policyINS3_16iteration_policyEEENS3_12match_policyENS3_13action_policyEEEEEEEEEE15default_deleterEPS17_@Base 12.0.3
 _ZN5boost19thread_specific_ptrINS_8weak_ptrINS_6spirit7classic4impl14grammar_helperINS3_7grammarIN11json_spirit12Json_grammerINS7_10Value_implINS7_13Config_vectorINSt7__cxx1112basic_stringIcSt11char_traitsIcESaIcEEEEEEENS3_17position_iteratorINS3_10multi_passISt16istream_iteratorIccSE_lENS3_19multi_pass_policies14input_iteratorENSN_11ref_countedENSN_12buf_id_checkENSN_9std_dequeEEENS3_18file_position_baseISG_EENS3_5nil_tEEEEENS3_14parser_contextISV_EEEESX_NS3_7scannerISW_NS3_16scanner_policiesINS3_24skipper_iteration_policyINS3_16iteration_policyEEENS3_12match_policyENS3_13action_policyEEEEEEEEEE14cleanup_callerEPFvPvES1D_@Base 12.0.3
 _ZN5boost19thread_specific_ptrINS_8weak_ptrINS_6spirit7classic4impl14grammar_helperINS3_7grammarIN11json_spirit12Json_grammerINS7_10Value_implINS7_13Config_vectorINSt7__cxx1112basic_stringIcSt11char_traitsIcESaIcEEEEEEENS3_17position_iteratorINS3_10multi_passISt16istream_iteratorIccSE_lENS3_19multi_pass_policies14input_iteratorENSN_11ref_countedENSN_12buf_id_checkENSN_9std_dequeEEENS3_18file_position_baseISG_EENS3_5nil_tEEEEENS3_14parser_contextISV_EEEESX_NS3_7scannerISW_NS3_16scanner_policiesINS3_24skipper_iteration_policyINS3_16iteration_policyEEENS3_12match_policyENS3_13action_policyEEEEEEEEEE15default_deleterEPS1B_@Base 12.0.3
 _ZN5boost21thread_resource_errorD0Ev@Base 12.0.3
 _ZN5boost21thread_resource_errorD1Ev@Base 12.0.3
 _ZN5boost21thread_resource_errorD2Ev@Base 12.0.3
 _ZN5boost22escaped_list_separatorIcSt11char_traitsIcEEC1ERKS3_@Base 12.0.3
 _ZN5boost22escaped_list_separatorIcSt11char_traitsIcEEC2ERKS3_@Base 12.0.3
 _ZN5boost22escaped_list_separatorIcSt11char_traitsIcEED1Ev@Base 12.0.3
 _ZN5boost22escaped_list_separatorIcSt11char_traitsIcEED2Ev@Base 12.0.3
 _ZN5boost22escaped_list_separatorIcSt11char_traitsIcEEclIN9__gnu_cxx17__normal_iteratorIPKcNSt7__cxx1112basic_stringIcS2_SaIcEEEEESC_EEbRT_SE_RT0_@Base 12.0.3
 _ZN5boost2io12format_errorD0Ev@Base 12.0.3
 _ZN5boost2io12format_errorD1Ev@Base 12.0.3
 _ZN5boost2io12format_errorD2Ev@Base 12.0.3
 _ZN5boost2io12too_few_argsD0Ev@Base 12.0.3
 _ZN5boost2io12too_few_argsD1Ev@Base 12.0.3
 _ZN5boost2io12too_few_argsD2Ev@Base 12.0.3
 _ZN5boost2io13too_many_argsD0Ev@Base 12.0.3
 _ZN5boost2io13too_many_argsD1Ev@Base 12.0.3
 _ZN5boost2io13too_many_argsD2Ev@Base 12.0.3
 _ZN5boost2io17bad_format_stringD0Ev@Base 12.0.3
 _ZN5boost2io17bad_format_stringD1Ev@Base 12.0.3
 _ZN5boost2io17bad_format_stringD2Ev@Base 12.0.3
 _ZN5boost2io18basic_altstringbufIcSt11char_traitsIcESaIcEE12clear_bufferEv@Base 12.0.3
 _ZN5boost2io18basic_altstringbufIcSt11char_traitsIcESaIcEE7seekoffElSt12_Ios_SeekdirSt13_Ios_Openmode@Base 12.0.3
 _ZN5boost2io18basic_altstringbufIcSt11char_traitsIcESaIcEE7seekposESt4fposI11__mbstate_tESt13_Ios_Openmode@Base 12.0.3
 _ZN5boost2io18basic_altstringbufIcSt11char_traitsIcESaIcEE8overflowEi@Base 12.0.3
 _ZN5boost2io18basic_altstringbufIcSt11char_traitsIcESaIcEE9pbackfailEi@Base 12.0.3
 _ZN5boost2io18basic_altstringbufIcSt11char_traitsIcESaIcEE9underflowEv@Base 12.0.3
 _ZN5boost2io18basic_altstringbufIcSt11char_traitsIcESaIcEED0Ev@Base 12.0.3
 _ZN5boost2io18basic_altstringbufIcSt11char_traitsIcESaIcEED1Ev@Base 12.0.3
 _ZN5boost2io18basic_altstringbufIcSt11char_traitsIcESaIcEED2Ev@Base 12.0.3
 _ZN5boost2io19basic_ios_all_saverIcSt11char_traitsIcEE7restoreEv@Base 12.0.3
 _ZN5boost2io22basic_oaltstringstreamIcSt11char_traitsIcESaIcEED0Ev@Base 12.0.3
 _ZN5boost2io22basic_oaltstringstreamIcSt11char_traitsIcESaIcEED1Ev@Base 12.0.3
 _ZN5boost2io6detail10distributeIcSt11char_traitsIcESaIcERKNS1_10put_holderIcS4_EEEEvRNS_12basic_formatIT_T0_T1_EET2_@Base 12.0.3
 _ZN5boost2io6detail11format_itemIcSt11char_traitsIcESaIcEED1Ev@Base 12.0.3
 _ZN5boost2io6detail11format_itemIcSt11char_traitsIcESaIcEED2Ev@Base 12.0.3
 _ZN5boost2io6detail13call_put_headIcSt11char_traitsIcEKmEEvRSt13basic_ostreamIT_T0_EPKv@Base 12.0.3
 _ZN5boost2io6detail13call_put_headIcSt11char_traitsIcENSt7__cxx1112basic_stringIcS4_SaIcEEEEEvRSt13basic_ostreamIT_T0_EPKv@Base 12.0.3
 _ZN5boost2io6detail13call_put_lastIcSt11char_traitsIcEKmEEvRSt13basic_ostreamIT_T0_EPKv@Base 12.0.3
 _ZN5boost2io6detail13call_put_lastIcSt11char_traitsIcENSt7__cxx1112basic_stringIcS4_SaIcEEEEEvRSt13basic_ostreamIT_T0_EPKv@Base 12.0.3
 _ZN5boost2io6detail21maybe_throw_exceptionEhmm@Base 12.0.3
 _ZN5boost2io6detail22parse_printf_directiveIcSt11char_traitsIcESaIcEN9__gnu_cxx17__normal_iteratorIPKcNSt7__cxx1112basic_stringIcS4_S5_EEEESt5ctypeIcEEEbRT2_RKSG_PNS1_11format_itemIT_T0_T1_EERKT3_mh@Base 12.0.3
 _ZN5boost2io6detail24upper_bound_from_fstringINSt7__cxx1112basic_stringIcSt11char_traitsIcESaIcEEESt5ctypeIcEEEiRKT_NSB_10value_typeERKT0_h@Base 12.0.3
 _ZN5boost2io6detail3putIcSt11char_traitsIcESaIcERKNS1_10put_holderIcS4_EEEEvT2_RKNS1_11format_itemIT_T0_T1_EERNS_12basic_formatISC_SD_SE_E11string_typeERNSJ_20internal_streambuf_tEPSt6locale@Base 12.0.3
 _ZN5boost2io6detail6mk_strIcSt11char_traitsIcESaIcEEEvRNSt7__cxx1112basic_stringIT_T0_T1_EEPKS8_NSB_9size_typeElS8_St13_Ios_FmtflagsS8_b@Base 12.0.3
 _ZN5boost2io6detail7str2intIlN9__gnu_cxx17__normal_iteratorIPKcNSt7__cxx1112basic_stringIcSt11char_traitsIcESaIcEEEEESt5ctypeIcEEET0_RKSG_SI_RT_RKT1_@Base 12.0.3
 _ZN5boost2io6detail9feed_implIcSt11char_traitsIcESaIcERKNS1_10put_holderIcS4_EEEERNS_12basic_formatIT_T0_T1_EESF_T2_@Base 12.0.3
 _ZN5boost3icl13left_subtractINS0_17discrete_intervalIiSt4lessEEEENS_9enable_ifINS0_18has_dynamic_boundsIT_EES7_E4typeES7_RKS7_@Base 12.0.3
 _ZN5boost3icl14right_subtractINS0_17discrete_intervalIiSt4lessEEEENS_9enable_ifINS0_18has_dynamic_boundsIT_EES7_E4typeES7_RKS7_@Base 12.0.3
 _ZN5boost3icl17interval_base_mapINS0_12interval_mapIiSt3setINSt7__cxx1112basic_stringIcSt11char_traitsIcESaIcEEESt4lessIS9_ESaIS9_EENS0_16partial_absorberESA_NS0_12inplace_plusENS0_13inter_sectionENS0_17discrete_intervalIiSA_EESaEEiSD_SE_SA_SF_SG_SI_SaE10gap_insertINSF_ISD_EEEESt17_Rb_tree_iteratorISt4pairIKSI_SD_EESR_RSP_RKSD_@Base 12.0.3
 _ZN5boost3icl17interval_base_mapINS0_12interval_mapIiSt3setINSt7__cxx1112basic_stringIcSt11char_traitsIcESaIcEEESt4lessIS9_ESaIS9_EENS0_16partial_absorberESA_NS0_12inplace_plusENS0_13inter_sectionENS0_17discrete_intervalIiSA_EESaEEiSD_SE_SA_SF_SG_SI_SaE4_addINSF_ISD_EEEESt17_Rb_tree_iteratorISt4pairIKSI_SD_EERKSO_ISI_SD_E@Base 12.0.3
 _ZN5boost3icl17interval_base_mapINS0_12interval_mapIiSt3setINSt7__cxx1112basic_stringIcSt11char_traitsIcESaIcEEESt4lessIS9_ESaIS9_EENS0_16partial_absorberESA_NS0_12inplace_plusENS0_13inter_sectionENS0_17discrete_intervalIiSA_EESaEEiSD_SE_SA_SF_SG_SI_SaE8add_rearINSF_ISD_EEEEvRKSI_RKSD_RSt17_Rb_tree_iteratorISt4pairISN_SD_EE@Base 12.0.3
 _ZN5boost3icl9segmental10join_rightINS0_12interval_mapIiSt3setINSt7__cxx1112basic_stringIcSt11char_traitsIcESaIcEEESt4lessISA_ESaISA_EENS0_16partial_absorberESB_NS0_12inplace_plusENS0_13inter_sectionENS0_17discrete_intervalIiSB_EESaEEEENT_8iteratorERSL_RSM_@Base 12.0.3
 _ZN5boost3icl9segmental9join_leftINS0_12interval_mapIiSt3setINSt7__cxx1112basic_stringIcSt11char_traitsIcESaIcEEESt4lessISA_ESaISA_EENS0_16partial_absorberESB_NS0_12inplace_plusENS0_13inter_sectionENS0_17discrete_intervalIiSB_EESaEEEENT_8iteratorERSL_RSM_@Base 12.0.3
 _ZN5boost4asio10io_contextC1Ev@Base 12.0.3
 _ZN5boost4asio10io_contextC2Ev@Base 12.0.3
 _ZN5boost4asio17execution_context7service11notify_forkENS1_10fork_eventE@Base 12.0.3
 _ZN5boost4asio17execution_contextD1Ev@Base 12.0.3
 _ZN5boost4asio17execution_contextD2Ev@Base 12.0.3
 _ZN5boost4asio21invalid_service_ownerD0Ev@Base 12.0.3
 _ZN5boost4asio21invalid_service_ownerD1Ev@Base 12.0.3
 _ZN5boost4asio21invalid_service_ownerD2Ev@Base 12.0.3
 _ZN5boost4asio22service_already_existsD0Ev@Base 12.0.3
 _ZN5boost4asio22service_already_existsD1Ev@Base 12.0.3
 _ZN5boost4asio22service_already_existsD2Ev@Base 12.0.3
 _ZN5boost4asio2ip22basic_resolver_resultsINS1_3udpEE6createEP8addrinfoRKNSt7__cxx1112basic_stringIcSt11char_traitsIcESaIcEEESE_@Base 12.0.3
 _ZN5boost4asio6detail10call_stackINS1_14strand_service11strand_implEhE4top_E@Base 12.0.3
 _ZN5boost4asio6detail10call_stackINS1_14thread_contextENS1_16thread_info_baseEE4top_E@Base 12.0.3
 _ZN5boost4asio6detail10call_stackINS1_23strand_executor_service11strand_implEhE4top_E@Base 12.0.3
 _ZN5boost4asio6detail10service_idINS1_13epoll_reactorEED1Ev@Base 12.0.3
 _ZN5boost4asio6detail10service_idINS1_13epoll_reactorEED2Ev@Base 12.0.3
 _ZN5boost4asio6detail10service_idINS1_14strand_serviceEED1Ev@Base 12.0.3
 _ZN5boost4asio6detail10service_idINS1_14strand_serviceEED2Ev@Base 12.0.3
 _ZN5boost4asio6detail10service_idINS1_16resolver_serviceINS0_2ip3udpEEEED1Ev@Base 12.0.3
 _ZN5boost4asio6detail10service_idINS1_16resolver_serviceINS0_2ip3udpEEEED2Ev@Base 12.0.3
 _ZN5boost4asio6detail10service_idINS1_23reactive_socket_serviceINS0_2ip3udpEEEED1Ev@Base 12.0.3
 _ZN5boost4asio6detail10service_idINS1_23reactive_socket_serviceINS0_2ip3udpEEEED2Ev@Base 12.0.3
 _ZN5boost4asio6detail10service_idINS1_9schedulerEED1Ev@Base 12.0.3
 _ZN5boost4asio6detail10service_idINS1_9schedulerEED2Ev@Base 12.0.3
 _ZN5boost4asio6detail10socket_ops5closeEiRhbRNS_6system10error_codeE@Base 12.0.3
 _ZN5boost4asio6detail11executor_opINS0_8executor8functionESaIvENS1_19scheduler_operationEE11do_completeEPvPS6_RKNS_6system10error_codeEm@Base 12.0.3
 _ZN5boost4asio6detail11object_poolINS1_13epoll_reactor16descriptor_stateEED1Ev@Base 12.0.3
 _ZN5boost4asio6detail11object_poolINS1_13epoll_reactor16descriptor_stateEED2Ev@Base 12.0.3
 _ZN5boost4asio6detail11posix_mutexC1Ev@Base 12.0.3
 _ZN5boost4asio6detail11posix_mutexC2Ev@Base 12.0.3
 _ZN5boost4asio6detail12posix_thread4funcINS1_21resolver_service_base21work_scheduler_runnerEE3runEv@Base 12.0.3
 _ZN5boost4asio6detail12posix_thread4funcINS1_21resolver_service_base21work_scheduler_runnerEED0Ev@Base 12.0.3
 _ZN5boost4asio6detail12posix_thread4funcINS1_21resolver_service_base21work_scheduler_runnerEED1Ev@Base 12.0.3
 _ZN5boost4asio6detail12posix_thread4funcINS1_21resolver_service_base21work_scheduler_runnerEED2Ev@Base 12.0.3
 _ZN5boost4asio6detail12posix_thread4funcINS1_9scheduler15thread_functionEE3runEv@Base 12.0.3
 _ZN5boost4asio6detail12posix_thread4funcINS1_9scheduler15thread_functionEED0Ev@Base 12.0.3
 _ZN5boost4asio6detail12posix_thread4funcINS1_9scheduler15thread_functionEED1Ev@Base 12.0.3
 _ZN5boost4asio6detail12posix_thread4funcINS1_9scheduler15thread_functionEED2Ev@Base 12.0.3
 _ZN5boost4asio6detail12service_baseINS1_14strand_serviceEE2idE@Base 12.0.3
 _ZN5boost4asio6detail13epoll_reactor11notify_forkENS0_17execution_context10fork_eventE@Base 12.0.3
 _ZN5boost4asio6detail13epoll_reactor16descriptor_state11do_completeEPvPNS1_19scheduler_operationERKNS_6system10error_codeEm@Base 12.0.3
 _ZN5boost4asio6detail13epoll_reactor32perform_io_cleanup_on_block_exitD1Ev@Base 12.0.3
 _ZN5boost4asio6detail13epoll_reactor32perform_io_cleanup_on_block_exitD2Ev@Base 12.0.3
 _ZN5boost4asio6detail13epoll_reactor3runElRNS1_8op_queueINS1_19scheduler_operationEEE@Base 12.0.3
 _ZN5boost4asio6detail13epoll_reactor8shutdownEv@Base 12.0.3
 _ZN5boost4asio6detail13epoll_reactorD0Ev@Base 12.0.3
 _ZN5boost4asio6detail13epoll_reactorD1Ev@Base 12.0.3
 _ZN5boost4asio6detail13epoll_reactorD2Ev@Base 12.0.3
 _ZN5boost4asio6detail13socket_holderD1Ev@Base 12.0.3
 _ZN5boost4asio6detail13socket_holderD2Ev@Base 12.0.3
 _ZN5boost4asio6detail14do_throw_errorERKNS_6system10error_codeEPKc@Base 12.0.3
 _ZN5boost4asio6detail14io_object_implINS1_16resolver_serviceINS0_2ip3udpEEENS0_8executorEED1Ev@Base 12.0.3
 _ZN5boost4asio6detail14io_object_implINS1_16resolver_serviceINS0_2ip3udpEEENS0_8executorEED2Ev@Base 12.0.3
 _ZN5boost4asio6detail14io_object_implINS1_23reactive_socket_serviceINS0_2ip3udpEEENS0_8executorEED1Ev@Base 12.0.3
 _ZN5boost4asio6detail14io_object_implINS1_23reactive_socket_serviceINS0_2ip3udpEEENS0_8executorEED2Ev@Base 12.0.3
 _ZN5boost4asio6detail15keyword_tss_ptrINS1_10call_stackINS1_14thread_contextENS1_16thread_info_baseEE7contextEE6value_E@Base 12.0.3
 _ZN5boost4asio6detail16resolver_serviceINS0_2ip3udpEE11notify_forkENS0_17execution_context10fork_eventE@Base 12.0.3
 _ZN5boost4asio6detail16resolver_serviceINS0_2ip3udpEE7resolveERSt10shared_ptrIvERKNS3_20basic_resolver_queryIS4_EERNS_6system10error_codeE@Base 12.0.3
 _ZN5boost4asio6detail16resolver_serviceINS0_2ip3udpEE8shutdownEv@Base 12.0.3
 _ZN5boost4asio6detail16resolver_serviceINS0_2ip3udpEED0Ev@Base 12.0.3
 _ZN5boost4asio6detail16resolver_serviceINS0_2ip3udpEED1Ev@Base 12.0.3
 _ZN5boost4asio6detail16resolver_serviceINS0_2ip3udpEED2Ev@Base 12.0.3
 _ZN5boost4asio6detail16service_registry14do_use_serviceERKNS0_17execution_context7service3keyEPFPS4_PvES9_@Base 12.0.3
 _ZN5boost4asio6detail16service_registry6createINS1_13epoll_reactorENS0_17execution_contextEEEPNS5_7serviceEPv@Base 12.0.3
 _ZN5boost4asio6detail16service_registry6createINS1_16resolver_serviceINS0_2ip3udpEEENS0_10io_contextEEEPNS0_17execution_context7serviceEPv@Base 12.0.3
 _ZN5boost4asio6detail16service_registry6createINS1_23reactive_socket_serviceINS0_2ip3udpEEENS0_10io_contextEEEPNS0_17execution_context7serviceEPv@Base 12.0.3
 _ZN5boost4asio6detail16service_registry6createINS1_9schedulerENS0_17execution_contextEEEPNS5_7serviceEPv@Base 12.0.3
 _ZN5boost4asio6detail17posix_global_implINS0_14system_contextEE11static_ptr_E@Base 12.0.3
 _ZN5boost4asio6detail17posix_global_implINS0_14system_contextEE9instance_E@Base 12.0.3
 _ZN5boost4asio6detail17posix_global_implINS0_14system_contextEED1Ev@Base 12.0.3
 _ZN5boost4asio6detail17posix_global_implINS0_14system_contextEED2Ev@Base 12.0.3
 _ZN5boost4asio6detail23reactive_socket_serviceINS0_2ip3udpEE8shutdownEv@Base 12.0.3
 _ZN5boost4asio6detail23reactive_socket_serviceINS0_2ip3udpEED0Ev@Base 12.0.3
 _ZN5boost4asio6detail23reactive_socket_serviceINS0_2ip3udpEED1Ev@Base 12.0.3
 _ZN5boost4asio6detail23reactive_socket_serviceINS0_2ip3udpEED2Ev@Base 12.0.3
 _ZN5boost4asio6detail26eventfd_select_interrupter16open_descriptorsEv@Base 12.0.3
 _ZN5boost4asio6detail30execution_context_service_baseINS1_13epoll_reactorEE2idE@Base 12.0.3
 _ZN5boost4asio6detail30execution_context_service_baseINS1_16resolver_serviceINS0_2ip3udpEEEE2idE@Base 12.0.3
 _ZN5boost4asio6detail30execution_context_service_baseINS1_23reactive_socket_serviceINS0_2ip3udpEEEE2idE@Base 12.0.3
 _ZN5boost4asio6detail30execution_context_service_baseINS1_9schedulerEE2idE@Base 12.0.3
 _ZN5boost4asio6detail7tss_ptrINS1_10call_stackINS1_14strand_service11strand_implEhE7contextEED1Ev@Base 12.0.3
 _ZN5boost4asio6detail7tss_ptrINS1_10call_stackINS1_14strand_service11strand_implEhE7contextEED2Ev@Base 12.0.3
 _ZN5boost4asio6detail7tss_ptrINS1_10call_stackINS1_14thread_contextENS1_16thread_info_baseEE7contextEED1Ev@Base 12.0.3
 _ZN5boost4asio6detail7tss_ptrINS1_10call_stackINS1_14thread_contextENS1_16thread_info_baseEE7contextEED2Ev@Base 12.0.3
 _ZN5boost4asio6detail7tss_ptrINS1_10call_stackINS1_23strand_executor_service11strand_implEhE7contextEED1Ev@Base 12.0.3
 _ZN5boost4asio6detail7tss_ptrINS1_10call_stackINS1_23strand_executor_service11strand_implEhE7contextEED2Ev@Base 12.0.3
 _ZN5boost4asio6detail8op_queueINS1_19scheduler_operationEED1Ev@Base 12.0.3
 _ZN5boost4asio6detail8op_queueINS1_19scheduler_operationEED2Ev@Base 12.0.3
 _ZN5boost4asio6detail9scheduler12task_cleanupD1Ev@Base 12.0.3
 _ZN5boost4asio6detail9scheduler12task_cleanupD2Ev@Base 12.0.3
 _ZN5boost4asio6detail9scheduler12work_cleanupD1Ev@Base 12.0.3
 _ZN5boost4asio6detail9scheduler12work_cleanupD2Ev@Base 12.0.3
 _ZN5boost4asio6detail9scheduler25post_immediate_completionEPNS1_19scheduler_operationEb@Base 12.0.3
 _ZN5boost4asio6detail9scheduler3runERNS_6system10error_codeE@Base 12.0.3
 _ZN5boost4asio6detail9scheduler4stopEv@Base 12.0.3
 _ZN5boost4asio6detail9scheduler8shutdownEv@Base 12.0.3
 _ZN5boost4asio6detail9schedulerC1ERNS0_17execution_contextEib@Base 12.0.3
 _ZN5boost4asio6detail9schedulerC2ERNS0_17execution_contextEib@Base 12.0.3
 _ZN5boost4asio6detail9schedulerD0Ev@Base 12.0.3
 _ZN5boost4asio6detail9schedulerD1Ev@Base 12.0.3
 _ZN5boost4asio6detail9schedulerD2Ev@Base 12.0.3
 _ZN5boost4asio8executor4implINS0_10io_context13executor_typeESaIvEE15on_work_startedEv@Base 12.0.3
 _ZN5boost4asio8executor4implINS0_10io_context13executor_typeESaIvEE16on_work_finishedEv@Base 12.0.3
 _ZN5boost4asio8executor4implINS0_10io_context13executor_typeESaIvEE4postEONS1_8functionE@Base 12.0.3
 _ZN5boost4asio8executor4implINS0_10io_context13executor_typeESaIvEE5deferEONS1_8functionE@Base 12.0.3
 _ZN5boost4asio8executor4implINS0_10io_context13executor_typeESaIvEE6targetEv@Base 12.0.3
 _ZN5boost4asio8executor4implINS0_10io_context13executor_typeESaIvEE7contextEv@Base 12.0.3
 _ZN5boost4asio8executor4implINS0_10io_context13executor_typeESaIvEE7destroyEv@Base 12.0.3
 _ZN5boost4asio8executor4implINS0_10io_context13executor_typeESaIvEE8dispatchEONS1_8functionE@Base 12.0.3
 _ZN5boost4asio8executor4implINS0_10io_context13executor_typeESaIvEED0Ev@Base 12.0.3
 _ZN5boost4asio8executor4implINS0_10io_context13executor_typeESaIvEED1Ev@Base 12.0.3
 _ZN5boost4asio8executor4implINS0_10io_context13executor_typeESaIvEED2Ev@Base 12.0.3
 _ZN5boost4poolIN10Infiniband13MemoryManager13PoolAllocatorEE18malloc_need_resizeEv@Base 12.0.3
 _ZN5boost5mutexC1Ev@Base 12.0.3
 _ZN5boost5mutexC2Ev@Base 12.0.3
 _ZN5boost5mutexD1Ev@Base 12.0.3
 _ZN5boost5mutexD2Ev@Base 12.0.3
 _ZN5boost6assign11map_list_ofIA19_cN11pool_opts_t10opt_desc_tEEENS_13assign_detail12generic_listISt4pairINS5_12assign_decayIT_E4typeENS8_IT0_E4typeEEEERKS9_RKSC_@Base 12.0.3
 _ZN5boost6detail15sp_counted_base12weak_releaseEv@Base 12.0.3
 _ZN5boost6detail15sp_counted_base7destroyEv@Base 12.0.3
 _ZN5boost6detail15sp_counted_base7releaseEv@Base 12.0.3
 _ZN5boost6detail16basic_pointerbufIcSt15basic_streambufIcSt11char_traitsIcEEE6setbufEPcl@Base 12.0.3
 _ZN5boost6detail16basic_pointerbufIcSt15basic_streambufIcSt11char_traitsIcEEE7seekoffElSt12_Ios_SeekdirSt13_Ios_Openmode@Base 12.0.3
 _ZN5boost6detail16basic_pointerbufIcSt15basic_streambufIcSt11char_traitsIcEEE7seekposESt4fposI11__mbstate_tESt13_Ios_Openmode@Base 12.0.3
 _ZN5boost6detail17basic_unlockedbufISt15basic_streambufIcSt11char_traitsIcEEcED0Ev@Base 12.0.3
 _ZN5boost6detail17basic_unlockedbufISt15basic_streambufIcSt11char_traitsIcEEcED1Ev@Base 12.0.3
 _ZN5boost6detail17basic_unlockedbufISt15basic_streambufIcSt11char_traitsIcEEcED2Ev@Base 12.0.3
 _ZN5boost6detail17sp_counted_impl_pINS_6spirit4impl14grammar_helperINS2_7grammarI13crush_grammarNS2_14parser_contextINS2_5nil_tEEEEES6_NS2_7scannerIPKcNS2_16scanner_policiesINS2_28skip_parser_iteration_policyINS2_12space_parserENS2_16iteration_policyEEENS2_16ast_match_policyISD_NS2_21node_val_data_factoryIS8_EES8_EENS2_13action_policyEEEEEEEE11get_deleterERKSt9type_info@Base 12.0.3
 _ZN5boost6detail17sp_counted_impl_pINS_6spirit4impl14grammar_helperINS2_7grammarI13crush_grammarNS2_14parser_contextINS2_5nil_tEEEEES6_NS2_7scannerIPKcNS2_16scanner_policiesINS2_28skip_parser_iteration_policyINS2_12space_parserENS2_16iteration_policyEEENS2_16ast_match_policyISD_NS2_21node_val_data_factoryIS8_EES8_EENS2_13action_policyEEEEEEEE17get_local_deleterERKSt9type_info@Base 12.0.3
 _ZN5boost6detail17sp_counted_impl_pINS_6spirit4impl14grammar_helperINS2_7grammarI13crush_grammarNS2_14parser_contextINS2_5nil_tEEEEES6_NS2_7scannerIPKcNS2_16scanner_policiesINS2_28skip_parser_iteration_policyINS2_12space_parserENS2_16iteration_policyEEENS2_16ast_match_policyISD_NS2_21node_val_data_factoryIS8_EES8_EENS2_13action_policyEEEEEEEE19get_untyped_deleterEv@Base 12.0.3
 _ZN5boost6detail17sp_counted_impl_pINS_6spirit4impl14grammar_helperINS2_7grammarI13crush_grammarNS2_14parser_contextINS2_5nil_tEEEEES6_NS2_7scannerIPKcNS2_16scanner_policiesINS2_28skip_parser_iteration_policyINS2_12space_parserENS2_16iteration_policyEEENS2_16ast_match_policyISD_NS2_21node_val_data_factoryIS8_EES8_EENS2_13action_policyEEEEEEEE7disposeEv@Base 12.0.3
 _ZN5boost6detail17sp_counted_impl_pINS_6spirit4impl14grammar_helperINS2_7grammarI13crush_grammarNS2_14parser_contextINS2_5nil_tEEEEES6_NS2_7scannerIPKcNS2_16scanner_policiesINS2_28skip_parser_iteration_policyINS2_12space_parserENS2_16iteration_policyEEENS2_16ast_match_policyISD_NS2_21node_val_data_factoryIS8_EES8_EENS2_13action_policyEEEEEEEED0Ev@Base 12.0.3
 _ZN5boost6detail17sp_counted_impl_pINS_6spirit4impl14grammar_helperINS2_7grammarI13crush_grammarNS2_14parser_contextINS2_5nil_tEEEEES6_NS2_7scannerIPKcNS2_16scanner_policiesINS2_28skip_parser_iteration_policyINS2_12space_parserENS2_16iteration_policyEEENS2_16ast_match_policyISD_NS2_21node_val_data_factoryIS8_EES8_EENS2_13action_policyEEEEEEEED1Ev@Base 12.0.3
 _ZN5boost6detail17sp_counted_impl_pINS_6spirit4impl14grammar_helperINS2_7grammarI13crush_grammarNS2_14parser_contextINS2_5nil_tEEEEES6_NS2_7scannerIPKcNS2_16scanner_policiesINS2_28skip_parser_iteration_policyINS2_12space_parserENS2_16iteration_policyEEENS2_16ast_match_policyISD_NS2_21node_val_data_factoryIS8_EES8_EENS2_13action_policyEEEEEEEED2Ev@Base 12.0.3
 _ZN5boost6detail17sp_counted_impl_pINS_6spirit4impl26object_with_id_base_supplyImEEE11get_deleterERKSt9type_info@Base 12.0.3
 _ZN5boost6detail17sp_counted_impl_pINS_6spirit4impl26object_with_id_base_supplyImEEE17get_local_deleterERKSt9type_info@Base 12.0.3
 _ZN5boost6detail17sp_counted_impl_pINS_6spirit4impl26object_with_id_base_supplyImEEE19get_untyped_deleterEv@Base 12.0.3
 _ZN5boost6detail17sp_counted_impl_pINS_6spirit4impl26object_with_id_base_supplyImEEE7disposeEv@Base 12.0.3
 _ZN5boost6detail17sp_counted_impl_pINS_6spirit4impl26object_with_id_base_supplyImEEED0Ev@Base 12.0.3
 _ZN5boost6detail17sp_counted_impl_pINS_6spirit4impl26object_with_id_base_supplyImEEED1Ev@Base 12.0.3
 _ZN5boost6detail17sp_counted_impl_pINS_6spirit4impl26object_with_id_base_supplyImEEED2Ev@Base 12.0.3
 _ZN5boost6detail17sp_counted_impl_pINS_6spirit7classic4impl14grammar_helperINS3_7grammarIN11json_spirit12Json_grammerINS7_10Value_implINS7_10Config_mapINSt7__cxx1112basic_stringIcSt11char_traitsIcESaIcEEEEEEEN9__gnu_cxx17__normal_iteratorIPKcSG_EEEENS3_14parser_contextINS3_5nil_tEEEEESO_NS3_7scannerISN_NS3_16scanner_policiesINS3_24skipper_iteration_policyINS3_16iteration_policyEEENS3_12match_policyENS3_13action_policyEEEEEEEE11get_deleterERKSt9type_info@Base 12.0.3
 _ZN5boost6detail17sp_counted_impl_pINS_6spirit7classic4impl14grammar_helperINS3_7grammarIN11json_spirit12Json_grammerINS7_10Value_implINS7_10Config_mapINSt7__cxx1112basic_stringIcSt11char_traitsIcESaIcEEEEEEEN9__gnu_cxx17__normal_iteratorIPKcSG_EEEENS3_14parser_contextINS3_5nil_tEEEEESO_NS3_7scannerISN_NS3_16scanner_policiesINS3_24skipper_iteration_policyINS3_16iteration_policyEEENS3_12match_policyENS3_13action_policyEEEEEEEE17get_local_deleterERKSt9type_info@Base 12.0.3
 _ZN5boost6detail17sp_counted_impl_pINS_6spirit7classic4impl14grammar_helperINS3_7grammarIN11json_spirit12Json_grammerINS7_10Value_implINS7_10Config_mapINSt7__cxx1112basic_stringIcSt11char_traitsIcESaIcEEEEEEEN9__gnu_cxx17__normal_iteratorIPKcSG_EEEENS3_14parser_contextINS3_5nil_tEEEEESO_NS3_7scannerISN_NS3_16scanner_policiesINS3_24skipper_iteration_policyINS3_16iteration_policyEEENS3_12match_policyENS3_13action_policyEEEEEEEE19get_untyped_deleterEv@Base 12.0.3
 _ZN5boost6detail17sp_counted_impl_pINS_6spirit7classic4impl14grammar_helperINS3_7grammarIN11json_spirit12Json_grammerINS7_10Value_implINS7_10Config_mapINSt7__cxx1112basic_stringIcSt11char_traitsIcESaIcEEEEEEEN9__gnu_cxx17__normal_iteratorIPKcSG_EEEENS3_14parser_contextINS3_5nil_tEEEEESO_NS3_7scannerISN_NS3_16scanner_policiesINS3_24skipper_iteration_policyINS3_16iteration_policyEEENS3_12match_policyENS3_13action_policyEEEEEEEE7disposeEv@Base 12.0.3
 _ZN5boost6detail17sp_counted_impl_pINS_6spirit7classic4impl14grammar_helperINS3_7grammarIN11json_spirit12Json_grammerINS7_10Value_implINS7_10Config_mapINSt7__cxx1112basic_stringIcSt11char_traitsIcESaIcEEEEEEEN9__gnu_cxx17__normal_iteratorIPKcSG_EEEENS3_14parser_contextINS3_5nil_tEEEEESO_NS3_7scannerISN_NS3_16scanner_policiesINS3_24skipper_iteration_policyINS3_16iteration_policyEEENS3_12match_policyENS3_13action_policyEEEEEEEED0Ev@Base 12.0.3
 _ZN5boost6detail17sp_counted_impl_pINS_6spirit7classic4impl14grammar_helperINS3_7grammarIN11json_spirit12Json_grammerINS7_10Value_implINS7_10Config_mapINSt7__cxx1112basic_stringIcSt11char_traitsIcESaIcEEEEEEEN9__gnu_cxx17__normal_iteratorIPKcSG_EEEENS3_14parser_contextINS3_5nil_tEEEEESO_NS3_7scannerISN_NS3_16scanner_policiesINS3_24skipper_iteration_policyINS3_16iteration_policyEEENS3_12match_policyENS3_13action_policyEEEEEEEED1Ev@Base 12.0.3
 _ZN5boost6detail17sp_counted_impl_pINS_6spirit7classic4impl14grammar_helperINS3_7grammarIN11json_spirit12Json_grammerINS7_10Value_implINS7_10Config_mapINSt7__cxx1112basic_stringIcSt11char_traitsIcESaIcEEEEEEEN9__gnu_cxx17__normal_iteratorIPKcSG_EEEENS3_14parser_contextINS3_5nil_tEEEEESO_NS3_7scannerISN_NS3_16scanner_policiesINS3_24skipper_iteration_policyINS3_16iteration_policyEEENS3_12match_policyENS3_13action_policyEEEEEEEED2Ev@Base 12.0.3
 _ZN5boost6detail17sp_counted_impl_pINS_6spirit7classic4impl14grammar_helperINS3_7grammarIN11json_spirit12Json_grammerINS7_10Value_implINS7_10Config_mapINSt7__cxx1112basic_stringIcSt11char_traitsIcESaIcEEEEEEENS3_10multi_passISt16istream_iteratorIccSE_lENS3_19multi_pass_policies14input_iteratorENSM_11ref_countedENSM_12buf_id_checkENSM_9std_dequeEEEEENS3_14parser_contextINS3_5nil_tEEEEESS_NS3_7scannerISR_NS3_16scanner_policiesINS3_24skipper_iteration_policyINS3_16iteration_policyEEENS3_12match_policyENS3_13action_policyEEEEEEEE11get_deleterERKSt9type_info@Base 12.0.3
 _ZN5boost6detail17sp_counted_impl_pINS_6spirit7classic4impl14grammar_helperINS3_7grammarIN11json_spirit12Json_grammerINS7_10Value_implINS7_10Config_mapINSt7__cxx1112basic_stringIcSt11char_traitsIcESaIcEEEEEEENS3_10multi_passISt16istream_iteratorIccSE_lENS3_19multi_pass_policies14input_iteratorENSM_11ref_countedENSM_12buf_id_checkENSM_9std_dequeEEEEENS3_14parser_contextINS3_5nil_tEEEEESS_NS3_7scannerISR_NS3_16scanner_policiesINS3_24skipper_iteration_policyINS3_16iteration_policyEEENS3_12match_policyENS3_13action_policyEEEEEEEE17get_local_deleterERKSt9type_info@Base 12.0.3
 _ZN5boost6detail17sp_counted_impl_pINS_6spirit7classic4impl14grammar_helperINS3_7grammarIN11json_spirit12Json_grammerINS7_10Value_implINS7_10Config_mapINSt7__cxx1112basic_stringIcSt11char_traitsIcESaIcEEEEEEENS3_10multi_passISt16istream_iteratorIccSE_lENS3_19multi_pass_policies14input_iteratorENSM_11ref_countedENSM_12buf_id_checkENSM_9std_dequeEEEEENS3_14parser_contextINS3_5nil_tEEEEESS_NS3_7scannerISR_NS3_16scanner_policiesINS3_24skipper_iteration_policyINS3_16iteration_policyEEENS3_12match_policyENS3_13action_policyEEEEEEEE19get_untyped_deleterEv@Base 12.0.3
 _ZN5boost6detail17sp_counted_impl_pINS_6spirit7classic4impl14grammar_helperINS3_7grammarIN11json_spirit12Json_grammerINS7_10Value_implINS7_10Config_mapINSt7__cxx1112basic_stringIcSt11char_traitsIcESaIcEEEEEEENS3_10multi_passISt16istream_iteratorIccSE_lENS3_19multi_pass_policies14input_iteratorENSM_11ref_countedENSM_12buf_id_checkENSM_9std_dequeEEEEENS3_14parser_contextINS3_5nil_tEEEEESS_NS3_7scannerISR_NS3_16scanner_policiesINS3_24skipper_iteration_policyINS3_16iteration_policyEEENS3_12match_policyENS3_13action_policyEEEEEEEE7disposeEv@Base 12.0.3
 _ZN5boost6detail17sp_counted_impl_pINS_6spirit7classic4impl14grammar_helperINS3_7grammarIN11json_spirit12Json_grammerINS7_10Value_implINS7_10Config_mapINSt7__cxx1112basic_stringIcSt11char_traitsIcESaIcEEEEEEENS3_10multi_passISt16istream_iteratorIccSE_lENS3_19multi_pass_policies14input_iteratorENSM_11ref_countedENSM_12buf_id_checkENSM_9std_dequeEEEEENS3_14parser_contextINS3_5nil_tEEEEESS_NS3_7scannerISR_NS3_16scanner_policiesINS3_24skipper_iteration_policyINS3_16iteration_policyEEENS3_12match_policyENS3_13action_policyEEEEEEEED0Ev@Base 12.0.3
 _ZN5boost6detail17sp_counted_impl_pINS_6spirit7classic4impl14grammar_helperINS3_7grammarIN11json_spirit12Json_grammerINS7_10Value_implINS7_10Config_mapINSt7__cxx1112basic_stringIcSt11char_traitsIcESaIcEEEEEEENS3_10multi_passISt16istream_iteratorIccSE_lENS3_19multi_pass_policies14input_iteratorENSM_11ref_countedENSM_12buf_id_checkENSM_9std_dequeEEEEENS3_14parser_contextINS3_5nil_tEEEEESS_NS3_7scannerISR_NS3_16scanner_policiesINS3_24skipper_iteration_policyINS3_16iteration_policyEEENS3_12match_policyENS3_13action_policyEEEEEEEED1Ev@Base 12.0.3
 _ZN5boost6detail17sp_counted_impl_pINS_6spirit7classic4impl14grammar_helperINS3_7grammarIN11json_spirit12Json_grammerINS7_10Value_implINS7_10Config_mapINSt7__cxx1112basic_stringIcSt11char_traitsIcESaIcEEEEEEENS3_10multi_passISt16istream_iteratorIccSE_lENS3_19multi_pass_policies14input_iteratorENSM_11ref_countedENSM_12buf_id_checkENSM_9std_dequeEEEEENS3_14parser_contextINS3_5nil_tEEEEESS_NS3_7scannerISR_NS3_16scanner_policiesINS3_24skipper_iteration_policyINS3_16iteration_policyEEENS3_12match_policyENS3_13action_policyEEEEEEEED2Ev@Base 12.0.3
 _ZN5boost6detail17sp_counted_impl_pINS_6spirit7classic4impl14grammar_helperINS3_7grammarIN11json_spirit12Json_grammerINS7_10Value_implINS7_10Config_mapINSt7__cxx1112basic_stringIcSt11char_traitsIcESaIcEEEEEEENS3_17position_iteratorIN9__gnu_cxx17__normal_iteratorIPKcSG_EENS3_18file_position_baseISG_EENS3_5nil_tEEEEENS3_14parser_contextISR_EEEEST_NS3_7scannerISS_NS3_16scanner_policiesINS3_24skipper_iteration_policyINS3_16iteration_policyEEENS3_12match_policyENS3_13action_policyEEEEEEEE11get_deleterERKSt9type_info@Base 12.0.3
 _ZN5boost6detail17sp_counted_impl_pINS_6spirit7classic4impl14grammar_helperINS3_7grammarIN11json_spirit12Json_grammerINS7_10Value_implINS7_10Config_mapINSt7__cxx1112basic_stringIcSt11char_traitsIcESaIcEEEEEEENS3_17position_iteratorIN9__gnu_cxx17__normal_iteratorIPKcSG_EENS3_18file_position_baseISG_EENS3_5nil_tEEEEENS3_14parser_contextISR_EEEEST_NS3_7scannerISS_NS3_16scanner_policiesINS3_24skipper_iteration_policyINS3_16iteration_policyEEENS3_12match_policyENS3_13action_policyEEEEEEEE17get_local_deleterERKSt9type_info@Base 12.0.3
 _ZN5boost6detail17sp_counted_impl_pINS_6spirit7classic4impl14grammar_helperINS3_7grammarIN11json_spirit12Json_grammerINS7_10Value_implINS7_10Config_mapINSt7__cxx1112basic_stringIcSt11char_traitsIcESaIcEEEEEEENS3_17position_iteratorIN9__gnu_cxx17__normal_iteratorIPKcSG_EENS3_18file_position_baseISG_EENS3_5nil_tEEEEENS3_14parser_contextISR_EEEEST_NS3_7scannerISS_NS3_16scanner_policiesINS3_24skipper_iteration_policyINS3_16iteration_policyEEENS3_12match_policyENS3_13action_policyEEEEEEEE19get_untyped_deleterEv@Base 12.0.3
 _ZN5boost6detail17sp_counted_impl_pINS_6spirit7classic4impl14grammar_helperINS3_7grammarIN11json_spirit12Json_grammerINS7_10Value_implINS7_10Config_mapINSt7__cxx1112basic_stringIcSt11char_traitsIcESaIcEEEEEEENS3_17position_iteratorIN9__gnu_cxx17__normal_iteratorIPKcSG_EENS3_18file_position_baseISG_EENS3_5nil_tEEEEENS3_14parser_contextISR_EEEEST_NS3_7scannerISS_NS3_16scanner_policiesINS3_24skipper_iteration_policyINS3_16iteration_policyEEENS3_12match_policyENS3_13action_policyEEEEEEEE7disposeEv@Base 12.0.3
 _ZN5boost6detail17sp_counted_impl_pINS_6spirit7classic4impl14grammar_helperINS3_7grammarIN11json_spirit12Json_grammerINS7_10Value_implINS7_10Config_mapINSt7__cxx1112basic_stringIcSt11char_traitsIcESaIcEEEEEEENS3_17position_iteratorIN9__gnu_cxx17__normal_iteratorIPKcSG_EENS3_18file_position_baseISG_EENS3_5nil_tEEEEENS3_14parser_contextISR_EEEEST_NS3_7scannerISS_NS3_16scanner_policiesINS3_24skipper_iteration_policyINS3_16iteration_policyEEENS3_12match_policyENS3_13action_policyEEEEEEEED0Ev@Base 12.0.3
 _ZN5boost6detail17sp_counted_impl_pINS_6spirit7classic4impl14grammar_helperINS3_7grammarIN11json_spirit12Json_grammerINS7_10Value_implINS7_10Config_mapINSt7__cxx1112basic_stringIcSt11char_traitsIcESaIcEEEEEEENS3_17position_iteratorIN9__gnu_cxx17__normal_iteratorIPKcSG_EENS3_18file_position_baseISG_EENS3_5nil_tEEEEENS3_14parser_contextISR_EEEEST_NS3_7scannerISS_NS3_16scanner_policiesINS3_24skipper_iteration_policyINS3_16iteration_policyEEENS3_12match_policyENS3_13action_policyEEEEEEEED1Ev@Base 12.0.3
 _ZN5boost6detail17sp_counted_impl_pINS_6spirit7classic4impl14grammar_helperINS3_7grammarIN11json_spirit12Json_grammerINS7_10Value_implINS7_10Config_mapINSt7__cxx1112basic_stringIcSt11char_traitsIcESaIcEEEEEEENS3_17position_iteratorIN9__gnu_cxx17__normal_iteratorIPKcSG_EENS3_18file_position_baseISG_EENS3_5nil_tEEEEENS3_14parser_contextISR_EEEEST_NS3_7scannerISS_NS3_16scanner_policiesINS3_24skipper_iteration_policyINS3_16iteration_policyEEENS3_12match_policyENS3_13action_policyEEEEEEEED2Ev@Base 12.0.3
 _ZN5boost6detail17sp_counted_impl_pINS_6spirit7classic4impl14grammar_helperINS3_7grammarIN11json_spirit12Json_grammerINS7_10Value_implINS7_10Config_mapINSt7__cxx1112basic_stringIcSt11char_traitsIcESaIcEEEEEEENS3_17position_iteratorINS3_10multi_passISt16istream_iteratorIccSE_lENS3_19multi_pass_policies14input_iteratorENSN_11ref_countedENSN_12buf_id_checkENSN_9std_dequeEEENS3_18file_position_baseISG_EENS3_5nil_tEEEEENS3_14parser_contextISV_EEEESX_NS3_7scannerISW_NS3_16scanner_policiesINS3_24skipper_iteration_policyINS3_16iteration_policyEEENS3_12match_policyENS3_13action_policyEEEEEEEE11get_deleterERKSt9type_info@Base 12.0.3
 _ZN5boost6detail17sp_counted_impl_pINS_6spirit7classic4impl14grammar_helperINS3_7grammarIN11json_spirit12Json_grammerINS7_10Value_implINS7_10Config_mapINSt7__cxx1112basic_stringIcSt11char_traitsIcESaIcEEEEEEENS3_17position_iteratorINS3_10multi_passISt16istream_iteratorIccSE_lENS3_19multi_pass_policies14input_iteratorENSN_11ref_countedENSN_12buf_id_checkENSN_9std_dequeEEENS3_18file_position_baseISG_EENS3_5nil_tEEEEENS3_14parser_contextISV_EEEESX_NS3_7scannerISW_NS3_16scanner_policiesINS3_24skipper_iteration_policyINS3_16iteration_policyEEENS3_12match_policyENS3_13action_policyEEEEEEEE17get_local_deleterERKSt9type_info@Base 12.0.3
 _ZN5boost6detail17sp_counted_impl_pINS_6spirit7classic4impl14grammar_helperINS3_7grammarIN11json_spirit12Json_grammerINS7_10Value_implINS7_10Config_mapINSt7__cxx1112basic_stringIcSt11char_traitsIcESaIcEEEEEEENS3_17position_iteratorINS3_10multi_passISt16istream_iteratorIccSE_lENS3_19multi_pass_policies14input_iteratorENSN_11ref_countedENSN_12buf_id_checkENSN_9std_dequeEEENS3_18file_position_baseISG_EENS3_5nil_tEEEEENS3_14parser_contextISV_EEEESX_NS3_7scannerISW_NS3_16scanner_policiesINS3_24skipper_iteration_policyINS3_16iteration_policyEEENS3_12match_policyENS3_13action_policyEEEEEEEE19get_untyped_deleterEv@Base 12.0.3
 _ZN5boost6detail17sp_counted_impl_pINS_6spirit7classic4impl14grammar_helperINS3_7grammarIN11json_spirit12Json_grammerINS7_10Value_implINS7_10Config_mapINSt7__cxx1112basic_stringIcSt11char_traitsIcESaIcEEEEEEENS3_17position_iteratorINS3_10multi_passISt16istream_iteratorIccSE_lENS3_19multi_pass_policies14input_iteratorENSN_11ref_countedENSN_12buf_id_checkENSN_9std_dequeEEENS3_18file_position_baseISG_EENS3_5nil_tEEEEENS3_14parser_contextISV_EEEESX_NS3_7scannerISW_NS3_16scanner_policiesINS3_24skipper_iteration_policyINS3_16iteration_policyEEENS3_12match_policyENS3_13action_policyEEEEEEEE7disposeEv@Base 12.0.3
 _ZN5boost6detail17sp_counted_impl_pINS_6spirit7classic4impl14grammar_helperINS3_7grammarIN11json_spirit12Json_grammerINS7_10Value_implINS7_10Config_mapINSt7__cxx1112basic_stringIcSt11char_traitsIcESaIcEEEEEEENS3_17position_iteratorINS3_10multi_passISt16istream_iteratorIccSE_lENS3_19multi_pass_policies14input_iteratorENSN_11ref_countedENSN_12buf_id_checkENSN_9std_dequeEEENS3_18file_position_baseISG_EENS3_5nil_tEEEEENS3_14parser_contextISV_EEEESX_NS3_7scannerISW_NS3_16scanner_policiesINS3_24skipper_iteration_policyINS3_16iteration_policyEEENS3_12match_policyENS3_13action_policyEEEEEEEED0Ev@Base 12.0.3
 _ZN5boost6detail17sp_counted_impl_pINS_6spirit7classic4impl14grammar_helperINS3_7grammarIN11json_spirit12Json_grammerINS7_10Value_implINS7_10Config_mapINSt7__cxx1112basic_stringIcSt11char_traitsIcESaIcEEEEEEENS3_17position_iteratorINS3_10multi_passISt16istream_iteratorIccSE_lENS3_19multi_pass_policies14input_iteratorENSN_11ref_countedENSN_12buf_id_checkENSN_9std_dequeEEENS3_18file_position_baseISG_EENS3_5nil_tEEEEENS3_14parser_contextISV_EEEESX_NS3_7scannerISW_NS3_16scanner_policiesINS3_24skipper_iteration_policyINS3_16iteration_policyEEENS3_12match_policyENS3_13action_policyEEEEEEEED1Ev@Base 12.0.3
 _ZN5boost6detail17sp_counted_impl_pINS_6spirit7classic4impl14grammar_helperINS3_7grammarIN11json_spirit12Json_grammerINS7_10Value_implINS7_10Config_mapINSt7__cxx1112basic_stringIcSt11char_traitsIcESaIcEEEEEEENS3_17position_iteratorINS3_10multi_passISt16istream_iteratorIccSE_lENS3_19multi_pass_policies14input_iteratorENSN_11ref_countedENSN_12buf_id_checkENSN_9std_dequeEEENS3_18file_position_baseISG_EENS3_5nil_tEEEEENS3_14parser_contextISV_EEEESX_NS3_7scannerISW_NS3_16scanner_policiesINS3_24skipper_iteration_policyINS3_16iteration_policyEEENS3_12match_policyENS3_13action_policyEEEEEEEED2Ev@Base 12.0.3
 _ZN5boost6detail17sp_counted_impl_pINS_6spirit7classic4impl14grammar_helperINS3_7grammarIN11json_spirit12Json_grammerINS7_10Value_implINS7_13Config_vectorINSt7__cxx1112basic_stringIcSt11char_traitsIcESaIcEEEEEEEN9__gnu_cxx17__normal_iteratorIPKcSG_EEEENS3_14parser_contextINS3_5nil_tEEEEESO_NS3_7scannerISN_NS3_16scanner_policiesINS3_24skipper_iteration_policyINS3_16iteration_policyEEENS3_12match_policyENS3_13action_policyEEEEEEEE11get_deleterERKSt9type_info@Base 12.0.3
 _ZN5boost6detail17sp_counted_impl_pINS_6spirit7classic4impl14grammar_helperINS3_7grammarIN11json_spirit12Json_grammerINS7_10Value_implINS7_13Config_vectorINSt7__cxx1112basic_stringIcSt11char_traitsIcESaIcEEEEEEEN9__gnu_cxx17__normal_iteratorIPKcSG_EEEENS3_14parser_contextINS3_5nil_tEEEEESO_NS3_7scannerISN_NS3_16scanner_policiesINS3_24skipper_iteration_policyINS3_16iteration_policyEEENS3_12match_policyENS3_13action_policyEEEEEEEE17get_local_deleterERKSt9type_info@Base 12.0.3
 _ZN5boost6detail17sp_counted_impl_pINS_6spirit7classic4impl14grammar_helperINS3_7grammarIN11json_spirit12Json_grammerINS7_10Value_implINS7_13Config_vectorINSt7__cxx1112basic_stringIcSt11char_traitsIcESaIcEEEEEEEN9__gnu_cxx17__normal_iteratorIPKcSG_EEEENS3_14parser_contextINS3_5nil_tEEEEESO_NS3_7scannerISN_NS3_16scanner_policiesINS3_24skipper_iteration_policyINS3_16iteration_policyEEENS3_12match_policyENS3_13action_policyEEEEEEEE19get_untyped_deleterEv@Base 12.0.3
 _ZN5boost6detail17sp_counted_impl_pINS_6spirit7classic4impl14grammar_helperINS3_7grammarIN11json_spirit12Json_grammerINS7_10Value_implINS7_13Config_vectorINSt7__cxx1112basic_stringIcSt11char_traitsIcESaIcEEEEEEEN9__gnu_cxx17__normal_iteratorIPKcSG_EEEENS3_14parser_contextINS3_5nil_tEEEEESO_NS3_7scannerISN_NS3_16scanner_policiesINS3_24skipper_iteration_policyINS3_16iteration_policyEEENS3_12match_policyENS3_13action_policyEEEEEEEE7disposeEv@Base 12.0.3
 _ZN5boost6detail17sp_counted_impl_pINS_6spirit7classic4impl14grammar_helperINS3_7grammarIN11json_spirit12Json_grammerINS7_10Value_implINS7_13Config_vectorINSt7__cxx1112basic_stringIcSt11char_traitsIcESaIcEEEEEEEN9__gnu_cxx17__normal_iteratorIPKcSG_EEEENS3_14parser_contextINS3_5nil_tEEEEESO_NS3_7scannerISN_NS3_16scanner_policiesINS3_24skipper_iteration_policyINS3_16iteration_policyEEENS3_12match_policyENS3_13action_policyEEEEEEEED0Ev@Base 12.0.3
 _ZN5boost6detail17sp_counted_impl_pINS_6spirit7classic4impl14grammar_helperINS3_7grammarIN11json_spirit12Json_grammerINS7_10Value_implINS7_13Config_vectorINSt7__cxx1112basic_stringIcSt11char_traitsIcESaIcEEEEEEEN9__gnu_cxx17__normal_iteratorIPKcSG_EEEENS3_14parser_contextINS3_5nil_tEEEEESO_NS3_7scannerISN_NS3_16scanner_policiesINS3_24skipper_iteration_policyINS3_16iteration_policyEEENS3_12match_policyENS3_13action_policyEEEEEEEED1Ev@Base 12.0.3
 _ZN5boost6detail17sp_counted_impl_pINS_6spirit7classic4impl14grammar_helperINS3_7grammarIN11json_spirit12Json_grammerINS7_10Value_implINS7_13Config_vectorINSt7__cxx1112basic_stringIcSt11char_traitsIcESaIcEEEEEEEN9__gnu_cxx17__normal_iteratorIPKcSG_EEEENS3_14parser_contextINS3_5nil_tEEEEESO_NS3_7scannerISN_NS3_16scanner_policiesINS3_24skipper_iteration_policyINS3_16iteration_policyEEENS3_12match_policyENS3_13action_policyEEEEEEEED2Ev@Base 12.0.3
 _ZN5boost6detail17sp_counted_impl_pINS_6spirit7classic4impl14grammar_helperINS3_7grammarIN11json_spirit12Json_grammerINS7_10Value_implINS7_13Config_vectorINSt7__cxx1112basic_stringIcSt11char_traitsIcESaIcEEEEEEENS3_10multi_passISt16istream_iteratorIccSE_lENS3_19multi_pass_policies14input_iteratorENSM_11ref_countedENSM_12buf_id_checkENSM_9std_dequeEEEEENS3_14parser_contextINS3_5nil_tEEEEESS_NS3_7scannerISR_NS3_16scanner_policiesINS3_24skipper_iteration_policyINS3_16iteration_policyEEENS3_12match_policyENS3_13action_policyEEEEEEEE11get_deleterERKSt9type_info@Base 12.0.3
 _ZN5boost6detail17sp_counted_impl_pINS_6spirit7classic4impl14grammar_helperINS3_7grammarIN11json_spirit12Json_grammerINS7_10Value_implINS7_13Config_vectorINSt7__cxx1112basic_stringIcSt11char_traitsIcESaIcEEEEEEENS3_10multi_passISt16istream_iteratorIccSE_lENS3_19multi_pass_policies14input_iteratorENSM_11ref_countedENSM_12buf_id_checkENSM_9std_dequeEEEEENS3_14parser_contextINS3_5nil_tEEEEESS_NS3_7scannerISR_NS3_16scanner_policiesINS3_24skipper_iteration_policyINS3_16iteration_policyEEENS3_12match_policyENS3_13action_policyEEEEEEEE17get_local_deleterERKSt9type_info@Base 12.0.3
 _ZN5boost6detail17sp_counted_impl_pINS_6spirit7classic4impl14grammar_helperINS3_7grammarIN11json_spirit12Json_grammerINS7_10Value_implINS7_13Config_vectorINSt7__cxx1112basic_stringIcSt11char_traitsIcESaIcEEEEEEENS3_10multi_passISt16istream_iteratorIccSE_lENS3_19multi_pass_policies14input_iteratorENSM_11ref_countedENSM_12buf_id_checkENSM_9std_dequeEEEEENS3_14parser_contextINS3_5nil_tEEEEESS_NS3_7scannerISR_NS3_16scanner_policiesINS3_24skipper_iteration_policyINS3_16iteration_policyEEENS3_12match_policyENS3_13action_policyEEEEEEEE19get_untyped_deleterEv@Base 12.0.3
 _ZN5boost6detail17sp_counted_impl_pINS_6spirit7classic4impl14grammar_helperINS3_7grammarIN11json_spirit12Json_grammerINS7_10Value_implINS7_13Config_vectorINSt7__cxx1112basic_stringIcSt11char_traitsIcESaIcEEEEEEENS3_10multi_passISt16istream_iteratorIccSE_lENS3_19multi_pass_policies14input_iteratorENSM_11ref_countedENSM_12buf_id_checkENSM_9std_dequeEEEEENS3_14parser_contextINS3_5nil_tEEEEESS_NS3_7scannerISR_NS3_16scanner_policiesINS3_24skipper_iteration_policyINS3_16iteration_policyEEENS3_12match_policyENS3_13action_policyEEEEEEEE7disposeEv@Base 12.0.3
 _ZN5boost6detail17sp_counted_impl_pINS_6spirit7classic4impl14grammar_helperINS3_7grammarIN11json_spirit12Json_grammerINS7_10Value_implINS7_13Config_vectorINSt7__cxx1112basic_stringIcSt11char_traitsIcESaIcEEEEEEENS3_10multi_passISt16istream_iteratorIccSE_lENS3_19multi_pass_policies14input_iteratorENSM_11ref_countedENSM_12buf_id_checkENSM_9std_dequeEEEEENS3_14parser_contextINS3_5nil_tEEEEESS_NS3_7scannerISR_NS3_16scanner_policiesINS3_24skipper_iteration_policyINS3_16iteration_policyEEENS3_12match_policyENS3_13action_policyEEEEEEEED0Ev@Base 12.0.3
 _ZN5boost6detail17sp_counted_impl_pINS_6spirit7classic4impl14grammar_helperINS3_7grammarIN11json_spirit12Json_grammerINS7_10Value_implINS7_13Config_vectorINSt7__cxx1112basic_stringIcSt11char_traitsIcESaIcEEEEEEENS3_10multi_passISt16istream_iteratorIccSE_lENS3_19multi_pass_policies14input_iteratorENSM_11ref_countedENSM_12buf_id_checkENSM_9std_dequeEEEEENS3_14parser_contextINS3_5nil_tEEEEESS_NS3_7scannerISR_NS3_16scanner_policiesINS3_24skipper_iteration_policyINS3_16iteration_policyEEENS3_12match_policyENS3_13action_policyEEEEEEEED1Ev@Base 12.0.3
 _ZN5boost6detail17sp_counted_impl_pINS_6spirit7classic4impl14grammar_helperINS3_7grammarIN11json_spirit12Json_grammerINS7_10Value_implINS7_13Config_vectorINSt7__cxx1112basic_stringIcSt11char_traitsIcESaIcEEEEEEENS3_10multi_passISt16istream_iteratorIccSE_lENS3_19multi_pass_policies14input_iteratorENSM_11ref_countedENSM_12buf_id_checkENSM_9std_dequeEEEEENS3_14parser_contextINS3_5nil_tEEEEESS_NS3_7scannerISR_NS3_16scanner_policiesINS3_24skipper_iteration_policyINS3_16iteration_policyEEENS3_12match_policyENS3_13action_policyEEEEEEEED2Ev@Base 12.0.3
 _ZN5boost6detail17sp_counted_impl_pINS_6spirit7classic4impl14grammar_helperINS3_7grammarIN11json_spirit12Json_grammerINS7_10Value_implINS7_13Config_vectorINSt7__cxx1112basic_stringIcSt11char_traitsIcESaIcEEEEEEENS3_17position_iteratorIN9__gnu_cxx17__normal_iteratorIPKcSG_EENS3_18file_position_baseISG_EENS3_5nil_tEEEEENS3_14parser_contextISR_EEEEST_NS3_7scannerISS_NS3_16scanner_policiesINS3_24skipper_iteration_policyINS3_16iteration_policyEEENS3_12match_policyENS3_13action_policyEEEEEEEE11get_deleterERKSt9type_info@Base 12.0.3
 _ZN5boost6detail17sp_counted_impl_pINS_6spirit7classic4impl14grammar_helperINS3_7grammarIN11json_spirit12Json_grammerINS7_10Value_implINS7_13Config_vectorINSt7__cxx1112basic_stringIcSt11char_traitsIcESaIcEEEEEEENS3_17position_iteratorIN9__gnu_cxx17__normal_iteratorIPKcSG_EENS3_18file_position_baseISG_EENS3_5nil_tEEEEENS3_14parser_contextISR_EEEEST_NS3_7scannerISS_NS3_16scanner_policiesINS3_24skipper_iteration_policyINS3_16iteration_policyEEENS3_12match_policyENS3_13action_policyEEEEEEEE17get_local_deleterERKSt9type_info@Base 12.0.3
 _ZN5boost6detail17sp_counted_impl_pINS_6spirit7classic4impl14grammar_helperINS3_7grammarIN11json_spirit12Json_grammerINS7_10Value_implINS7_13Config_vectorINSt7__cxx1112basic_stringIcSt11char_traitsIcESaIcEEEEEEENS3_17position_iteratorIN9__gnu_cxx17__normal_iteratorIPKcSG_EENS3_18file_position_baseISG_EENS3_5nil_tEEEEENS3_14parser_contextISR_EEEEST_NS3_7scannerISS_NS3_16scanner_policiesINS3_24skipper_iteration_policyINS3_16iteration_policyEEENS3_12match_policyENS3_13action_policyEEEEEEEE19get_untyped_deleterEv@Base 12.0.3
 _ZN5boost6detail17sp_counted_impl_pINS_6spirit7classic4impl14grammar_helperINS3_7grammarIN11json_spirit12Json_grammerINS7_10Value_implINS7_13Config_vectorINSt7__cxx1112basic_stringIcSt11char_traitsIcESaIcEEEEEEENS3_17position_iteratorIN9__gnu_cxx17__normal_iteratorIPKcSG_EENS3_18file_position_baseISG_EENS3_5nil_tEEEEENS3_14parser_contextISR_EEEEST_NS3_7scannerISS_NS3_16scanner_policiesINS3_24skipper_iteration_policyINS3_16iteration_policyEEENS3_12match_policyENS3_13action_policyEEEEEEEE7disposeEv@Base 12.0.3
 _ZN5boost6detail17sp_counted_impl_pINS_6spirit7classic4impl14grammar_helperINS3_7grammarIN11json_spirit12Json_grammerINS7_10Value_implINS7_13Config_vectorINSt7__cxx1112basic_stringIcSt11char_traitsIcESaIcEEEEEEENS3_17position_iteratorIN9__gnu_cxx17__normal_iteratorIPKcSG_EENS3_18file_position_baseISG_EENS3_5nil_tEEEEENS3_14parser_contextISR_EEEEST_NS3_7scannerISS_NS3_16scanner_policiesINS3_24skipper_iteration_policyINS3_16iteration_policyEEENS3_12match_policyENS3_13action_policyEEEEEEEED0Ev@Base 12.0.3
 _ZN5boost6detail17sp_counted_impl_pINS_6spirit7classic4impl14grammar_helperINS3_7grammarIN11json_spirit12Json_grammerINS7_10Value_implINS7_13Config_vectorINSt7__cxx1112basic_stringIcSt11char_traitsIcESaIcEEEEEEENS3_17position_iteratorIN9__gnu_cxx17__normal_iteratorIPKcSG_EENS3_18file_position_baseISG_EENS3_5nil_tEEEEENS3_14parser_contextISR_EEEEST_NS3_7scannerISS_NS3_16scanner_policiesINS3_24skipper_iteration_policyINS3_16iteration_policyEEENS3_12match_policyENS3_13action_policyEEEEEEEED1Ev@Base 12.0.3
 _ZN5boost6detail17sp_counted_impl_pINS_6spirit7classic4impl14grammar_helperINS3_7grammarIN11json_spirit12Json_grammerINS7_10Value_implINS7_13Config_vectorINSt7__cxx1112basic_stringIcSt11char_traitsIcESaIcEEEEEEENS3_17position_iteratorIN9__gnu_cxx17__normal_iteratorIPKcSG_EENS3_18file_position_baseISG_EENS3_5nil_tEEEEENS3_14parser_contextISR_EEEEST_NS3_7scannerISS_NS3_16scanner_policiesINS3_24skipper_iteration_policyINS3_16iteration_policyEEENS3_12match_policyENS3_13action_policyEEEEEEEED2Ev@Base 12.0.3
 _ZN5boost6detail17sp_counted_impl_pINS_6spirit7classic4impl14grammar_helperINS3_7grammarIN11json_spirit12Json_grammerINS7_10Value_implINS7_13Config_vectorINSt7__cxx1112basic_stringIcSt11char_traitsIcESaIcEEEEEEENS3_17position_iteratorINS3_10multi_passISt16istream_iteratorIccSE_lENS3_19multi_pass_policies14input_iteratorENSN_11ref_countedENSN_12buf_id_checkENSN_9std_dequeEEENS3_18file_position_baseISG_EENS3_5nil_tEEEEENS3_14parser_contextISV_EEEESX_NS3_7scannerISW_NS3_16scanner_policiesINS3_24skipper_iteration_policyINS3_16iteration_policyEEENS3_12match_policyENS3_13action_policyEEEEEEEE11get_deleterERKSt9type_info@Base 12.0.3
 _ZN5boost6detail17sp_counted_impl_pINS_6spirit7classic4impl14grammar_helperINS3_7grammarIN11json_spirit12Json_grammerINS7_10Value_implINS7_13Config_vectorINSt7__cxx1112basic_stringIcSt11char_traitsIcESaIcEEEEEEENS3_17position_iteratorINS3_10multi_passISt16istream_iteratorIccSE_lENS3_19multi_pass_policies14input_iteratorENSN_11ref_countedENSN_12buf_id_checkENSN_9std_dequeEEENS3_18file_position_baseISG_EENS3_5nil_tEEEEENS3_14parser_contextISV_EEEESX_NS3_7scannerISW_NS3_16scanner_policiesINS3_24skipper_iteration_policyINS3_16iteration_policyEEENS3_12match_policyENS3_13action_policyEEEEEEEE17get_local_deleterERKSt9type_info@Base 12.0.3
 _ZN5boost6detail17sp_counted_impl_pINS_6spirit7classic4impl14grammar_helperINS3_7grammarIN11json_spirit12Json_grammerINS7_10Value_implINS7_13Config_vectorINSt7__cxx1112basic_stringIcSt11char_traitsIcESaIcEEEEEEENS3_17position_iteratorINS3_10multi_passISt16istream_iteratorIccSE_lENS3_19multi_pass_policies14input_iteratorENSN_11ref_countedENSN_12buf_id_checkENSN_9std_dequeEEENS3_18file_position_baseISG_EENS3_5nil_tEEEEENS3_14parser_contextISV_EEEESX_NS3_7scannerISW_NS3_16scanner_policiesINS3_24skipper_iteration_policyINS3_16iteration_policyEEENS3_12match_policyENS3_13action_policyEEEEEEEE19get_untyped_deleterEv@Base 12.0.3
 _ZN5boost6detail17sp_counted_impl_pINS_6spirit7classic4impl14grammar_helperINS3_7grammarIN11json_spirit12Json_grammerINS7_10Value_implINS7_13Config_vectorINSt7__cxx1112basic_stringIcSt11char_traitsIcESaIcEEEEEEENS3_17position_iteratorINS3_10multi_passISt16istream_iteratorIccSE_lENS3_19multi_pass_policies14input_iteratorENSN_11ref_countedENSN_12buf_id_checkENSN_9std_dequeEEENS3_18file_position_baseISG_EENS3_5nil_tEEEEENS3_14parser_contextISV_EEEESX_NS3_7scannerISW_NS3_16scanner_policiesINS3_24skipper_iteration_policyINS3_16iteration_policyEEENS3_12match_policyENS3_13action_policyEEEEEEEE7disposeEv@Base 12.0.3
 _ZN5boost6detail17sp_counted_impl_pINS_6spirit7classic4impl14grammar_helperINS3_7grammarIN11json_spirit12Json_grammerINS7_10Value_implINS7_13Config_vectorINSt7__cxx1112basic_stringIcSt11char_traitsIcESaIcEEEEEEENS3_17position_iteratorINS3_10multi_passISt16istream_iteratorIccSE_lENS3_19multi_pass_policies14input_iteratorENSN_11ref_countedENSN_12buf_id_checkENSN_9std_dequeEEENS3_18file_position_baseISG_EENS3_5nil_tEEEEENS3_14parser_contextISV_EEEESX_NS3_7scannerISW_NS3_16scanner_policiesINS3_24skipper_iteration_policyINS3_16iteration_policyEEENS3_12match_policyENS3_13action_policyEEEEEEEED0Ev@Base 12.0.3
 _ZN5boost6detail17sp_counted_impl_pINS_6spirit7classic4impl14grammar_helperINS3_7grammarIN11json_spirit12Json_grammerINS7_10Value_implINS7_13Config_vectorINSt7__cxx1112basic_stringIcSt11char_traitsIcESaIcEEEEEEENS3_17position_iteratorINS3_10multi_passISt16istream_iteratorIccSE_lENS3_19multi_pass_policies14input_iteratorENSN_11ref_countedENSN_12buf_id_checkENSN_9std_dequeEEENS3_18file_position_baseISG_EENS3_5nil_tEEEEENS3_14parser_contextISV_EEEESX_NS3_7scannerISW_NS3_16scanner_policiesINS3_24skipper_iteration_policyINS3_16iteration_policyEEENS3_12match_policyENS3_13action_policyEEEEEEEED1Ev@Base 12.0.3
 _ZN5boost6detail17sp_counted_impl_pINS_6spirit7classic4impl14grammar_helperINS3_7grammarIN11json_spirit12Json_grammerINS7_10Value_implINS7_13Config_vectorINSt7__cxx1112basic_stringIcSt11char_traitsIcESaIcEEEEEEENS3_17position_iteratorINS3_10multi_passISt16istream_iteratorIccSE_lENS3_19multi_pass_policies14input_iteratorENSN_11ref_countedENSN_12buf_id_checkENSN_9std_dequeEEENS3_18file_position_baseISG_EENS3_5nil_tEEEEENS3_14parser_contextISV_EEEESX_NS3_7scannerISW_NS3_16scanner_policiesINS3_24skipper_iteration_policyINS3_16iteration_policyEEENS3_12match_policyENS3_13action_policyEEEEEEEED2Ev@Base 12.0.3
 _ZN5boost6detail17sp_counted_impl_pINS_6spirit7classic4impl26object_with_id_base_supplyImEEE11get_deleterERKSt9type_info@Base 12.0.3
 _ZN5boost6detail17sp_counted_impl_pINS_6spirit7classic4impl26object_with_id_base_supplyImEEE17get_local_deleterERKSt9type_info@Base 12.0.3
 _ZN5boost6detail17sp_counted_impl_pINS_6spirit7classic4impl26object_with_id_base_supplyImEEE19get_untyped_deleterEv@Base 12.0.3
 _ZN5boost6detail17sp_counted_impl_pINS_6spirit7classic4impl26object_with_id_base_supplyImEEE7disposeEv@Base 12.0.3
 _ZN5boost6detail17sp_counted_impl_pINS_6spirit7classic4impl26object_with_id_base_supplyImEEED0Ev@Base 12.0.3
 _ZN5boost6detail17sp_counted_impl_pINS_6spirit7classic4impl26object_with_id_base_supplyImEEED1Ev@Base 12.0.3
 _ZN5boost6detail17sp_counted_impl_pINS_6spirit7classic4impl26object_with_id_base_supplyImEEED2Ev@Base 12.0.3
 _ZN5boost6detail17sp_counted_impl_pINS_9iostreams16symmetric_filterINS2_6detail20zlib_compressor_implISaIcEEES6_E4implEE11get_deleterERKSt9type_info@Base 12.0.3
 _ZN5boost6detail17sp_counted_impl_pINS_9iostreams16symmetric_filterINS2_6detail20zlib_compressor_implISaIcEEES6_E4implEE17get_local_deleterERKSt9type_info@Base 12.0.3
 _ZN5boost6detail17sp_counted_impl_pINS_9iostreams16symmetric_filterINS2_6detail20zlib_compressor_implISaIcEEES6_E4implEE19get_untyped_deleterEv@Base 12.0.3
 _ZN5boost6detail17sp_counted_impl_pINS_9iostreams16symmetric_filterINS2_6detail20zlib_compressor_implISaIcEEES6_E4implEE7disposeEv@Base 12.0.3
 _ZN5boost6detail17sp_counted_impl_pINS_9iostreams16symmetric_filterINS2_6detail20zlib_compressor_implISaIcEEES6_E4implEED0Ev@Base 12.0.3
 _ZN5boost6detail17sp_counted_impl_pINS_9iostreams16symmetric_filterINS2_6detail20zlib_compressor_implISaIcEEES6_E4implEED1Ev@Base 12.0.3
 _ZN5boost6detail17sp_counted_impl_pINS_9iostreams16symmetric_filterINS2_6detail20zlib_compressor_implISaIcEEES6_E4implEED2Ev@Base 12.0.3
 _ZN5boost6detail17sp_counted_impl_pINS_9iostreams6detail10chain_baseINS2_5chainINS2_6outputEcSt11char_traitsIcESaIcEEEcS8_S9_S6_E10chain_implEE11get_deleterERKSt9type_info@Base 12.0.3
 _ZN5boost6detail17sp_counted_impl_pINS_9iostreams6detail10chain_baseINS2_5chainINS2_6outputEcSt11char_traitsIcESaIcEEEcS8_S9_S6_E10chain_implEE17get_local_deleterERKSt9type_info@Base 12.0.3
 _ZN5boost6detail17sp_counted_impl_pINS_9iostreams6detail10chain_baseINS2_5chainINS2_6outputEcSt11char_traitsIcESaIcEEEcS8_S9_S6_E10chain_implEE19get_untyped_deleterEv@Base 12.0.3
 _ZN5boost6detail17sp_counted_impl_pINS_9iostreams6detail10chain_baseINS2_5chainINS2_6outputEcSt11char_traitsIcESaIcEEEcS8_S9_S6_E10chain_implEE7disposeEv@Base 12.0.3
 _ZN5boost6detail17sp_counted_impl_pINS_9iostreams6detail10chain_baseINS2_5chainINS2_6outputEcSt11char_traitsIcESaIcEEEcS8_S9_S6_E10chain_implEED0Ev@Base 12.0.3
 _ZN5boost6detail17sp_counted_impl_pINS_9iostreams6detail10chain_baseINS2_5chainINS2_6outputEcSt11char_traitsIcESaIcEEEcS8_S9_S6_E10chain_implEED1Ev@Base 12.0.3
 _ZN5boost6detail17sp_counted_impl_pINS_9iostreams6detail10chain_baseINS2_5chainINS2_6outputEcSt11char_traitsIcESaIcEEEcS8_S9_S6_E10chain_implEED2Ev@Base 12.0.3
 _ZN5boost6detail18sp_counted_impl_pdIPNS_2io18basic_altstringbufIcSt11char_traitsIcESaIcEEENS2_22basic_oaltstringstreamIcS5_S6_E5No_OpEE11get_deleterERKSt9type_info@Base 12.0.3
 _ZN5boost6detail18sp_counted_impl_pdIPNS_2io18basic_altstringbufIcSt11char_traitsIcESaIcEEENS2_22basic_oaltstringstreamIcS5_S6_E5No_OpEE17get_local_deleterERKSt9type_info@Base 12.0.3
 _ZN5boost6detail18sp_counted_impl_pdIPNS_2io18basic_altstringbufIcSt11char_traitsIcESaIcEEENS2_22basic_oaltstringstreamIcS5_S6_E5No_OpEE19get_untyped_deleterEv@Base 12.0.3
 _ZN5boost6detail18sp_counted_impl_pdIPNS_2io18basic_altstringbufIcSt11char_traitsIcESaIcEEENS2_22basic_oaltstringstreamIcS5_S6_E5No_OpEE7disposeEv@Base 12.0.3
 _ZN5boost6detail18sp_counted_impl_pdIPNS_2io18basic_altstringbufIcSt11char_traitsIcESaIcEEENS2_22basic_oaltstringstreamIcS5_S6_E5No_OpEED0Ev@Base 12.0.3
 _ZN5boost6detail18sp_counted_impl_pdIPNS_2io18basic_altstringbufIcSt11char_traitsIcESaIcEEENS2_22basic_oaltstringstreamIcS5_S6_E5No_OpEED1Ev@Base 12.0.3
 _ZN5boost6detail18sp_counted_impl_pdIPNS_2io18basic_altstringbufIcSt11char_traitsIcESaIcEEENS2_22basic_oaltstringstreamIcS5_S6_E5No_OpEED2Ev@Base 12.0.3
 _ZN5boost6detail24invalid_utf32_code_pointEj@Base 12.0.3
 _ZN5boost6detail8function15functor_managerINS_3_bi6bind_tIvNS_4_mfi3mf1IvN11json_spirit16Semantic_actionsINS7_10Value_implINS7_10Config_mapINSt7__cxx1112basic_stringIcSt11char_traitsIcESaIcEEEEEEEN9__gnu_cxx17__normal_iteratorIPKcSG_EEEEcEENS3_5list2INS3_5valueIPSO_EENS_3argILi1EEEEEEEE6manageERKNS1_15function_bufferERSZ_NS1_30functor_manager_operation_typeE@Base 12.0.3
 _ZN5boost6detail8function15functor_managerINS_3_bi6bind_tIvNS_4_mfi3mf1IvN11json_spirit16Semantic_actionsINS7_10Value_implINS7_10Config_mapINSt7__cxx1112basic_stringIcSt11char_traitsIcESaIcEEEEEEEN9__gnu_cxx17__normal_iteratorIPKcSG_EEEEdEENS3_5list2INS3_5valueIPSO_EENS_3argILi1EEEEEEEE6manageERKNS1_15function_bufferERSZ_NS1_30functor_manager_operation_typeE@Base 12.0.3
 _ZN5boost6detail8function15functor_managerINS_3_bi6bind_tIvNS_4_mfi3mf1IvN11json_spirit16Semantic_actionsINS7_10Value_implINS7_10Config_mapINSt7__cxx1112basic_stringIcSt11char_traitsIcESaIcEEEEEEEN9__gnu_cxx17__normal_iteratorIPKcSG_EEEElEENS3_5list2INS3_5valueIPSO_EENS_3argILi1EEEEEEEE6manageERKNS1_15function_bufferERSZ_NS1_30functor_manager_operation_typeE@Base 12.0.3
 _ZN5boost6detail8function15functor_managerINS_3_bi6bind_tIvNS_4_mfi3mf1IvN11json_spirit16Semantic_actionsINS7_10Value_implINS7_10Config_mapINSt7__cxx1112basic_stringIcSt11char_traitsIcESaIcEEEEEEEN9__gnu_cxx17__normal_iteratorIPKcSG_EEEEmEENS3_5list2INS3_5valueIPSO_EENS_3argILi1EEEEEEEE6manageERKNS1_15function_bufferERSZ_NS1_30functor_manager_operation_typeE@Base 12.0.3
 _ZN5boost6detail8function15functor_managerINS_3_bi6bind_tIvNS_4_mfi3mf1IvN11json_spirit16Semantic_actionsINS7_10Value_implINS7_10Config_mapINSt7__cxx1112basic_stringIcSt11char_traitsIcESaIcEEEEEEENS_6spirit7classic10multi_passISt16istream_iteratorIccSE_lENSK_19multi_pass_policies14input_iteratorENSO_11ref_countedENSO_12buf_id_checkENSO_9std_dequeEEEEEcEENS3_5list2INS3_5valueIPSU_EENS_3argILi1EEEEEEEE6manageERKNS1_15function_bufferERS15_NS1_30functor_manager_operation_typeE@Base 12.0.3
 _ZN5boost6detail8function15functor_managerINS_3_bi6bind_tIvNS_4_mfi3mf1IvN11json_spirit16Semantic_actionsINS7_10Value_implINS7_10Config_mapINSt7__cxx1112basic_stringIcSt11char_traitsIcESaIcEEEEEEENS_6spirit7classic10multi_passISt16istream_iteratorIccSE_lENSK_19multi_pass_policies14input_iteratorENSO_11ref_countedENSO_12buf_id_checkENSO_9std_dequeEEEEEdEENS3_5list2INS3_5valueIPSU_EENS_3argILi1EEEEEEEE6manageERKNS1_15function_bufferERS15_NS1_30functor_manager_operation_typeE@Base 12.0.3
 _ZN5boost6detail8function15functor_managerINS_3_bi6bind_tIvNS_4_mfi3mf1IvN11json_spirit16Semantic_actionsINS7_10Value_implINS7_10Config_mapINSt7__cxx1112basic_stringIcSt11char_traitsIcESaIcEEEEEEENS_6spirit7classic10multi_passISt16istream_iteratorIccSE_lENSK_19multi_pass_policies14input_iteratorENSO_11ref_countedENSO_12buf_id_checkENSO_9std_dequeEEEEElEENS3_5list2INS3_5valueIPSU_EENS_3argILi1EEEEEEEE6manageERKNS1_15function_bufferERS15_NS1_30functor_manager_operation_typeE@Base 12.0.3
 _ZN5boost6detail8function15functor_managerINS_3_bi6bind_tIvNS_4_mfi3mf1IvN11json_spirit16Semantic_actionsINS7_10Value_implINS7_10Config_mapINSt7__cxx1112basic_stringIcSt11char_traitsIcESaIcEEEEEEENS_6spirit7classic10multi_passISt16istream_iteratorIccSE_lENSK_19multi_pass_policies14input_iteratorENSO_11ref_countedENSO_12buf_id_checkENSO_9std_dequeEEEEEmEENS3_5list2INS3_5valueIPSU_EENS_3argILi1EEEEEEEE6manageERKNS1_15function_bufferERS15_NS1_30functor_manager_operation_typeE@Base 12.0.3
 _ZN5boost6detail8function15functor_managerINS_3_bi6bind_tIvNS_4_mfi3mf1IvN11json_spirit16Semantic_actionsINS7_10Value_implINS7_10Config_mapINSt7__cxx1112basic_stringIcSt11char_traitsIcESaIcEEEEEEENS_6spirit7classic17position_iteratorIN9__gnu_cxx17__normal_iteratorIPKcSG_EENSK_18file_position_baseISG_EENSK_5nil_tEEEEEcEENS3_5list2INS3_5valueIPSV_EENS_3argILi1EEEEEEEE6manageERKNS1_15function_bufferERS16_NS1_30functor_manager_operation_typeE@Base 12.0.3
 _ZN5boost6detail8function15functor_managerINS_3_bi6bind_tIvNS_4_mfi3mf1IvN11json_spirit16Semantic_actionsINS7_10Value_implINS7_10Config_mapINSt7__cxx1112basic_stringIcSt11char_traitsIcESaIcEEEEEEENS_6spirit7classic17position_iteratorIN9__gnu_cxx17__normal_iteratorIPKcSG_EENSK_18file_position_baseISG_EENSK_5nil_tEEEEEdEENS3_5list2INS3_5valueIPSV_EENS_3argILi1EEEEEEEE6manageERKNS1_15function_bufferERS16_NS1_30functor_manager_operation_typeE@Base 12.0.3
 _ZN5boost6detail8function15functor_managerINS_3_bi6bind_tIvNS_4_mfi3mf1IvN11json_spirit16Semantic_actionsINS7_10Value_implINS7_10Config_mapINSt7__cxx1112basic_stringIcSt11char_traitsIcESaIcEEEEEEENS_6spirit7classic17position_iteratorIN9__gnu_cxx17__normal_iteratorIPKcSG_EENSK_18file_position_baseISG_EENSK_5nil_tEEEEElEENS3_5list2INS3_5valueIPSV_EENS_3argILi1EEEEEEEE6manageERKNS1_15function_bufferERS16_NS1_30functor_manager_operation_typeE@Base 12.0.3
 _ZN5boost6detail8function15functor_managerINS_3_bi6bind_tIvNS_4_mfi3mf1IvN11json_spirit16Semantic_actionsINS7_10Value_implINS7_10Config_mapINSt7__cxx1112basic_stringIcSt11char_traitsIcESaIcEEEEEEENS_6spirit7classic17position_iteratorIN9__gnu_cxx17__normal_iteratorIPKcSG_EENSK_18file_position_baseISG_EENSK_5nil_tEEEEEmEENS3_5list2INS3_5valueIPSV_EENS_3argILi1EEEEEEEE6manageERKNS1_15function_bufferERS16_NS1_30functor_manager_operation_typeE@Base 12.0.3
 _ZN5boost6detail8function15functor_managerINS_3_bi6bind_tIvNS_4_mfi3mf1IvN11json_spirit16Semantic_actionsINS7_10Value_implINS7_10Config_mapINSt7__cxx1112basic_stringIcSt11char_traitsIcESaIcEEEEEEENS_6spirit7classic17position_iteratorINSK_10multi_passISt16istream_iteratorIccSE_lENSK_19multi_pass_policies14input_iteratorENSP_11ref_countedENSP_12buf_id_checkENSP_9std_dequeEEENSK_18file_position_baseISG_EENSK_5nil_tEEEEEcEENS3_5list2INS3_5valueIPSZ_EENS_3argILi1EEEEEEEE6manageERKNS1_15function_bufferERS1A_NS1_30functor_manager_operation_typeE@Base 12.0.3
 _ZN5boost6detail8function15functor_managerINS_3_bi6bind_tIvNS_4_mfi3mf1IvN11json_spirit16Semantic_actionsINS7_10Value_implINS7_10Config_mapINSt7__cxx1112basic_stringIcSt11char_traitsIcESaIcEEEEEEENS_6spirit7classic17position_iteratorINSK_10multi_passISt16istream_iteratorIccSE_lENSK_19multi_pass_policies14input_iteratorENSP_11ref_countedENSP_12buf_id_checkENSP_9std_dequeEEENSK_18file_position_baseISG_EENSK_5nil_tEEEEEdEENS3_5list2INS3_5valueIPSZ_EENS_3argILi1EEEEEEEE6manageERKNS1_15function_bufferERS1A_NS1_30functor_manager_operation_typeE@Base 12.0.3
 _ZN5boost6detail8function15functor_managerINS_3_bi6bind_tIvNS_4_mfi3mf1IvN11json_spirit16Semantic_actionsINS7_10Value_implINS7_10Config_mapINSt7__cxx1112basic_stringIcSt11char_traitsIcESaIcEEEEEEENS_6spirit7classic17position_iteratorINSK_10multi_passISt16istream_iteratorIccSE_lENSK_19multi_pass_policies14input_iteratorENSP_11ref_countedENSP_12buf_id_checkENSP_9std_dequeEEENSK_18file_position_baseISG_EENSK_5nil_tEEEEElEENS3_5list2INS3_5valueIPSZ_EENS_3argILi1EEEEEEEE6manageERKNS1_15function_bufferERS1A_NS1_30functor_manager_operation_typeE@Base 12.0.3
 _ZN5boost6detail8function15functor_managerINS_3_bi6bind_tIvNS_4_mfi3mf1IvN11json_spirit16Semantic_actionsINS7_10Value_implINS7_10Config_mapINSt7__cxx1112basic_stringIcSt11char_traitsIcESaIcEEEEEEENS_6spirit7classic17position_iteratorINSK_10multi_passISt16istream_iteratorIccSE_lENSK_19multi_pass_policies14input_iteratorENSP_11ref_countedENSP_12buf_id_checkENSP_9std_dequeEEENSK_18file_position_baseISG_EENSK_5nil_tEEEEEmEENS3_5list2INS3_5valueIPSZ_EENS_3argILi1EEEEEEEE6manageERKNS1_15function_bufferERS1A_NS1_30functor_manager_operation_typeE@Base 12.0.3
 _ZN5boost6detail8function15functor_managerINS_3_bi6bind_tIvNS_4_mfi3mf1IvN11json_spirit16Semantic_actionsINS7_10Value_implINS7_13Config_vectorINSt7__cxx1112basic_stringIcSt11char_traitsIcESaIcEEEEEEEN9__gnu_cxx17__normal_iteratorIPKcSG_EEEEcEENS3_5list2INS3_5valueIPSO_EENS_3argILi1EEEEEEEE6manageERKNS1_15function_bufferERSZ_NS1_30functor_manager_operation_typeE@Base 12.0.3
 _ZN5boost6detail8function15functor_managerINS_3_bi6bind_tIvNS_4_mfi3mf1IvN11json_spirit16Semantic_actionsINS7_10Value_implINS7_13Config_vectorINSt7__cxx1112basic_stringIcSt11char_traitsIcESaIcEEEEEEEN9__gnu_cxx17__normal_iteratorIPKcSG_EEEEdEENS3_5list2INS3_5valueIPSO_EENS_3argILi1EEEEEEEE6manageERKNS1_15function_bufferERSZ_NS1_30functor_manager_operation_typeE@Base 12.0.3
 _ZN5boost6detail8function15functor_managerINS_3_bi6bind_tIvNS_4_mfi3mf1IvN11json_spirit16Semantic_actionsINS7_10Value_implINS7_13Config_vectorINSt7__cxx1112basic_stringIcSt11char_traitsIcESaIcEEEEEEEN9__gnu_cxx17__normal_iteratorIPKcSG_EEEElEENS3_5list2INS3_5valueIPSO_EENS_3argILi1EEEEEEEE6manageERKNS1_15function_bufferERSZ_NS1_30functor_manager_operation_typeE@Base 12.0.3
 _ZN5boost6detail8function15functor_managerINS_3_bi6bind_tIvNS_4_mfi3mf1IvN11json_spirit16Semantic_actionsINS7_10Value_implINS7_13Config_vectorINSt7__cxx1112basic_stringIcSt11char_traitsIcESaIcEEEEEEEN9__gnu_cxx17__normal_iteratorIPKcSG_EEEEmEENS3_5list2INS3_5valueIPSO_EENS_3argILi1EEEEEEEE6manageERKNS1_15function_bufferERSZ_NS1_30functor_manager_operation_typeE@Base 12.0.3
 _ZN5boost6detail8function15functor_managerINS_3_bi6bind_tIvNS_4_mfi3mf1IvN11json_spirit16Semantic_actionsINS7_10Value_implINS7_13Config_vectorINSt7__cxx1112basic_stringIcSt11char_traitsIcESaIcEEEEEEENS_6spirit7classic10multi_passISt16istream_iteratorIccSE_lENSK_19multi_pass_policies14input_iteratorENSO_11ref_countedENSO_12buf_id_checkENSO_9std_dequeEEEEEcEENS3_5list2INS3_5valueIPSU_EENS_3argILi1EEEEEEEE6manageERKNS1_15function_bufferERS15_NS1_30functor_manager_operation_typeE@Base 12.0.3
 _ZN5boost6detail8function15functor_managerINS_3_bi6bind_tIvNS_4_mfi3mf1IvN11json_spirit16Semantic_actionsINS7_10Value_implINS7_13Config_vectorINSt7__cxx1112basic_stringIcSt11char_traitsIcESaIcEEEEEEENS_6spirit7classic10multi_passISt16istream_iteratorIccSE_lENSK_19multi_pass_policies14input_iteratorENSO_11ref_countedENSO_12buf_id_checkENSO_9std_dequeEEEEEdEENS3_5list2INS3_5valueIPSU_EENS_3argILi1EEEEEEEE6manageERKNS1_15function_bufferERS15_NS1_30functor_manager_operation_typeE@Base 12.0.3
 _ZN5boost6detail8function15functor_managerINS_3_bi6bind_tIvNS_4_mfi3mf1IvN11json_spirit16Semantic_actionsINS7_10Value_implINS7_13Config_vectorINSt7__cxx1112basic_stringIcSt11char_traitsIcESaIcEEEEEEENS_6spirit7classic10multi_passISt16istream_iteratorIccSE_lENSK_19multi_pass_policies14input_iteratorENSO_11ref_countedENSO_12buf_id_checkENSO_9std_dequeEEEEElEENS3_5list2INS3_5valueIPSU_EENS_3argILi1EEEEEEEE6manageERKNS1_15function_bufferERS15_NS1_30functor_manager_operation_typeE@Base 12.0.3
 _ZN5boost6detail8function15functor_managerINS_3_bi6bind_tIvNS_4_mfi3mf1IvN11json_spirit16Semantic_actionsINS7_10Value_implINS7_13Config_vectorINSt7__cxx1112basic_stringIcSt11char_traitsIcESaIcEEEEEEENS_6spirit7classic10multi_passISt16istream_iteratorIccSE_lENSK_19multi_pass_policies14input_iteratorENSO_11ref_countedENSO_12buf_id_checkENSO_9std_dequeEEEEEmEENS3_5list2INS3_5valueIPSU_EENS_3argILi1EEEEEEEE6manageERKNS1_15function_bufferERS15_NS1_30functor_manager_operation_typeE@Base 12.0.3
 _ZN5boost6detail8function15functor_managerINS_3_bi6bind_tIvNS_4_mfi3mf1IvN11json_spirit16Semantic_actionsINS7_10Value_implINS7_13Config_vectorINSt7__cxx1112basic_stringIcSt11char_traitsIcESaIcEEEEEEENS_6spirit7classic17position_iteratorIN9__gnu_cxx17__normal_iteratorIPKcSG_EENSK_18file_position_baseISG_EENSK_5nil_tEEEEEcEENS3_5list2INS3_5valueIPSV_EENS_3argILi1EEEEEEEE6manageERKNS1_15function_bufferERS16_NS1_30functor_manager_operation_typeE@Base 12.0.3
 _ZN5boost6detail8function15functor_managerINS_3_bi6bind_tIvNS_4_mfi3mf1IvN11json_spirit16Semantic_actionsINS7_10Value_implINS7_13Config_vectorINSt7__cxx1112basic_stringIcSt11char_traitsIcESaIcEEEEEEENS_6spirit7classic17position_iteratorIN9__gnu_cxx17__normal_iteratorIPKcSG_EENSK_18file_position_baseISG_EENSK_5nil_tEEEEEdEENS3_5list2INS3_5valueIPSV_EENS_3argILi1EEEEEEEE6manageERKNS1_15function_bufferERS16_NS1_30functor_manager_operation_typeE@Base 12.0.3
 _ZN5boost6detail8function15functor_managerINS_3_bi6bind_tIvNS_4_mfi3mf1IvN11json_spirit16Semantic_actionsINS7_10Value_implINS7_13Config_vectorINSt7__cxx1112basic_stringIcSt11char_traitsIcESaIcEEEEEEENS_6spirit7classic17position_iteratorIN9__gnu_cxx17__normal_iteratorIPKcSG_EENSK_18file_position_baseISG_EENSK_5nil_tEEEEElEENS3_5list2INS3_5valueIPSV_EENS_3argILi1EEEEEEEE6manageERKNS1_15function_bufferERS16_NS1_30functor_manager_operation_typeE@Base 12.0.3
 _ZN5boost6detail8function15functor_managerINS_3_bi6bind_tIvNS_4_mfi3mf1IvN11json_spirit16Semantic_actionsINS7_10Value_implINS7_13Config_vectorINSt7__cxx1112basic_stringIcSt11char_traitsIcESaIcEEEEEEENS_6spirit7classic17position_iteratorIN9__gnu_cxx17__normal_iteratorIPKcSG_EENSK_18file_position_baseISG_EENSK_5nil_tEEEEEmEENS3_5list2INS3_5valueIPSV_EENS_3argILi1EEEEEEEE6manageERKNS1_15function_bufferERS16_NS1_30functor_manager_operation_typeE@Base 12.0.3
 _ZN5boost6detail8function15functor_managerINS_3_bi6bind_tIvNS_4_mfi3mf1IvN11json_spirit16Semantic_actionsINS7_10Value_implINS7_13Config_vectorINSt7__cxx1112basic_stringIcSt11char_traitsIcESaIcEEEEEEENS_6spirit7classic17position_iteratorINSK_10multi_passISt16istream_iteratorIccSE_lENSK_19multi_pass_policies14input_iteratorENSP_11ref_countedENSP_12buf_id_checkENSP_9std_dequeEEENSK_18file_position_baseISG_EENSK_5nil_tEEEEEcEENS3_5list2INS3_5valueIPSZ_EENS_3argILi1EEEEEEEE6manageERKNS1_15function_bufferERS1A_NS1_30functor_manager_operation_typeE@Base 12.0.3
 _ZN5boost6detail8function15functor_managerINS_3_bi6bind_tIvNS_4_mfi3mf1IvN11json_spirit16Semantic_actionsINS7_10Value_implINS7_13Config_vectorINSt7__cxx1112basic_stringIcSt11char_traitsIcESaIcEEEEEEENS_6spirit7classic17position_iteratorINSK_10multi_passISt16istream_iteratorIccSE_lENSK_19multi_pass_policies14input_iteratorENSP_11ref_countedENSP_12buf_id_checkENSP_9std_dequeEEENSK_18file_position_baseISG_EENSK_5nil_tEEEEEdEENS3_5list2INS3_5valueIPSZ_EENS_3argILi1EEEEEEEE6manageERKNS1_15function_bufferERS1A_NS1_30functor_manager_operation_typeE@Base 12.0.3
 _ZN5boost6detail8function15functor_managerINS_3_bi6bind_tIvNS_4_mfi3mf1IvN11json_spirit16Semantic_actionsINS7_10Value_implINS7_13Config_vectorINSt7__cxx1112basic_stringIcSt11char_traitsIcESaIcEEEEEEENS_6spirit7classic17position_iteratorINSK_10multi_passISt16istream_iteratorIccSE_lENSK_19multi_pass_policies14input_iteratorENSP_11ref_countedENSP_12buf_id_checkENSP_9std_dequeEEENSK_18file_position_baseISG_EENSK_5nil_tEEEEElEENS3_5list2INS3_5valueIPSZ_EENS_3argILi1EEEEEEEE6manageERKNS1_15function_bufferERS1A_NS1_30functor_manager_operation_typeE@Base 12.0.3
 _ZN5boost6detail8function15functor_managerINS_3_bi6bind_tIvNS_4_mfi3mf1IvN11json_spirit16Semantic_actionsINS7_10Value_implINS7_13Config_vectorINSt7__cxx1112basic_stringIcSt11char_traitsIcESaIcEEEEEEENS_6spirit7classic17position_iteratorINSK_10multi_passISt16istream_iteratorIccSE_lENSK_19multi_pass_policies14input_iteratorENSP_11ref_countedENSP_12buf_id_checkENSP_9std_dequeEEENSK_18file_position_baseISG_EENSK_5nil_tEEEEEmEENS3_5list2INS3_5valueIPSZ_EENS_3argILi1EEEEEEEE6manageERKNS1_15function_bufferERS1A_NS1_30functor_manager_operation_typeE@Base 12.0.3
 _ZN5boost6detail8function15functor_managerINS_3_bi6bind_tIvNS_4_mfi3mf2IvN11json_spirit16Semantic_actionsINS7_10Value_implINS7_10Config_mapINSt7__cxx1112basic_stringIcSt11char_traitsIcESaIcEEEEEEEN9__gnu_cxx17__normal_iteratorIPKcSG_EEEESN_SN_EENS3_5list3INS3_5valueIPSO_EENS_3argILi1EEENSU_ILi2EEEEEEEE6manageERKNS1_15function_bufferERS10_NS1_30functor_manager_operation_typeE@Base 12.0.3
 _ZN5boost6detail8function15functor_managerINS_3_bi6bind_tIvNS_4_mfi3mf2IvN11json_spirit16Semantic_actionsINS7_10Value_implINS7_10Config_mapINSt7__cxx1112basic_stringIcSt11char_traitsIcESaIcEEEEEEENS_6spirit7classic10multi_passISt16istream_iteratorIccSE_lENSK_19multi_pass_policies14input_iteratorENSO_11ref_countedENSO_12buf_id_checkENSO_9std_dequeEEEEEST_ST_EENS3_5list3INS3_5valueIPSU_EENS_3argILi1EEENS10_ILi2EEEEEEEE6manageERKNS1_15function_bufferERS16_NS1_30functor_manager_operation_typeE@Base 12.0.3
 _ZN5boost6detail8function15functor_managerINS_3_bi6bind_tIvNS_4_mfi3mf2IvN11json_spirit16Semantic_actionsINS7_10Value_implINS7_10Config_mapINSt7__cxx1112basic_stringIcSt11char_traitsIcESaIcEEEEEEENS_6spirit7classic17position_iteratorIN9__gnu_cxx17__normal_iteratorIPKcSG_EENSK_18file_position_baseISG_EENSK_5nil_tEEEEESU_SU_EENS3_5list3INS3_5valueIPSV_EENS_3argILi1EEENS11_ILi2EEEEEEEE6manageERKNS1_15function_bufferERS17_NS1_30functor_manager_operation_typeE@Base 12.0.3
 _ZN5boost6detail8function15functor_managerINS_3_bi6bind_tIvNS_4_mfi3mf2IvN11json_spirit16Semantic_actionsINS7_10Value_implINS7_10Config_mapINSt7__cxx1112basic_stringIcSt11char_traitsIcESaIcEEEEEEENS_6spirit7classic17position_iteratorINSK_10multi_passISt16istream_iteratorIccSE_lENSK_19multi_pass_policies14input_iteratorENSP_11ref_countedENSP_12buf_id_checkENSP_9std_dequeEEENSK_18file_position_baseISG_EENSK_5nil_tEEEEESY_SY_EENS3_5list3INS3_5valueIPSZ_EENS_3argILi1EEENS15_ILi2EEEEEEEE6manageERKNS1_15function_bufferERS1B_NS1_30functor_manager_operation_typeE@Base 12.0.3
 _ZN5boost6detail8function15functor_managerINS_3_bi6bind_tIvNS_4_mfi3mf2IvN11json_spirit16Semantic_actionsINS7_10Value_implINS7_13Config_vectorINSt7__cxx1112basic_stringIcSt11char_traitsIcESaIcEEEEEEEN9__gnu_cxx17__normal_iteratorIPKcSG_EEEESN_SN_EENS3_5list3INS3_5valueIPSO_EENS_3argILi1EEENSU_ILi2EEEEEEEE6manageERKNS1_15function_bufferERS10_NS1_30functor_manager_operation_typeE@Base 12.0.3
 _ZN5boost6detail8function15functor_managerINS_3_bi6bind_tIvNS_4_mfi3mf2IvN11json_spirit16Semantic_actionsINS7_10Value_implINS7_13Config_vectorINSt7__cxx1112basic_stringIcSt11char_traitsIcESaIcEEEEEEENS_6spirit7classic10multi_passISt16istream_iteratorIccSE_lENSK_19multi_pass_policies14input_iteratorENSO_11ref_countedENSO_12buf_id_checkENSO_9std_dequeEEEEEST_ST_EENS3_5list3INS3_5valueIPSU_EENS_3argILi1EEENS10_ILi2EEEEEEEE6manageERKNS1_15function_bufferERS16_NS1_30functor_manager_operation_typeE@Base 12.0.3
 _ZN5boost6detail8function15functor_managerINS_3_bi6bind_tIvNS_4_mfi3mf2IvN11json_spirit16Semantic_actionsINS7_10Value_implINS7_13Config_vectorINSt7__cxx1112basic_stringIcSt11char_traitsIcESaIcEEEEEEENS_6spirit7classic17position_iteratorIN9__gnu_cxx17__normal_iteratorIPKcSG_EENSK_18file_position_baseISG_EENSK_5nil_tEEEEESU_SU_EENS3_5list3INS3_5valueIPSV_EENS_3argILi1EEENS11_ILi2EEEEEEEE6manageERKNS1_15function_bufferERS17_NS1_30functor_manager_operation_typeE@Base 12.0.3
 _ZN5boost6detail8function15functor_managerINS_3_bi6bind_tIvNS_4_mfi3mf2IvN11json_spirit16Semantic_actionsINS7_10Value_implINS7_13Config_vectorINSt7__cxx1112basic_stringIcSt11char_traitsIcESaIcEEEEEEENS_6spirit7classic17position_iteratorINSK_10multi_passISt16istream_iteratorIccSE_lENSK_19multi_pass_policies14input_iteratorENSP_11ref_countedENSP_12buf_id_checkENSP_9std_dequeEEENSK_18file_position_baseISG_EENSK_5nil_tEEEEESY_SY_EENS3_5list3INS3_5valueIPSZ_EENS_3argILi1EEENS15_ILi2EEEEEEEE6manageERKNS1_15function_bufferERS1B_NS1_30functor_manager_operation_typeE@Base 12.0.3
 _ZN5boost6detail8function15functor_managerINS_6spirit2qi6detail13parser_binderINS4_11alternativeINS_6fusion4consINS4_12literal_charINS3_13char_encoding8standardELb1ELb0EEENS9_ISD_NS8_4nil_EEEEEEEN4mpl_5bool_ILb0EEEEEE6manageERKNS1_15function_bufferERSN_NS1_30functor_manager_operation_typeE@Base 12.0.3
 _ZN5boost6detail8function15functor_managerINS_6spirit2qi6detail13parser_binderINS4_11alternativeINS_6fusion4consINS4_16lexeme_directiveINS4_15expect_operatorINS9_INS4_8sequenceINS9_INS4_12literal_charINS3_13char_encoding8standardELb1ELb0EEENS9_INS4_6kleeneINS4_10differenceINS4_9referenceIKNS4_4ruleINS3_17line_pos_iteratorIPKcEEFcvENS3_11unused_typeESQ_SQ_EEEESG_EEEENS8_4nil_EEEEEEENS9_ISG_SW_EEEEEEEENS9_IS13_SW_EEEEEEN4mpl_5bool_ILb1EEEEEE6manageERKNS1_15function_bufferERS1C_NS1_30functor_manager_operation_typeE@Base 12.0.3
 _ZN5boost6detail8function15functor_managerINS_6spirit2qi6detail13parser_binderINS4_11alternativeINS_6fusion4consINS4_16lexeme_directiveINS4_8sequenceINS9_INS4_12literal_charINS3_13char_encoding8standardELb1ELb0EEENS9_INS4_4plusINS4_10differenceINS4_10char_classINS3_3tag9char_codeINSJ_5char_ESE_EEEESF_EEEENS9_ISF_NS8_4nil_EEEEEEEEEEENS9_ISV_SQ_EEEEEEN4mpl_5bool_ILb1EEEEEE6manageERKNS1_15function_bufferERS14_NS1_30functor_manager_operation_typeE@Base 12.0.3
 _ZN5boost6detail8function15functor_managerINS_6spirit2qi6detail13parser_binderINS4_11alternativeINS_6fusion4consINS4_6actionINS4_14literal_stringIRA2_KcLb1EEENS_7phoenix5actorINS_5proto7exprns_10basic_exprINSI_6tagns_3tag6assignENSI_7argsns_5list2INSH_INS3_9attributeILi0EEEEENSH_INSK_INSM_8terminalENSO_4termIhEELl0EEEEEEELl2EEEEEEENS9_INSA_INSB_IRA4_SC_Lb1EEES10_EENS9_INS4_8sequenceINS9_INSA_INS4_10eps_parserENSH_INSK_ISN_NSP_ISS_NSH_INSK_IST_NSU_IiEELl0EEEEEEELl2EEEEEEENS9_INS4_13sequential_orINS9_INSA_INS4_12literal_charINS3_13char_encoding8standardELb1ELb0EEENSH_INSK_INSM_17bitwise_or_assignESY_Ll2EEEEEEENS9_IS1N_NS9_IS1N_NS8_4nil_EEEEEEEEES1O_EEEEEES1O_EEEEEEEEN4mpl_5bool_ILb0EEEEEE6manageERKNS1_15function_bufferERS25_NS1_30functor_manager_operation_typeE@Base 12.0.3
 _ZN5boost6detail8function15functor_managerINS_6spirit2qi6detail13parser_binderINS4_11alternativeINS_6fusion4consINS4_8sequenceINS9_INS4_12literal_charINS3_13char_encoding8standardELb1ELb0EEENS9_INS4_10differenceINS4_10char_classINS3_3tag9char_codeINSH_5char_ESD_EEEENS4_10eol_parserEEENS8_4nil_EEEEEEENS9_INSF_ISL_NS7_INS9_INS4_9referenceIKNS4_4ruleINS3_17line_pos_iteratorIPKcEENS3_11unused_typeESY_SY_SY_EEEENS9_ISM_SO_EEEEEEEESO_EEEEEEN4mpl_5bool_ILb1EEEEEE6manageERKNS1_15function_bufferERS1E_NS1_30functor_manager_operation_typeE@Base 12.0.3
 _ZN5boost6detail8function15functor_managerINS_6spirit2qi6detail13parser_binderINS4_11alternativeINS_6fusion4consINS4_9referenceIKNS4_4ruleIN9__gnu_cxx17__normal_iteratorIPKcNSt7__cxx1112basic_stringIcSt11char_traitsIcESaIcEEEEEFSL_vENS3_11unused_typeESO_SO_EEEENS9_ISR_NS8_4nil_EEEEEEEN4mpl_5bool_ILb1EEEEEE6manageERKNS1_15function_bufferERS11_NS1_30functor_manager_operation_typeE@Base 12.0.3
 _ZN5boost6detail8function15functor_managerINS_6spirit2qi6detail13parser_binderINS4_11alternativeINS_6fusion4consINS4_9referenceIKNS4_4ruleINS3_17line_pos_iteratorIPKcEEFNSt7__cxx1112basic_stringIcSt11char_traitsIcESaIcEEEvENSB_ISF_NS3_11unused_typeESN_SN_SN_EESN_SN_EEEENS9_ISR_NS8_4nil_EEEEEEEN4mpl_5bool_ILb1EEEEEE6manageERKNS1_15function_bufferERS11_NS1_30functor_manager_operation_typeE@Base 12.0.3
 _ZN5boost6detail8function15functor_managerINS_6spirit2qi6detail13parser_binderINS4_11alternativeINS_6fusion4consINS4_9referenceIKNS4_4ruleINS3_17line_pos_iteratorIPKcEENS3_11unused_typeESG_SG_SG_EEEENS9_ISJ_NS8_4nil_EEEEEEEN4mpl_5bool_ILb0EEEEEE6manageERKNS1_15function_bufferERST_NS1_30functor_manager_operation_typeE@Base 12.0.3
 _ZN5boost6detail8function15functor_managerINS_6spirit2qi6detail13parser_binderINS4_13raw_directiveINS4_4listINS4_4plusINS4_10differenceINS4_9referenceIKNS4_4ruleINS3_17line_pos_iteratorIPKcEEFcvENS3_11unused_typeESI_SI_EEEENS4_8char_setINS3_13char_encoding8standardELb0ELb0EEEEEEENS9_INS4_10char_classINS3_3tag9char_codeINST_5blankESO_EEEEEEEEEEN4mpl_5bool_ILb1EEEEEE6manageERKNS1_15function_bufferERS16_NS1_30functor_manager_operation_typeE@Base 12.0.3
 _ZN5boost6detail8function15functor_managerINS_6spirit2qi6detail13parser_binderINS4_15expect_operatorINS_6fusion4consINS4_11alternativeINS9_INS4_6actionINS4_9referenceIKNS4_4ruleINS3_17line_pos_iteratorIPKcEEF11conf_line_tvENSD_ISH_NS3_11unused_typeESK_SK_SK_EESK_SK_EEEENS_7phoenix5actorINS_5proto7exprns_10basic_exprINSR_6tagns_3tag6assignENSR_7argsns_5list2INSQ_INS3_9attributeILi0EEEEENSQ_INST_INSP_3tag9constructENSY_INST_INSV_8terminalENSX_4termINSP_6detail6targetI8ConfFileEEEELl0EEENSQ_INS3_8argumentILi0EEEEEEELl2EEEEEEELl2EEEEEEENS9_INS4_8sequenceINS9_INS4_6kleeneINS4_10eol_parserEEENS9_INSB_INS1N_INSC_IKNSD_ISH_F14conf_section_tvESL_SK_SK_EEEEEES1K_EENS8_4nil_EEEEEEES1X_EEEEEENS9_INS4_10eoi_parserES1X_EEEEEEN4mpl_5bool_ILb0EEEEEE6manageERKNS1_15function_bufferERS2D_NS1_30functor_manager_operation_typeE@Base 12.0.3
 _ZN5boost6detail8function15functor_managerINS_6spirit2qi6detail13parser_binderINS4_15expect_operatorINS_6fusion4consINS4_12literal_charINS3_13char_encoding8standardELb1ELb0EEENS9_INS4_4plusINS4_10differenceINS4_9referenceIKNS4_4ruleINS3_17line_pos_iteratorIPKcEEFcvENS3_11unused_typeESN_SN_EEEESD_EEEENS9_ISD_NS9_INSE_INSG_IKNSH_ISL_SN_SN_SN_SN_EEEEEENS8_4nil_EEEEEEEEEEEN4mpl_5bool_ILb1EEEEEE6manageERKNS1_15function_bufferERS18_NS1_30functor_manager_operation_typeE@Base 12.0.3
 _ZN5boost6detail8function15functor_managerINS_6spirit2qi6detail13parser_binderINS4_15expect_operatorINS_6fusion4consINS4_8sequenceINS9_INS4_6kleeneINS4_10char_classINS3_3tag9char_codeINSD_5blankENS3_13char_encoding8standardEEEEEEENS9_INS4_9referenceIKNS4_4ruleINS3_17line_pos_iteratorIPKcEENS3_11unused_typeESR_SR_SR_EEEENS8_4nil_EEEEEEENS9_INSB_INS4_10differenceINSC_INSE_INSD_5char_ESH_EEEENS4_10eol_parserEEEEESV_EEEEEEN4mpl_5bool_ILb0EEEEEE6manageERKNS1_15function_bufferERS1E_NS1_30functor_manager_operation_typeE@Base 12.0.3
 _ZN5boost6detail8function15functor_managerINS_6spirit2qi6detail13parser_binderINS4_4listINS4_9referenceIKNS4_4ruleIN9__gnu_cxx17__normal_iteratorIPKcNSt7__cxx1112basic_stringIcSt11char_traitsIcESaIcEEEEEF11MonCapGrantvENS3_11unused_typeESN_SN_EEEENS4_8sequenceINS_6fusion4consINS4_6kleeneINS4_12literal_charINS3_13char_encoding8standardELb1ELb0EEEEENST_INS4_11alternativeINST_ISY_NST_ISY_NSS_4nil_EEEEEEENST_ISZ_S11_EEEEEEEEEEN4mpl_5bool_ILb1EEEEEE6manageERKNS1_15function_bufferERS1F_NS1_30functor_manager_operation_typeE@Base 12.0.3
 _ZN5boost6detail8function15functor_managerINS_6spirit2qi6detail13parser_binderINS4_4plusINS4_11alternativeINS_6fusion4consINS4_12literal_charINS3_13char_encoding8standardELb1ELb0EEENSA_ISE_NSA_ISE_NS9_4nil_EEEEEEEEEEEN4mpl_5bool_ILb0EEEEEE6manageERKNS1_15function_bufferERSQ_NS1_30functor_manager_operation_typeE@Base 12.0.3
 _ZN5boost6detail8function15functor_managerINS_6spirit2qi6detail13parser_binderINS4_4plusINS4_8char_setINS3_13char_encoding8standardELb0ELb0EEEEEN4mpl_5bool_ILb1EEEEEE6manageERKNS1_15function_bufferERSI_NS1_30functor_manager_operation_typeE@Base 12.0.3
 _ZN5boost6detail8function15functor_managerINS_6spirit2qi6detail13parser_binderINS4_6actionINS4_15expect_operatorINS_6fusion4consINS4_8sequenceINSA_INS4_9referenceIKNS4_4ruleINS3_17line_pos_iteratorIPKcEENS3_11unused_typeESI_SI_SI_EEEENSA_INSC_IKNSD_ISH_FNSt7__cxx1112basic_stringIcSt11char_traitsIcESaIcEEEvESJ_SI_SI_EEEENSA_ISL_NSA_INS4_12literal_charINS3_13char_encoding8standardELb1ELb0EEENS9_4nil_EEEEEEEEEEENSA_ISL_NSA_ISV_NSA_INS4_4plusISL_EES10_EEEEEEEEEENS_7phoenix5actorINS_5proto7exprns_10basic_exprINS1F_6tagns_3tag6assignENS1F_7argsns_5list2INS1E_INS3_9attributeILi0EEEEENS1E_INS1H_INS1D_3tag9constructENS1L_5list3INS1H_INS1J_8terminalENS1L_4termINS1D_6detail6targetI11conf_line_tEEEELl0EEENS1E_INS3_8argumentILi0EEEEENS1E_INS21_ILi1EEEEEEELl3EEEEEEELl2EEEEEEEN4mpl_5bool_ILb0EEEEEE6manageERKNS1_15function_bufferERS2I_NS1_30functor_manager_operation_typeE@Base 12.0.3
 _ZN5boost6detail8function15functor_managerINS_6spirit2qi6detail13parser_binderINS4_6actionINS4_8sequenceINS_6fusion4consINS4_9referenceIKNS4_4ruleINS3_17line_pos_iteratorIPKcEEFNSt7__cxx1112basic_stringIcSt11char_traitsIcESaIcEEEvENSC_ISG_NS3_11unused_typeESO_SO_SO_EESO_SO_EEEENSA_INS4_6kleeneINS4_10differenceINSB_IKNSC_ISG_F11conf_line_tvESP_SO_SO_EEEESS_EEEENSA_INST_INS4_10eol_parserEEENS9_4nil_EEEEEEEEENS_7phoenix5actorINS_5proto7exprns_10basic_exprINS1B_6tagns_3tag6assignENS1B_7argsns_5list2INS1A_INS3_9attributeILi0EEEEENS1A_INS1D_INS19_3tag9constructENS1H_5list3INS1D_INS1F_8terminalENS1H_4termINS19_6detail6targetI14conf_section_tEEEELl0EEENS1A_INS3_8argumentILi0EEEEENS1A_INS1X_ILi1EEEEEEELl3EEEEEEELl2EEEEEEEN4mpl_5bool_ILb0EEEEEE6manageERKNS1_15function_bufferERS2E_NS1_30functor_manager_operation_typeE@Base 12.0.3
 _ZN5boost6detail8function15functor_managerINS_6spirit2qi6detail13parser_binderINS4_6actionINS4_9referenceIKNS4_4ruleIN9__gnu_cxx17__normal_iteratorIPKcNSt7__cxx1112basic_stringIcSt11char_traitsIcESaIcEEEEEFSt6vectorI11MonCapGrantSaISM_EEvENS3_11unused_typeESQ_SQ_EEEENS_7phoenix5actorINS_5proto7exprns_10basic_exprINSW_6tagns_3tag6assignENSW_7argsns_5list2INSV_INS3_9attributeILi0EEEEENSV_INSY_INSU_3tag9constructENS13_INSY_INS10_8terminalENS12_4termINSU_6detail6targetI6MonCapEEEELl0EEENSV_INS3_8argumentILi0EEEEEEELl2EEEEEEELl2EEEEEEEN4mpl_5bool_ILb0EEEEEE6manageERKNS1_15function_bufferERS1W_NS1_30functor_manager_operation_typeE@Base 12.0.3
 _ZN5boost6detail8function15functor_managerINS_6spirit2qi6detail13parser_binderINS4_6kleeneINS4_10char_classINS3_3tag9char_codeINS9_5blankENS3_13char_encoding8standardEEEEEEEN4mpl_5bool_ILb0EEEEEE6manageERKNS1_15function_bufferERSM_NS1_30functor_manager_operation_typeE@Base 12.0.3
 _ZN5boost6detail8function15functor_managerINS_6spirit2qi6detail13parser_binderINS4_6kleeneINS4_9referenceIKNS4_4ruleINS3_17line_pos_iteratorIPKcEEFcvENS3_11unused_typeESF_SF_EEEEEEN4mpl_5bool_ILb1EEEEEE6manageERKNS1_15function_bufferERSP_NS1_30functor_manager_operation_typeE@Base 12.0.3
 _ZN5boost6detail8function15functor_managerINS_6spirit2qi6detail13parser_binderINS4_8sequenceINS_6fusion4consINS4_12literal_charINS3_13char_encoding8standardELb1ELb0EEENS9_INS4_10eol_parserENS8_4nil_EEEEEEEN4mpl_5bool_ILb0EEEEEE6manageERKNS1_15function_bufferERSO_NS1_30functor_manager_operation_typeE@Base 12.0.3
 _ZN5boost6detail8function15functor_managerINS_6spirit2qi6detail13parser_binderINS4_8sequenceINS_6fusion4consINS4_12literal_charINS3_13char_encoding8standardELb1ELb0EEENS9_INS4_11attr_parserIKN16StringConstraint9MatchTypeEEENS9_INS4_9referenceIKNS4_4ruleIN9__gnu_cxx17__normal_iteratorIPKcNSt7__cxx1112basic_stringIcSt11char_traitsIcESaIcEEEEEFSU_vENS3_11unused_typeESX_SX_EEEENS8_4nil_EEEEEEEEEN4mpl_5bool_ILb0EEEEEE6manageERKNS1_15function_bufferERS1B_NS1_30functor_manager_operation_typeE@Base 12.0.3
 _ZN5boost6detail8function15functor_managerINS_6spirit2qi6detail13parser_binderINS4_8sequenceINS_6fusion4consINS4_8optionalINS4_11alternativeINS9_INS4_9referenceIKNS4_4ruleINS3_17line_pos_iteratorIPKcEENS3_11unused_typeESI_SI_SI_EEEENS9_ISL_NS8_4nil_EEEEEEEEENS9_INS4_10eol_parserESM_EEEEEEN4mpl_5bool_ILb0EEEEEE6manageERKNS1_15function_bufferERS10_NS1_30functor_manager_operation_typeE@Base 12.0.3
 _ZN5boost6detail8function15functor_managerINS_6spirit2qi6detail13parser_binderINS4_8sequenceINS_6fusion4consINS4_8optionalINS4_9referenceIKNS4_4ruleIN9__gnu_cxx17__normal_iteratorIPKcNSt7__cxx1112basic_stringIcSt11char_traitsIcESaIcEEEEENS3_11unused_typeESO_SO_SO_EEEEEENS9_INS4_11alternativeINS9_INSB_IKNSC_ISN_F11MonCapGrantvESO_SO_SO_EEEENS9_ISY_NS9_ISY_NS9_ISY_NS8_4nil_EEEEEEEEEEENS9_ISS_SZ_EEEEEEEEN4mpl_5bool_ILb0EEEEEE6manageERKNS1_15function_bufferERS1E_NS1_30functor_manager_operation_typeE@Base 12.0.3
 _ZN5boost6detail8function15functor_managerINS_6spirit2qi6detail13parser_binderINS4_8sequenceINS_6fusion4consINS4_8optionalINS4_9referenceIKNS4_4ruleIN9__gnu_cxx17__normal_iteratorIPKcNSt7__cxx1112basic_stringIcSt11char_traitsIcESaIcEEEEENS3_11unused_typeESO_SO_SO_EEEEEENS9_INS4_14literal_stringIRA6_SF_Lb1EEENS9_ISR_NS9_INS4_11attr_parserIKSM_EENS9_ISZ_NS9_ISZ_NS9_INSX_IKSt3mapISM_16StringConstraintSt4lessISM_ESaISt4pairISY_S11_EEEEENS9_INSB_IKNSC_ISN_FjvESO_SO_SO_EEEENS9_INSA_INS7_INS9_ISR_NS9_INST_IRA8_SF_Lb1EEENS9_ISR_NS9_INSB_IKNSC_ISN_FSM_vESO_SO_SO_EEEENS8_4nil_EEEEEEEEEEEEES1L_EEEEEEEEEEEEEEEEEEEEN4mpl_5bool_ILb1EEEEEE6manageERKNS1_15function_bufferERS27_NS1_30functor_manager_operation_typeE@Base 12.0.3
 _ZN5boost6detail8function15functor_managerINS_6spirit2qi6detail13parser_binderINS4_8sequenceINS_6fusion4consINS4_8optionalINS4_9referenceIKNS4_4ruleIN9__gnu_cxx17__normal_iteratorIPKcNSt7__cxx1112basic_stringIcSt11char_traitsIcESaIcEEEEENS3_11unused_typeESO_SO_SO_EEEEEENS9_INS4_14literal_stringIRA6_SF_Lb1EEENS9_ISR_NS9_INST_IRA8_SF_Lb1EEENS9_INS4_11alternativeINS9_INS4_12literal_charINS3_13char_encoding8standardELb1ELb0EEENS9_ISR_NS8_4nil_EEEEEEENS9_INS4_11attr_parserIKSM_EENS9_IS1B_NS9_INSB_IKNSC_ISN_FSM_vESO_SO_SO_EEEENS9_INSA_INS7_INS9_ISR_NS9_INST_IRA5_SF_Lb1EEENS9_ISR_NS9_INSB_IKNSC_ISN_FSt3mapISM_16StringConstraintSt4lessISM_ESaISt4pairIS1A_S1K_EEEvESO_SO_SO_EEEES15_EEEEEEEEEEEENS9_INS19_IKiEENS9_INSA_INS7_INS9_ISR_NS9_ISZ_NS9_ISR_NS9_IS1F_S15_EEEEEEEEEEEES15_EEEEEEEEEEEEEEEEEEEEEEEEN4mpl_5bool_ILb0EEEEEE6manageERKNS1_15function_bufferERS2Q_NS1_30functor_manager_operation_typeE@Base 12.0.3
 _ZN5boost6detail8function15functor_managerINS_6spirit2qi6detail13parser_binderINS4_8sequenceINS_6fusion4consINS4_8optionalINS4_9referenceIKNS4_4ruleIN9__gnu_cxx17__normal_iteratorIPKcNSt7__cxx1112basic_stringIcSt11char_traitsIcESaIcEEEEENS3_11unused_typeESO_SO_SO_EEEEEENS9_INS4_14literal_stringIRA6_SF_Lb1EEENS9_ISR_NS9_INST_IRA8_SF_Lb1EEENS9_INS4_11alternativeINS9_INS4_12literal_charINS3_13char_encoding8standardELb1ELb0EEENS9_ISR_NS8_4nil_EEEEEEENS9_INSB_IKNSC_ISN_FSM_vESO_SO_SO_EEEENS9_INS4_11attr_parserIKSM_EENS9_IS1F_NS9_INS1D_IKSt3mapISM_16StringConstraintSt4lessISM_ESaISt4pairIS1E_S1H_EEEEENS9_ISR_NS9_INSB_IKNSC_ISN_FjvESO_SO_SO_EEEENS9_INSA_INS7_INS9_ISR_NS9_ISZ_NS9_ISR_NS9_IS1C_S15_EEEEEEEEEEEES15_EEEEEEEEEEEEEEEEEEEEEEEEEEN4mpl_5bool_ILb1EEEEEE6manageERKNS1_15function_bufferERS2I_NS1_30functor_manager_operation_typeE@Base 12.0.3
 _ZN5boost6detail8function15functor_managerINS_6spirit2qi6detail13parser_binderINS4_8sequenceINS_6fusion4consINS4_8optionalINS4_9referenceIKNS4_4ruleIN9__gnu_cxx17__normal_iteratorIPKcNSt7__cxx1112basic_stringIcSt11char_traitsIcESaIcEEEEENS3_11unused_typeESO_SO_SO_EEEEEENS9_INSA_INS7_INS9_INS4_14literal_stringIRA6_SF_Lb1EEENS9_ISR_NS8_4nil_EEEEEEEEENS9_INST_IRA8_SF_Lb1EEENS9_INS4_11alternativeINS9_INS4_12literal_charINS3_13char_encoding8standardELb1ELb0EEESY_EEEENS9_INS4_11attr_parserIKSM_EENS9_INSB_IKNSC_ISN_FSM_vESO_SO_SO_EEEENS9_IS1E_NS9_INS1C_IKSt3mapISM_16StringConstraintSt4lessISM_ESaISt4pairIS1D_S1K_EEEEENS9_INS1C_IKiEENS9_INSA_INS7_INS9_ISR_NS9_IS14_NS9_ISR_NS9_IS1I_SX_EEEEEEEEEEEESX_EEEEEEEEEEEEEEEEEEEEEEN4mpl_5bool_ILb1EEEEEE6manageERKNS1_15function_bufferERS2H_NS1_30functor_manager_operation_typeE@Base 12.0.3
 _ZN5boost6detail8function15functor_managerINS_6spirit2qi6detail13parser_binderINS4_8sequenceINS_6fusion4consINS4_9referenceIKNS4_4ruleIN9__gnu_cxx17__normal_iteratorIPKcNSt7__cxx1112basic_stringIcSt11char_traitsIcESaIcEEEEEFSL_vENS3_11unused_typeESO_SO_EEEENS9_INS4_11alternativeINS9_INSA_IKNSB_ISM_F16StringConstraintvESO_SO_SO_EEEENS9_ISX_NS9_ISX_NS8_4nil_EEEEEEEEESY_EEEEEEN4mpl_5bool_ILb0EEEEEE6manageERKNS1_15function_bufferERS1B_NS1_30functor_manager_operation_typeE@Base 12.0.3
 _ZN5boost6detail8function15functor_managerINS_6spirit2qi6detail13parser_binderINS4_8sequenceINS_6fusion4consINS4_9referenceIKNS4_4ruleIN9__gnu_cxx17__normal_iteratorIPKcNSt7__cxx1112basic_stringIcSt11char_traitsIcESaIcEEEEEFSt4pairISL_16StringConstraintEvENS3_11unused_typeESR_SR_EEEENS9_INS4_6kleeneINS7_INS9_INSA_IKNSB_ISM_SR_SR_SR_SR_EEEENS9_ISU_NS8_4nil_EEEEEEEEESZ_EEEEEEN4mpl_5bool_ILb1EEEEEE6manageERKNS1_15function_bufferERS1C_NS1_30functor_manager_operation_typeE@Base 12.0.3
 _ZN5boost6detail8function15functor_managerINS_6spirit2qi6detail13parser_binderINS4_8sequenceINS_6fusion4consINS4_9referenceIKNS4_4ruleIN9__gnu_cxx17__normal_iteratorIPKcNSt7__cxx1112basic_stringIcSt11char_traitsIcESaIcEEEEENS3_11unused_typeESN_SN_SN_EEEENS9_INS4_14literal_stringIRA6_SE_Lb1EEENS9_ISQ_NS9_INS4_11attr_parserIKN16StringConstraint9MatchTypeEEENS9_INSA_IKNSB_ISM_FSL_vESN_SN_SN_EEEENS8_4nil_EEEEEEEEEEEEEN4mpl_5bool_ILb0EEEEEE6manageERKNS1_15function_bufferERS1G_NS1_30functor_manager_operation_typeE@Base 12.0.3
 _ZN5boost6detail8function15functor_managerINS_6spirit2qi6detail13parser_binderINS4_8sequenceINS_6fusion4consINS4_9referenceIKNS4_4ruleIN9__gnu_cxx17__normal_iteratorIPKcNSt7__cxx1112basic_stringIcSt11char_traitsIcESaIcEEEEENS3_11unused_typeESN_SN_SN_EEEENS9_INS4_14literal_stringIRA7_SE_Lb1EEENS9_ISQ_NS9_INS4_11attr_parserIKN16StringConstraint9MatchTypeEEENS9_INSA_IKNSB_ISM_FSL_vESN_SN_SN_EEEENS8_4nil_EEEEEEEEEEEEEN4mpl_5bool_ILb0EEEEEE6manageERKNS1_15function_bufferERS1G_NS1_30functor_manager_operation_typeE@Base 12.0.3
 _ZN5boost6detail8function15functor_managerINS_9algorithm6detail13token_finderFINS4_10is_any_ofFIcEEEEE6manageERKNS1_15function_bufferERSA_NS1_30functor_manager_operation_typeE@Base 12.0.3
 _ZN5boost6detail8function16has_empty_targetEz@Base 12.0.3
 _ZN5boost6detail8function21function_obj_invoker2INS_9algorithm6detail13token_finderFINS4_10is_any_ofFIcEEEENS_14iterator_rangeIN9__gnu_cxx17__normal_iteratorIPcNSt7__cxx1112basic_stringIcSt11char_traitsIcESaIcEEEEEEESJ_SJ_E6invokeERNS1_15function_bufferESJ_SJ_@Base 12.0.3
 _ZN5boost6detail8function21function_obj_invoker4INS_6spirit2qi6detail13parser_binderINS4_11alternativeINS_6fusion4consINS4_12literal_charINS3_13char_encoding8standardELb1ELb0EEENS9_ISD_NS8_4nil_EEEEEEEN4mpl_5bool_ILb0EEEEEbRNS3_17line_pos_iteratorIPKcEERKSP_RNS3_7contextINS9_IRNS3_11unused_typeESE_EENS8_6vectorIJEEEEERKSU_E6invokeERNS1_15function_bufferESQ_SS_S10_S12_@Base 12.0.3
 _ZN5boost6detail8function21function_obj_invoker4INS_6spirit2qi6detail13parser_binderINS4_11alternativeINS_6fusion4consINS4_16lexeme_directiveINS4_15expect_operatorINS9_INS4_8sequenceINS9_INS4_12literal_charINS3_13char_encoding8standardELb1ELb0EEENS9_INS4_6kleeneINS4_10differenceINS4_9referenceIKNS4_4ruleINS3_17line_pos_iteratorIPKcEEFcvENS3_11unused_typeESQ_SQ_EEEESG_EEEENS8_4nil_EEEEEEENS9_ISG_SW_EEEEEEEENS9_IS13_SW_EEEEEEN4mpl_5bool_ILb1EEEEEbRSO_RKSO_RNS3_7contextINS9_IRNSt7__cxx1112basic_stringIcSt11char_traitsIcESaIcEEESW_EENS8_6vectorIJEEEEERKNSJ_IKNSK_ISO_SQ_SQ_SQ_SQ_EEEEE6invokeERNS1_15function_bufferES1B_S1D_S1Q_S1V_@Base 12.0.3
 _ZN5boost6detail8function21function_obj_invoker4INS_6spirit2qi6detail13parser_binderINS4_11alternativeINS_6fusion4consINS4_16lexeme_directiveINS4_8sequenceINS9_INS4_12literal_charINS3_13char_encoding8standardELb1ELb0EEENS9_INS4_4plusINS4_10differenceINS4_10char_classINS3_3tag9char_codeINSJ_5char_ESE_EEEESF_EEEENS9_ISF_NS8_4nil_EEEEEEEEEEENS9_ISV_SQ_EEEEEEN4mpl_5bool_ILb1EEEEEbRN9__gnu_cxx17__normal_iteratorIPKcNSt7__cxx1112basic_stringIcSt11char_traitsIcESaIcEEEEERKS1D_RNS3_7contextINS9_IRS1C_SQ_EENS8_6vectorIJEEEEERKNS3_11unused_typeEE6invokeERNS1_15function_bufferES1E_S1G_S1N_S1Q_@Base 12.0.3
 _ZN5boost6detail8function21function_obj_invoker4INS_6spirit2qi6detail13parser_binderINS4_11alternativeINS_6fusion4consINS4_6actionINS4_14literal_stringIRA2_KcLb1EEENS_7phoenix5actorINS_5proto7exprns_10basic_exprINSI_6tagns_3tag6assignENSI_7argsns_5list2INSH_INS3_9attributeILi0EEEEENSH_INSK_INSM_8terminalENSO_4termIhEELl0EEEEEEELl2EEEEEEENS9_INSA_INSB_IRA4_SC_Lb1EEES10_EENS9_INS4_8sequenceINS9_INSA_INS4_10eps_parserENSH_INSK_ISN_NSP_ISS_NSH_INSK_IST_NSU_IiEELl0EEEEEEELl2EEEEEEENS9_INS4_13sequential_orINS9_INSA_INS4_12literal_charINS3_13char_encoding8standardELb1ELb0EEENSH_INSK_INSM_17bitwise_or_assignESY_Ll2EEEEEEENS9_IS1N_NS9_IS1N_NS8_4nil_EEEEEEEEES1O_EEEEEES1O_EEEEEEEEN4mpl_5bool_ILb0EEEEEbRN9__gnu_cxx17__normal_iteratorIPSC_NSt7__cxx1112basic_stringIcSt11char_traitsIcESaIcEEEEERKS2D_RNS3_7contextINS9_IRjS1O_EENS8_6vectorIJEEEEERKNS3_11unused_typeEE6invokeERNS1_15function_bufferES2E_S2G_S2N_S2Q_@Base 12.0.3
 _ZN5boost6detail8function21function_obj_invoker4INS_6spirit2qi6detail13parser_binderINS4_11alternativeINS_6fusion4consINS4_8sequenceINS9_INS4_12literal_charINS3_13char_encoding8standardELb1ELb0EEENS9_INS4_10differenceINS4_10char_classINS3_3tag9char_codeINSH_5char_ESD_EEEENS4_10eol_parserEEENS8_4nil_EEEEEEENS9_INSF_ISL_NS7_INS9_INS4_9referenceIKNS4_4ruleINS3_17line_pos_iteratorIPKcEENS3_11unused_typeESY_SY_SY_EEEENS9_ISM_SO_EEEEEEEESO_EEEEEEN4mpl_5bool_ILb1EEEEEbRSX_RKSX_RNS3_7contextINS9_IRcSO_EENS8_6vectorIJEEEEERKSY_E6invokeERNS1_15function_bufferES1D_S1F_S1M_S1O_@Base 12.0.3
 _ZN5boost6detail8function21function_obj_invoker4INS_6spirit2qi6detail13parser_binderINS4_11alternativeINS_6fusion4consINS4_9referenceIKNS4_4ruleIN9__gnu_cxx17__normal_iteratorIPKcNSt7__cxx1112basic_stringIcSt11char_traitsIcESaIcEEEEEFSL_vENS3_11unused_typeESO_SO_EEEENS9_ISR_NS8_4nil_EEEEEEEN4mpl_5bool_ILb1EEEEEbRSM_RKSM_RNS3_7contextINS9_IRSL_SS_EENS8_6vectorIJEEEEERKSO_E6invokeERNS1_15function_bufferES10_S12_S19_S1B_@Base 12.0.3
 _ZN5boost6detail8function21function_obj_invoker4INS_6spirit2qi6detail13parser_binderINS4_11alternativeINS_6fusion4consINS4_9referenceIKNS4_4ruleINS3_17line_pos_iteratorIPKcEEFNSt7__cxx1112basic_stringIcSt11char_traitsIcESaIcEEEvENSB_ISF_NS3_11unused_typeESN_SN_SN_EESN_SN_EEEENS9_ISR_NS8_4nil_EEEEEEEN4mpl_5bool_ILb1EEEEEbRSF_RKSF_RNS3_7contextINS9_IRSL_SS_EENS8_6vectorIJEEEEERKNSA_IKSO_EEE6invokeERNS1_15function_bufferES10_S12_S19_S1D_@Base 12.0.3
 _ZN5boost6detail8function21function_obj_invoker4INS_6spirit2qi6detail13parser_binderINS4_11alternativeINS_6fusion4consINS4_9referenceIKNS4_4ruleINS3_17line_pos_iteratorIPKcEENS3_11unused_typeESG_SG_SG_EEEENS9_ISJ_NS8_4nil_EEEEEEEN4mpl_5bool_ILb0EEEEEbRSF_RKSF_RNS3_7contextINS9_IRSG_SK_EENS8_6vectorIJEEEEERKSG_E6invokeERNS1_15function_bufferESS_SU_S11_S13_@Base 12.0.3
 _ZN5boost6detail8function21function_obj_invoker4INS_6spirit2qi6detail13parser_binderINS4_13raw_directiveINS4_4listINS4_4plusINS4_10differenceINS4_9referenceIKNS4_4ruleINS3_17line_pos_iteratorIPKcEEFcvENS3_11unused_typeESI_SI_EEEENS4_8char_setINS3_13char_encoding8standardELb0ELb0EEEEEEENS9_INS4_10char_classINS3_3tag9char_codeINST_5blankESO_EEEEEEEEEEN4mpl_5bool_ILb1EEEEEbRSG_RKSG_RNS3_7contextINS_6fusion4consIRNSt7__cxx1112basic_stringIcSt11char_traitsIcESaIcEEENS19_4nil_EEENS19_6vectorIJEEEEERKNSB_IKNSC_ISG_SI_SI_SI_SI_EEEEE6invokeERNS1_15function_bufferES15_S17_S1N_S1S_@Base 12.0.3
 _ZN5boost6detail8function21function_obj_invoker4INS_6spirit2qi6detail13parser_binderINS4_15expect_operatorINS_6fusion4consINS4_11alternativeINS9_INS4_6actionINS4_9referenceIKNS4_4ruleINS3_17line_pos_iteratorIPKcEEF11conf_line_tvENSD_ISH_NS3_11unused_typeESK_SK_SK_EESK_SK_EEEENS_7phoenix5actorINS_5proto7exprns_10basic_exprINSR_6tagns_3tag6assignENSR_7argsns_5list2INSQ_INS3_9attributeILi0EEEEENSQ_INST_INSP_3tag9constructENSY_INST_INSV_8terminalENSX_4termINSP_6detail6targetI8ConfFileEEEELl0EEENSQ_INS3_8argumentILi0EEEEEEELl2EEEEEEELl2EEEEEEENS9_INS4_8sequenceINS9_INS4_6kleeneINS4_10eol_parserEEENS9_INSB_INS1N_INSC_IKNSD_ISH_F14conf_section_tvESL_SK_SK_EEEEEES1K_EENS8_4nil_EEEEEEES1X_EEEEEENS9_INS4_10eoi_parserES1X_EEEEEEN4mpl_5bool_ILb0EEEEEbRSH_RKSH_RNS3_7contextINS9_IRS18_S1X_EENS8_6vectorIJEEEEERKNSC_IKSL_EEE6invokeERNS1_15function_bufferES2C_S2E_S2L_S2P_@Base 12.0.3
 _ZN5boost6detail8function21function_obj_invoker4INS_6spirit2qi6detail13parser_binderINS4_15expect_operatorINS_6fusion4consINS4_12literal_charINS3_13char_encoding8standardELb1ELb0EEENS9_INS4_4plusINS4_10differenceINS4_9referenceIKNS4_4ruleINS3_17line_pos_iteratorIPKcEEFcvENS3_11unused_typeESN_SN_EEEESD_EEEENS9_ISD_NS9_INSE_INSG_IKNSH_ISL_SN_SN_SN_SN_EEEEEENS8_4nil_EEEEEEEEEEEN4mpl_5bool_ILb1EEEEEbRSL_RKSL_RNS3_7contextINS9_IRNSt7__cxx1112basic_stringIcSt11char_traitsIcESaIcEEESX_EENS8_6vectorIJEEEEERKSV_E6invokeERNS1_15function_bufferES17_S19_S1M_S1O_@Base 12.0.3
 _ZN5boost6detail8function21function_obj_invoker4INS_6spirit2qi6detail13parser_binderINS4_15expect_operatorINS_6fusion4consINS4_8sequenceINS9_INS4_6kleeneINS4_10char_classINS3_3tag9char_codeINSD_5blankENS3_13char_encoding8standardEEEEEEENS9_INS4_9referenceIKNS4_4ruleINS3_17line_pos_iteratorIPKcEENS3_11unused_typeESR_SR_SR_EEEENS8_4nil_EEEEEEENS9_INSB_INS4_10differenceINSC_INSE_INSD_5char_ESH_EEEENS4_10eol_parserEEEEESV_EEEEEEN4mpl_5bool_ILb0EEEEEbRSQ_RKSQ_RNS3_7contextINS9_IRSR_SV_EENS8_6vectorIJEEEEERKSR_E6invokeERNS1_15function_bufferES1D_S1F_S1M_S1O_@Base 12.0.3
 _ZN5boost6detail8function21function_obj_invoker4INS_6spirit2qi6detail13parser_binderINS4_4listINS4_9referenceIKNS4_4ruleIN9__gnu_cxx17__normal_iteratorIPKcNSt7__cxx1112basic_stringIcSt11char_traitsIcESaIcEEEEEF11MonCapGrantvENS3_11unused_typeESN_SN_EEEENS4_8sequenceINS_6fusion4consINS4_6kleeneINS4_12literal_charINS3_13char_encoding8standardELb1ELb0EEEEENST_INS4_11alternativeINST_ISY_NST_ISY_NSS_4nil_EEEEEEENST_ISZ_S11_EEEEEEEEEEN4mpl_5bool_ILb1EEEEEbRSK_RKSK_RNS3_7contextINST_IRSt6vectorISL_SaISL_EES11_EENSS_6vectorIJEEEEERKSN_E6invokeERNS1_15function_bufferES1E_S1G_S1Q_S1S_@Base 12.0.3
 _ZN5boost6detail8function21function_obj_invoker4INS_6spirit2qi6detail13parser_binderINS4_4plusINS4_11alternativeINS_6fusion4consINS4_12literal_charINS3_13char_encoding8standardELb1ELb0EEENSA_ISE_NSA_ISE_NS9_4nil_EEEEEEEEEEEN4mpl_5bool_ILb0EEEEEbRN9__gnu_cxx17__normal_iteratorIPKcNSt7__cxx1112basic_stringIcSt11char_traitsIcESaIcEEEEERKSZ_RNS3_7contextINSA_IRNS3_11unused_typeESF_EENS9_6vectorIJEEEEERKS14_E6invokeERNS1_15function_bufferES10_S12_S1A_S1C_@Base 12.0.3
 _ZN5boost6detail8function21function_obj_invoker4INS_6spirit2qi6detail13parser_binderINS4_4plusINS4_8char_setINS3_13char_encoding8standardELb0ELb0EEEEEN4mpl_5bool_ILb1EEEEEbRN9__gnu_cxx17__normal_iteratorIPKcNSt7__cxx1112basic_stringIcSt11char_traitsIcESaIcEEEEERKSR_RNS3_7contextINS_6fusion4consIRSQ_NSW_4nil_EEENSW_6vectorIJEEEEERKNS3_11unused_typeEE6invokeERNS1_15function_bufferESS_SU_S14_S17_@Base 12.0.3
 _ZN5boost6detail8function21function_obj_invoker4INS_6spirit2qi6detail13parser_binderINS4_6actionINS4_15expect_operatorINS_6fusion4consINS4_8sequenceINSA_INS4_9referenceIKNS4_4ruleINS3_17line_pos_iteratorIPKcEENS3_11unused_typeESI_SI_SI_EEEENSA_INSC_IKNSD_ISH_FNSt7__cxx1112basic_stringIcSt11char_traitsIcESaIcEEEvESJ_SI_SI_EEEENSA_ISL_NSA_INS4_12literal_charINS3_13char_encoding8standardELb1ELb0EEENS9_4nil_EEEEEEEEEEENSA_ISL_NSA_ISV_NSA_INS4_4plusISL_EES10_EEEEEEEEEENS_7phoenix5actorINS_5proto7exprns_10basic_exprINS1F_6tagns_3tag6assignENS1F_7argsns_5list2INS1E_INS3_9attributeILi0EEEEENS1E_INS1H_INS1D_3tag9constructENS1L_5list3INS1H_INS1J_8terminalENS1L_4termINS1D_6detail6targetI11conf_line_tEEEELl0EEENS1E_INS3_8argumentILi0EEEEENS1E_INS21_ILi1EEEEEEELl3EEEEEEELl2EEEEEEEN4mpl_5bool_ILb0EEEEEbRSH_RKSH_RNS3_7contextINSA_IRS1X_S10_EENS9_6vectorIJEEEEERKSL_E6invokeERNS1_15function_bufferES2H_S2J_S2Q_S2S_@Base 12.0.3
 _ZN5boost6detail8function21function_obj_invoker4INS_6spirit2qi6detail13parser_binderINS4_6actionINS4_8sequenceINS_6fusion4consINS4_9referenceIKNS4_4ruleINS3_17line_pos_iteratorIPKcEEFNSt7__cxx1112basic_stringIcSt11char_traitsIcESaIcEEEvENSC_ISG_NS3_11unused_typeESO_SO_SO_EESO_SO_EEEENSA_INS4_6kleeneINS4_10differenceINSB_IKNSC_ISG_F11conf_line_tvESP_SO_SO_EEEESS_EEEENSA_INST_INS4_10eol_parserEEENS9_4nil_EEEEEEEEENS_7phoenix5actorINS_5proto7exprns_10basic_exprINS1B_6tagns_3tag6assignENS1B_7argsns_5list2INS1A_INS3_9attributeILi0EEEEENS1A_INS1D_INS19_3tag9constructENS1H_5list3INS1D_INS1F_8terminalENS1H_4termINS19_6detail6targetI14conf_section_tEEEELl0EEENS1A_INS3_8argumentILi0EEEEENS1A_INS1X_ILi1EEEEEEELl3EEEEEEELl2EEEEEEEN4mpl_5bool_ILb0EEEEEbRSG_RKSG_RNS3_7contextINSA_IRS1T_S14_EENS9_6vectorIJEEEEERKNSB_IKSP_EEE6invokeERNS1_15function_bufferES2D_S2F_S2M_S2Q_@Base 12.0.3
 _ZN5boost6detail8function21function_obj_invoker4INS_6spirit2qi6detail13parser_binderINS4_6actionINS4_9referenceIKNS4_4ruleIN9__gnu_cxx17__normal_iteratorIPKcNSt7__cxx1112basic_stringIcSt11char_traitsIcESaIcEEEEEFSt6vectorI11MonCapGrantSaISM_EEvENS3_11unused_typeESQ_SQ_EEEENS_7phoenix5actorINS_5proto7exprns_10basic_exprINSW_6tagns_3tag6assignENSW_7argsns_5list2INSV_INS3_9attributeILi0EEEEENSV_INSY_INSU_3tag9constructENS13_INSY_INS10_8terminalENS12_4termINSU_6detail6targetI6MonCapEEEELl0EEENSV_INS3_8argumentILi0EEEEEEELl2EEEEEEELl2EEEEEEEN4mpl_5bool_ILb0EEEEEbRSK_RKSK_RNS3_7contextINS_6fusion4consIRS1D_NS1Z_4nil_EEENS1Z_6vectorIJEEEEERKSQ_E6invokeERNS1_15function_bufferES1V_S1X_S27_S29_@Base 12.0.3
 _ZN5boost6detail8function21function_obj_invoker4INS_6spirit2qi6detail13parser_binderINS4_6kleeneINS4_10char_classINS3_3tag9char_codeINS9_5blankENS3_13char_encoding8standardEEEEEEEN4mpl_5bool_ILb0EEEEEbRNS3_17line_pos_iteratorIPKcEERKSO_RNS3_7contextINS_6fusion4consIRNS3_11unused_typeENST_4nil_EEENST_6vectorIJEEEEERKSV_E6invokeERNS1_15function_bufferESP_SR_S12_S14_@Base 12.0.3
 _ZN5boost6detail8function21function_obj_invoker4INS_6spirit2qi6detail13parser_binderINS4_6kleeneINS4_9referenceIKNS4_4ruleINS3_17line_pos_iteratorIPKcEEFcvENS3_11unused_typeESF_SF_EEEEEEN4mpl_5bool_ILb1EEEEEbRSD_RKSD_RNS3_7contextINS_6fusion4consIRNSt7__cxx1112basic_stringIcSt11char_traitsIcESaIcEEENSS_4nil_EEENSS_6vectorIJEEEEERKNS8_IKNS9_ISD_SF_SF_SF_SF_EEEEE6invokeERNS1_15function_bufferESO_SQ_S16_S1B_@Base 12.0.3
 _ZN5boost6detail8function21function_obj_invoker4INS_6spirit2qi6detail13parser_binderINS4_8sequenceINS_6fusion4consINS4_12literal_charINS3_13char_encoding8standardELb1ELb0EEENS9_INS4_10eol_parserENS8_4nil_EEEEEEEN4mpl_5bool_ILb0EEEEEbRNS3_17line_pos_iteratorIPKcEERKSQ_RNS3_7contextINS9_IRNS3_11unused_typeESF_EENS8_6vectorIJEEEEERKSV_E6invokeERNS1_15function_bufferESR_ST_S11_S13_@Base 12.0.3
 _ZN5boost6detail8function21function_obj_invoker4INS_6spirit2qi6detail13parser_binderINS4_8sequenceINS_6fusion4consINS4_12literal_charINS3_13char_encoding8standardELb1ELb0EEENS9_INS4_11attr_parserIKN16StringConstraint9MatchTypeEEENS9_INS4_9referenceIKNS4_4ruleIN9__gnu_cxx17__normal_iteratorIPKcNSt7__cxx1112basic_stringIcSt11char_traitsIcESaIcEEEEEFSU_vENS3_11unused_typeESX_SX_EEEENS8_4nil_EEEEEEEEEN4mpl_5bool_ILb0EEEEEbRSV_RKSV_RNS3_7contextINS9_IRSF_S11_EENS8_6vectorIJEEEEERKSX_E6invokeERNS1_15function_bufferES1A_S1C_S1J_S1L_@Base 12.0.3
 _ZN5boost6detail8function21function_obj_invoker4INS_6spirit2qi6detail13parser_binderINS4_8sequenceINS_6fusion4consINS4_8optionalINS4_11alternativeINS9_INS4_9referenceIKNS4_4ruleINS3_17line_pos_iteratorIPKcEENS3_11unused_typeESI_SI_SI_EEEENS9_ISL_NS8_4nil_EEEEEEEEENS9_INS4_10eol_parserESM_EEEEEEN4mpl_5bool_ILb0EEEEEbRSH_RKSH_RNS3_7contextINS9_IRSI_SM_EENS8_6vectorIJEEEEERKSI_E6invokeERNS1_15function_bufferESZ_S11_S18_S1A_@Base 12.0.3
 _ZN5boost6detail8function21function_obj_invoker4INS_6spirit2qi6detail13parser_binderINS4_8sequenceINS_6fusion4consINS4_8optionalINS4_9referenceIKNS4_4ruleIN9__gnu_cxx17__normal_iteratorIPKcNSt7__cxx1112basic_stringIcSt11char_traitsIcESaIcEEEEENS3_11unused_typeESO_SO_SO_EEEEEENS9_INS4_11alternativeINS9_INSB_IKNSC_ISN_F11MonCapGrantvESO_SO_SO_EEEENS9_ISY_NS9_ISY_NS9_ISY_NS8_4nil_EEEEEEEEEEENS9_ISS_SZ_EEEEEEEEN4mpl_5bool_ILb0EEEEEbRSN_RKSN_RNS3_7contextINS9_IRSU_SZ_EENS8_6vectorIJEEEEERKSO_E6invokeERNS1_15function_bufferES1D_S1F_S1M_S1O_@Base 12.0.3
 _ZN5boost6detail8function21function_obj_invoker4INS_6spirit2qi6detail13parser_binderINS4_8sequenceINS_6fusion4consINS4_8optionalINS4_9referenceIKNS4_4ruleIN9__gnu_cxx17__normal_iteratorIPKcNSt7__cxx1112basic_stringIcSt11char_traitsIcESaIcEEEEENS3_11unused_typeESO_SO_SO_EEEEEENS9_INS4_14literal_stringIRA6_SF_Lb1EEENS9_ISR_NS9_INS4_11attr_parserIKSM_EENS9_ISZ_NS9_ISZ_NS9_INSX_IKSt3mapISM_16StringConstraintSt4lessISM_ESaISt4pairISY_S11_EEEEENS9_INSB_IKNSC_ISN_FjvESO_SO_SO_EEEENS9_INSA_INS7_INS9_ISR_NS9_INST_IRA8_SF_Lb1EEENS9_ISR_NS9_INSB_IKNSC_ISN_FSM_vESO_SO_SO_EEEENS8_4nil_EEEEEEEEEEEEES1L_EEEEEEEEEEEEEEEEEEEEN4mpl_5bool_ILb1EEEEEbRSN_RKSN_RNS3_7contextINS9_IR11MonCapGrantS1L_EENS8_6vectorIJEEEEERKSO_E6invokeERNS1_15function_bufferES26_S28_S2G_S2I_@Base 12.0.3
 _ZN5boost6detail8function21function_obj_invoker4INS_6spirit2qi6detail13parser_binderINS4_8sequenceINS_6fusion4consINS4_8optionalINS4_9referenceIKNS4_4ruleIN9__gnu_cxx17__normal_iteratorIPKcNSt7__cxx1112basic_stringIcSt11char_traitsIcESaIcEEEEENS3_11unused_typeESO_SO_SO_EEEEEENS9_INS4_14literal_stringIRA6_SF_Lb1EEENS9_ISR_NS9_INST_IRA8_SF_Lb1EEENS9_INS4_11alternativeINS9_INS4_12literal_charINS3_13char_encoding8standardELb1ELb0EEENS9_ISR_NS8_4nil_EEEEEEENS9_INS4_11attr_parserIKSM_EENS9_IS1B_NS9_INSB_IKNSC_ISN_FSM_vESO_SO_SO_EEEENS9_INSA_INS7_INS9_ISR_NS9_INST_IRA5_SF_Lb1EEENS9_ISR_NS9_INSB_IKNSC_ISN_FSt3mapISM_16StringConstraintSt4lessISM_ESaISt4pairIS1A_S1K_EEEvESO_SO_SO_EEEES15_EEEEEEEEEEEENS9_INS19_IKiEENS9_INSA_INS7_INS9_ISR_NS9_ISZ_NS9_ISR_NS9_IS1F_S15_EEEEEEEEEEEES15_EEEEEEEEEEEEEEEEEEEEEEEEN4mpl_5bool_ILb0EEEEEbRSN_RKSN_RNS3_7contextINS9_IR11MonCapGrantS15_EENS8_6vectorIJEEEEERKSO_E6invokeERNS1_15function_bufferES2P_S2R_S2Z_S31_@Base 12.0.3
