librbd.so.1 librbd1 #MINVER#
 _ZN5boost16exception_detail10clone_implINS0_19error_info_injectorINS_7bad_getEEEED0Ev@Base 0.87
 _ZN5boost16exception_detail10clone_implINS0_19error_info_injectorINS_7bad_getEEEED1Ev@Base 0.87
 _ZN5boost16exception_detail19error_info_injectorINS_7bad_getEED0Ev@Base 0.87
 _ZN5boost16exception_detail19error_info_injectorINS_7bad_getEED1Ev@Base 0.87
 _ZN5boost16exception_detail19error_info_injectorINS_7bad_getEED2Ev@Base 0.87
 _ZN6librbd12ImageOptions3setEiRKNSt7__cxx1112basic_stringIcSt11char_traitsIcESaIcEEE@Base 0.87
 _ZN6librbd12ImageOptions3setEim@Base 0.87
 _ZN6librbd12ImageOptions5clearEv@Base 0.87
 _ZN6librbd12ImageOptions5unsetEi@Base 0.87
 _ZN6librbd12ImageOptions6is_setEiPb@Base 0.87
 _ZN6librbd12ImageOptionsC1EPv@Base 0.87
 _ZN6librbd12ImageOptionsC1ERKS0_@Base 0.87
 _ZN6librbd12ImageOptionsC1Ev@Base 0.87
 _ZN6librbd12ImageOptionsC2EPv@Base 0.87
 _ZN6librbd12ImageOptionsC2ERKS0_@Base 0.87
 _ZN6librbd12ImageOptionsC2Ev@Base 0.87
 _ZN6librbd12ImageOptionsD1Ev@Base 0.87
 _ZN6librbd12ImageOptionsD2Ev@Base 0.87
 _ZN6librbd15ProgressContextD0Ev@Base 0.87
 _ZN6librbd15ProgressContextD1Ev@Base 0.87
 _ZN6librbd15ProgressContextD2Ev@Base 0.87
 _ZN6librbd3RBD10group_listERN8librados7v14_2_05IoCtxEPSt6vectorINSt7__cxx1112basic_stringIcSt11char_traitsIcESaIcEEESaISB_EE@Base 0.87
 _ZN6librbd3RBD10open_by_idERN8librados7v14_2_05IoCtxERNS_5ImageEPKc@Base 0.87
 _ZN6librbd3RBD10open_by_idERN8librados7v14_2_05IoCtxERNS_5ImageEPKcS8_@Base 0.87
 _ZN6librbd3RBD10trash_listERN8librados7v14_2_05IoCtxERSt6vectorINS_18trash_image_info_tESaIS6_EE@Base 0.87
 _ZN6librbd3RBD10trash_moveERN8librados7v14_2_05IoCtxEPKcm@Base 0.87
 _ZN6librbd3RBD11config_listERN8librados7v14_2_05IoCtxEPSt6vectorINS_15config_option_tESaIS6_EE@Base 0.87
 _ZN6librbd3RBD11trash_purgeERN8librados7v14_2_05IoCtxElf@Base 0.87
 _ZN6librbd3RBD12group_createERN8librados7v14_2_05IoCtxEPKc@Base 0.87
 _ZN6librbd3RBD12group_removeERN8librados7v14_2_05IoCtxEPKc@Base 0.87
 _ZN6librbd3RBD12group_renameERN8librados7v14_2_05IoCtxEPKcS6_@Base 0.87
 _ZN6librbd3RBD12trash_removeERN8librados7v14_2_05IoCtxEPKcb@Base 0.87
 _ZN6librbd3RBD13AioCompletion11is_completeEv@Base 0.87
 _ZN6librbd3RBD13AioCompletion16get_return_valueEv@Base 0.87
 _ZN6librbd3RBD13AioCompletion17wait_for_completeEv@Base 0.87
 _ZN6librbd3RBD13AioCompletion7get_argEv@Base 0.87
 _ZN6librbd3RBD13AioCompletion7releaseEv@Base 0.87
 _ZN6librbd3RBD13AioCompletionC1EPvPFvS2_S2_E@Base 0.87
 _ZN6librbd3RBD13AioCompletionC2EPvPFvS2_S2_E@Base 0.87
 _ZN6librbd3RBD13trash_restoreERN8librados7v14_2_05IoCtxEPKcS6_@Base 0.87
 _ZN6librbd3RBD14aio_open_by_idERN8librados7v14_2_05IoCtxERNS_5ImageEPKcS8_PNS0_13AioCompletionE@Base 0.87
 _ZN6librbd3RBD14namespace_listERN8librados7v14_2_05IoCtxEPSt6vectorINSt7__cxx1112basic_stringIcSt11char_traitsIcESaIcEEESaISB_EE@Base 0.87
 _ZN6librbd3RBD14open_read_onlyERN8librados7v14_2_05IoCtxERNS_5ImageEPKcS8_@Base 0.87
 _ZN6librbd3RBD14pool_stats_getERN8librados7v14_2_05IoCtxEPNS_9PoolStatsE@Base 0.87
 _ZN6librbd3RBD15group_image_addERN8librados7v14_2_05IoCtxEPKcS4_S6_@Base 0.87
 _ZN6librbd3RBD15group_snap_listERN8librados7v14_2_05IoCtxEPKcPSt6vectorINS_17group_snap_info_tESaIS8_EEm@Base 0.87
 _ZN6librbd3RBD15migration_abortERN8librados7v14_2_05IoCtxEPKc@Base 0.87
 _ZN6librbd3RBD15mirror_mode_getERN8librados7v14_2_05IoCtxEP17rbd_mirror_mode_t@Base 0.87
 _ZN6librbd3RBD15mirror_mode_setERN8librados7v14_2_05IoCtxE17rbd_mirror_mode_t@Base 0.87
 _ZN6librbd3RBD15mirror_peer_addERN8librados7v14_2_05IoCtxEPNSt7__cxx1112basic_stringIcSt11char_traitsIcESaIcEEERKSA_SD_@Base 0.87
 _ZN6librbd3RBD16group_image_listERN8librados7v14_2_05IoCtxEPKcPSt6vectorINS_18group_image_info_tESaIS8_EEm@Base 0.87
 _ZN6librbd3RBD16migration_commitERN8librados7v14_2_05IoCtxEPKc@Base 0.87
 _ZN6librbd3RBD16migration_statusERN8librados7v14_2_05IoCtxEPKcPNS_24image_migration_status_tEm@Base 0.87
 _ZN6librbd3RBD16mirror_peer_listERN8librados7v14_2_05IoCtxEPSt6vectorINS_13mirror_peer_tESaIS6_EE@Base 0.87
 _ZN6librbd3RBD16namespace_createERN8librados7v14_2_05IoCtxEPKc@Base 0.87
 _ZN6librbd3RBD16namespace_existsERN8librados7v14_2_05IoCtxEPKcPb@Base 0.87
 _ZN6librbd3RBD16namespace_removeERN8librados7v14_2_05IoCtxEPKc@Base 0.87
 _ZN6librbd3RBD17group_snap_createERN8librados7v14_2_05IoCtxEPKcS6_@Base 0.87
 _ZN6librbd3RBD17group_snap_removeERN8librados7v14_2_05IoCtxEPKcS6_@Base 0.87
 _ZN6librbd3RBD17group_snap_renameERN8librados7v14_2_05IoCtxEPKcS6_S6_@Base 0.87
 _ZN6librbd3RBD17migration_executeERN8librados7v14_2_05IoCtxEPKc@Base 0.87
 _ZN6librbd3RBD17migration_prepareERN8librados7v14_2_05IoCtxEPKcS4_S6_RNS_12ImageOptionsE@Base 0.87
 _ZN6librbd3RBD17pool_metadata_getERN8librados7v14_2_05IoCtxERKNSt7__cxx1112basic_stringIcSt11char_traitsIcESaIcEEEPSA_@Base 0.87
 _ZN6librbd3RBD17pool_metadata_setERN8librados7v14_2_05IoCtxERKNSt7__cxx1112basic_stringIcSt11char_traitsIcESaIcEEESC_@Base 0.87
 _ZN6librbd3RBD18aio_open_read_onlyERN8librados7v14_2_05IoCtxERNS_5ImageEPKcS8_PNS0_13AioCompletionE@Base 0.87
 _ZN6librbd3RBD18group_image_removeERN8librados7v14_2_05IoCtxEPKcS4_S6_@Base 0.87
 _ZN6librbd3RBD18mirror_peer_removeERN8librados7v14_2_05IoCtxERKNSt7__cxx1112basic_stringIcSt11char_traitsIcESaIcEEE@Base 0.87
 _ZN6librbd3RBD18pool_metadata_listERN8librados7v14_2_05IoCtxERKNSt7__cxx1112basic_stringIcSt11char_traitsIcESaIcEEEmPSt3mapISA_N4ceph6buffer7v14_2_04listESt4lessISA_ESaISt4pairISB_SH_EEE@Base 0.87
 _ZN6librbd3RBD19group_snap_rollbackERN8librados7v14_2_05IoCtxEPKcS6_@Base 0.87
 _ZN6librbd3RBD20open_by_id_read_onlyERN8librados7v14_2_05IoCtxERNS_5ImageEPKcS8_@Base 0.87
 _ZN6librbd3RBD20pool_metadata_removeERN8librados7v14_2_05IoCtxERKNSt7__cxx1112basic_stringIcSt11char_traitsIcESaIcEEE@Base 0.87
 _ZN6librbd3RBD20remove_with_progressERN8librados7v14_2_05IoCtxEPKcRNS_15ProgressContextE@Base 0.87
 _ZN6librbd3RBD22mirror_peer_set_clientERN8librados7v14_2_05IoCtxERKNSt7__cxx1112basic_stringIcSt11char_traitsIcESaIcEEESC_@Base 0.87
 _ZN6librbd3RBD23mirror_peer_set_clusterERN8librados7v14_2_05IoCtxERKNSt7__cxx1112basic_stringIcSt11char_traitsIcESaIcEEESC_@Base 0.87
 _ZN6librbd3RBD24aio_open_by_id_read_onlyERN8librados7v14_2_05IoCtxERNS_5ImageEPKcS8_PNS0_13AioCompletionE@Base 0.87
 _ZN6librbd3RBD24group_image_remove_by_idERN8librados7v14_2_05IoCtxEPKcS4_S6_@Base 0.87
 _ZN6librbd3RBD24mirror_image_status_listERN8librados7v14_2_05IoCtxERKNSt7__cxx1112basic_stringIcSt11char_traitsIcESaIcEEEmPSt3mapISA_NS_21mirror_image_status_tESt4lessISA_ESaISt4pairISB_SE_EEE@Base 0.87
 _ZN6librbd3RBD25trash_purge_with_progressERN8librados7v14_2_05IoCtxElfRNS_15ProgressContextE@Base 0.87
 _ZN6librbd3RBD26mirror_peer_get_attributesERN8librados7v14_2_05IoCtxERKNSt7__cxx1112basic_stringIcSt11char_traitsIcESaIcEEEPSt3mapISA_SA_St4lessISA_ESaISt4pairISB_SA_EEE@Base 0.87
 _ZN6librbd3RBD26mirror_peer_set_attributesERN8librados7v14_2_05IoCtxERKNSt7__cxx1112basic_stringIcSt11char_traitsIcESaIcEEERKSt3mapISA_SA_St4lessISA_ESaISt4pairISB_SA_EEE@Base 0.87
 _ZN6librbd3RBD26trash_remove_with_progressERN8librados7v14_2_05IoCtxEPKcbRNS_15ProgressContextE@Base 0.87
 _ZN6librbd3RBD27mirror_image_status_summaryERN8librados7v14_2_05IoCtxEPSt3mapI31rbd_mirror_image_status_state_tiSt4lessIS6_ESaISt4pairIKS6_iEEE@Base 0.87
 _ZN6librbd3RBD29migration_abort_with_progressERN8librados7v14_2_05IoCtxEPKcRNS_15ProgressContextE@Base 0.87
 _ZN6librbd3RBD29mirror_image_instance_id_listERN8librados7v14_2_05IoCtxERKNSt7__cxx1112basic_stringIcSt11char_traitsIcESaIcEEEmPSt3mapISA_SA_St4lessISA_ESaISt4pairISB_SA_EEE@Base 0.87
 _ZN6librbd3RBD30migration_commit_with_progressERN8librados7v14_2_05IoCtxEPKcRNS_15ProgressContextE@Base 0.87
 _ZN6librbd3RBD31migration_execute_with_progressERN8librados7v14_2_05IoCtxEPKcRNS_15ProgressContextE@Base 0.87
 _ZN6librbd3RBD33group_snap_rollback_with_progressERN8librados7v14_2_05IoCtxEPKcS6_RNS_15ProgressContextE@Base 0.87
 _ZN6librbd3RBD4listERN8librados7v14_2_05IoCtxERSt6vectorINSt7__cxx1112basic_stringIcSt11char_traitsIcESaIcEEESaISB_EE@Base 0.87
 _ZN6librbd3RBD4openERN8librados7v14_2_05IoCtxERNS_5ImageEPKc@Base 0.87
 _ZN6librbd3RBD4openERN8librados7v14_2_05IoCtxERNS_5ImageEPKcS8_@Base 0.87
 _ZN6librbd3RBD5cloneERN8librados7v14_2_05IoCtxEPKcS6_S4_S6_mPi@Base 0.87
 _ZN6librbd3RBD5list2ERN8librados7v14_2_05IoCtxEPSt6vectorINS_12image_spec_tESaIS6_EE@Base 0.87
 _ZN6librbd3RBD6clone2ERN8librados7v14_2_05IoCtxEPKcS6_S4_S6_mPimi@Base 0.87
 _ZN6librbd3RBD6clone3ERN8librados7v14_2_05IoCtxEPKcS6_S4_S6_RNS_12ImageOptionsE@Base 0.87
 _ZN6librbd3RBD6createERN8librados7v14_2_05IoCtxEPKcmPi@Base 0.87
 _ZN6librbd3RBD6removeERN8librados7v14_2_05IoCtxEPKc@Base 0.87
 _ZN6librbd3RBD6renameERN8librados7v14_2_05IoCtxEPKcS6_@Base 0.87
 _ZN6librbd3RBD7create2ERN8librados7v14_2_05IoCtxEPKcmmPi@Base 0.87
 _ZN6librbd3RBD7create3ERN8librados7v14_2_05IoCtxEPKcmmPimm@Base 0.87
 _ZN6librbd3RBD7create4ERN8librados7v14_2_05IoCtxEPKcmRNS_12ImageOptionsE@Base 0.87
 _ZN6librbd3RBD7versionEPiS1_S1_@Base 0.87
 _ZN6librbd3RBD8aio_openERN8librados7v14_2_05IoCtxERNS_5ImageEPKcS8_PNS0_13AioCompletionE@Base 0.87
 _ZN6librbd3RBD9pool_initERN8librados7v14_2_05IoCtxEb@Base 0.87
 _ZN6librbd3RBD9trash_getERN8librados7v14_2_05IoCtxEPKcPNS_18trash_image_info_tE@Base 0.87
 _ZN6librbd3RBDC1Ev@Base 0.87
 _ZN6librbd3RBDC2Ev@Base 0.87
 _ZN6librbd3RBDD1Ev@Base 0.87
 _ZN6librbd3RBDD2Ev@Base 0.87
 _ZN6librbd5Image10aio_write2EmmRN4ceph6buffer7v14_2_04listEPNS_3RBD13AioCompletionEi@Base 0.87
 _ZN6librbd5Image10break_lockERKNSt7__cxx1112basic_stringIcSt11char_traitsIcESaIcEEES8_@Base 0.87
 _ZN6librbd5Image10get_parentEPNS_19linked_image_spec_tEPNS_11snap_spec_tE@Base 0.87
 _ZN6librbd5Image10lock_breakE15rbd_lock_mode_tRKNSt7__cxx1112basic_stringIcSt11char_traitsIcESaIcEEE@Base 0.87
 _ZN6librbd5Image10old_formatEPh@Base 0.87
 _ZN6librbd5Image11aio_discardEmmPNS_3RBD13AioCompletionE@Base 0.87
 _ZN6librbd5Image11config_listEPSt6vectorINS_15config_option_tESaIS2_EE@Base 0.87
 _ZN6librbd5Image11lock_sharedERKNSt7__cxx1112basic_stringIcSt11char_traitsIcESaIcEEES8_@Base 0.87
 _ZN6librbd5Image11parent_infoEPNSt7__cxx1112basic_stringIcSt11char_traitsIcESaIcEEES7_S7_@Base 0.87
 _ZN6librbd5Image11snap_createEPKc@Base 0.87
 _ZN6librbd5Image11snap_existsEPKc@Base 0.87
 _ZN6librbd5Image11snap_removeEPKc@Base 0.87
 _ZN6librbd5Image11snap_renameEPKcS2_@Base 0.87
 _ZN6librbd5Image12diff_iterateEPKcmmPFimmiPvES3_@Base 0.87
 _ZN6librbd5Image12list_lockersEPNSt7__cxx114listINS_8locker_tESaIS3_EEEPbPNS1_12basic_stringIcSt11char_traitsIcESaIcEEE@Base 0.87
 _ZN6librbd5Image12lock_acquireE15rbd_lock_mode_t@Base 0.87
 _ZN6librbd5Image12lock_releaseEv@Base 0.87
 _ZN6librbd5Image12metadata_getERKNSt7__cxx1112basic_stringIcSt11char_traitsIcESaIcEEEPS6_@Base 0.87
 _ZN6librbd5Image12metadata_setERKNSt7__cxx1112basic_stringIcSt11char_traitsIcESaIcEEES8_@Base 0.87
 _ZN6librbd5Image12parent_info2EPNSt7__cxx1112basic_stringIcSt11char_traitsIcESaIcEEES7_S7_S7_@Base 0.87
 _ZN6librbd5Image12read_iterateEmmPFimmPKcPvES3_@Base 0.87
 _ZN6librbd5Image12snap_exists2EPKcPb@Base 0.87
 _ZN6librbd5Image12snap_protectEPKc@Base 0.87
 _ZN6librbd5Image12snap_remove2EPKcjRNS_15ProgressContextE@Base 0.87
 _ZN6librbd5Image12update_watchEPNS_14UpdateWatchCtxEPm@Base 0.87
 _ZN6librbd5Image13aio_writesameEmmRN4ceph6buffer7v14_2_04listEPNS_3RBD13AioCompletionEi@Base 0.87
 _ZN6librbd5Image13diff_iterate2EPKcmmbbPFimmiPvES3_@Base 0.87
 _ZN6librbd5Image13list_childrenEPSt3setISt4pairINSt7__cxx1112basic_stringIcSt11char_traitsIcESaIcEEES8_ESt4lessIS9_ESaIS9_EE@Base 0.87
 _ZN6librbd5Image13list_watchersERNSt7__cxx114listINS_15image_watcher_tESaIS3_EEE@Base 0.87
 _ZN6librbd5Image13metadata_listERKNSt7__cxx1112basic_stringIcSt11char_traitsIcESaIcEEEmPSt3mapIS6_N4ceph6buffer7v14_2_04listESt4lessIS6_ESaISt4pairIS7_SD_EEE@Base 0.87
 _ZN6librbd5Image13read_iterate2EmmPFimmPKcPvES3_@Base 0.87
 _ZN6librbd5Image13snap_rollbackEPKc@Base 0.87
 _ZN6librbd5Image14list_children2EPSt6vectorINS_12child_info_tESaIS2_EE@Base 0.87
 _ZN6librbd5Image14list_children3EPSt6vectorINS_19linked_image_spec_tESaIS2_EE@Base 0.87
 _ZN6librbd5Image14lock_exclusiveERKNSt7__cxx1112basic_stringIcSt11char_traitsIcESaIcEEE@Base 0.87
 _ZN6librbd5Image14poll_io_eventsEPPNS_3RBD13AioCompletionEi@Base 0.87
 _ZN6librbd5Image14snap_get_limitEPm@Base 0.87
 _ZN6librbd5Image14snap_set_by_idEm@Base 0.87
 _ZN6librbd5Image14snap_set_limitEm@Base 0.87
 _ZN6librbd5Image14snap_unprotectEPKc@Base 0.87
 _ZN6librbd5Image14update_unwatchEm@Base 0.87
 _ZN6librbd5Image15get_op_featuresEPm@Base 0.87
 _ZN6librbd5Image15lock_get_ownersEP15rbd_lock_mode_tPNSt7__cxx114listINS3_12basic_stringIcSt11char_traitsIcESaIcEEESaIS9_EEE@Base 0.87
 _ZN6librbd5Image15metadata_removeERKNSt7__cxx1112basic_stringIcSt11char_traitsIcESaIcEEE@Base 0.87
 _ZN6librbd5Image15update_featuresEmb@Base 0.87
 _ZN6librbd5Image16check_object_mapERNS_15ProgressContextE@Base 0.87
 _ZN6librbd5Image16get_data_pool_idEv@Base 0.87
 _ZN6librbd5Image16invalidate_cacheEv@Base 0.87
 _ZN6librbd5Image16list_descendantsEPSt6vectorINS_19linked_image_spec_tESaIS2_EE@Base 0.87
 _ZN6librbd5Image17compare_and_writeEmmRN4ceph6buffer7v14_2_04listES5_Pmi@Base 0.87
 _ZN6librbd5Image17snap_is_protectedEPKcPb@Base 0.87
 _ZN6librbd5Image17snap_remove_by_idEm@Base 0.87
 _ZN6librbd5Image18copy_with_progressERN8librados7v14_2_05IoCtxEPKcRNS_15ProgressContextE@Base 0.87
 _ZN6librbd5Image18rebuild_object_mapERNS_15ProgressContextE@Base 0.87
 _ZN6librbd5Image18snap_get_timestampEmP8timespec@Base 0.87
 _ZN6librbd5Image19copy_with_progress2ERS0_RNS_15ProgressContextE@Base 0.87
 _ZN6librbd5Image19copy_with_progress3ERN8librados7v14_2_05IoCtxEPKcRNS_12ImageOptionsERNS_15ProgressContextE@Base 0.87
 _ZN6librbd5Image19copy_with_progress4ERN8librados7v14_2_05IoCtxEPKcRNS_12ImageOptionsERNS_15ProgressContextEm@Base 0.87
 _ZN6librbd5Image19mirror_image_demoteEv@Base 0.87
 _ZN6librbd5Image19mirror_image_enableEv@Base 0.87
 _ZN6librbd5Image19mirror_image_resyncEv@Base 0.87
 _ZN6librbd5Image20get_access_timestampEP8timespec@Base 0.87
 _ZN6librbd5Image20get_create_timestampEP8timespec@Base 0.87
 _ZN6librbd5Image20get_modify_timestampEP8timespec@Base 0.87
 _ZN6librbd5Image20mirror_image_disableEb@Base 0.87
 _ZN6librbd5Image20mirror_image_promoteEb@Base 0.87
 _ZN6librbd5Image20resize_with_progressEmRNS_15ProgressContextE@Base 0.87
 _ZN6librbd5Image21aio_compare_and_writeEmmRN4ceph6buffer7v14_2_04listES5_PNS_3RBD13AioCompletionEPmi@Base 0.87
 _ZN6librbd5Image21flatten_with_progressERNS_15ProgressContextE@Base 0.87
 _ZN6librbd5Image21get_block_name_prefixB5cxx11Ev@Base 0.87
 _ZN6librbd5Image21mirror_image_get_infoEPNS_19mirror_image_info_tEm@Base 0.87
 _ZN6librbd5Image22set_image_notificationEii@Base 0.87
 _ZN6librbd5Image22sparsify_with_progressEmRNS_15ProgressContextE@Base 0.87
 _ZN6librbd5Image23aio_mirror_image_demoteEPNS_3RBD13AioCompletionE@Base 0.87
 _ZN6librbd5Image23deep_copy_with_progressERN8librados7v14_2_05IoCtxEPKcRNS_12ImageOptionsERNS_15ProgressContextE@Base 0.87
 _ZN6librbd5Image23is_exclusive_lock_ownerEPb@Base 0.87
 _ZN6librbd5Image23mirror_image_get_statusEPNS_21mirror_image_status_tEm@Base 0.87
 _ZN6librbd5Image23snap_get_namespace_typeEmP25rbd_snap_namespace_type_t@Base 0.87
 _ZN6librbd5Image24aio_mirror_image_promoteEbPNS_3RBD13AioCompletionE@Base 0.87
 _ZN6librbd5Image24snap_get_group_namespaceEmPNS_22snap_group_namespace_tEm@Base 0.87
 _ZN6librbd5Image24snap_get_trash_namespaceEmPNSt7__cxx1112basic_stringIcSt11char_traitsIcESaIcEEE@Base 0.87
 _ZN6librbd5Image25aio_mirror_image_get_infoEPNS_19mirror_image_info_tEmPNS_3RBD13AioCompletionE@Base 0.87
 _ZN6librbd5Image27aio_mirror_image_get_statusEPNS_21mirror_image_status_tEmPNS_3RBD13AioCompletionE@Base 0.87
 _ZN6librbd5Image27snap_rollback_with_progressEPKcRNS_15ProgressContextE@Base 0.87
 _ZN6librbd5Image28mirror_image_get_instance_idEPNSt7__cxx1112basic_stringIcSt11char_traitsIcESaIcEEE@Base 0.87
 _ZN6librbd5Image4copyERN8librados7v14_2_05IoCtxEPKc@Base 0.87
 _ZN6librbd5Image4readEmmRN4ceph6buffer7v14_2_04listE@Base 0.87
 _ZN6librbd5Image4sizeEPm@Base 0.87
 _ZN6librbd5Image4statER16rbd_image_info_tm@Base 0.87
 _ZN6librbd5Image5closeEv@Base 0.87
 _ZN6librbd5Image5copy2ERS0_@Base 0.87
 _ZN6librbd5Image5copy3ERN8librados7v14_2_05IoCtxEPKcRNS_12ImageOptionsE@Base 0.87
 _ZN6librbd5Image5copy4ERN8librados7v14_2_05IoCtxEPKcRNS_12ImageOptionsEm@Base 0.87
 _ZN6librbd5Image5flushEv@Base 0.87
 _ZN6librbd5Image5read2EmmRN4ceph6buffer7v14_2_04listEi@Base 0.87
 _ZN6librbd5Image5writeEmmRN4ceph6buffer7v14_2_04listE@Base 0.87
 _ZN6librbd5Image6get_idEPNSt7__cxx1112basic_stringIcSt11char_traitsIcESaIcEEE@Base 0.87
 _ZN6librbd5Image6resizeEm@Base 0.87
 _ZN6librbd5Image6unlockERKNSt7__cxx1112basic_stringIcSt11char_traitsIcESaIcEEE@Base 0.87
 _ZN6librbd5Image6write2EmmRN4ceph6buffer7v14_2_04listEi@Base 0.87
 _ZN6librbd5Image7discardEmm@Base 0.87
 _ZN6librbd5Image7flattenEv@Base 0.87
 _ZN6librbd5Image7overlapEPm@Base 0.87
 _ZN6librbd5Image7resize2EmbRNS_15ProgressContextE@Base 0.87
 _ZN6librbd5Image8aio_readEmmRN4ceph6buffer7v14_2_04listEPNS_3RBD13AioCompletionE@Base 0.87
 _ZN6librbd5Image8featuresEPm@Base 0.87
 _ZN6librbd5Image8get_nameEPNSt7__cxx1112basic_stringIcSt11char_traitsIcESaIcEEE@Base 0.87
 _ZN6librbd5Image8snap_setEPKc@Base 0.87
 _ZN6librbd5Image8sparsifyEm@Base 0.87
 _ZN6librbd5Image9aio_closeEPNS_3RBD13AioCompletionE@Base 0.87
 _ZN6librbd5Image9aio_flushEPNS_3RBD13AioCompletionE@Base 0.87
 _ZN6librbd5Image9aio_read2EmmRN4ceph6buffer7v14_2_04listEPNS_3RBD13AioCompletionEi@Base 0.87
 _ZN6librbd5Image9aio_writeEmmRN4ceph6buffer7v14_2_04listEPNS_3RBD13AioCompletionE@Base 0.87
 _ZN6librbd5Image9deep_copyERN8librados7v14_2_05IoCtxEPKcRNS_12ImageOptionsE@Base 0.87
 _ZN6librbd5Image9get_flagsEPm@Base 0.87
 _ZN6librbd5Image9get_groupEPNS_12group_info_tEm@Base 0.87
 _ZN6librbd5Image9snap_listERSt6vectorINS_11snap_info_tESaIS2_EE@Base 0.87
 _ZN6librbd5Image9writesameEmmRN4ceph6buffer7v14_2_04listEi@Base 0.87
 _ZN6librbd5ImageC1Ev@Base 0.87
 _ZN6librbd5ImageC2Ev@Base 0.87
 _ZN6librbd5ImageD1Ev@Base 0.87
 _ZN6librbd5ImageD2Ev@Base 0.87
 _ZN6librbd9PoolStats3addE22rbd_pool_stat_option_tPm@Base 0.87
 _ZN6librbd9PoolStatsC1Ev@Base 0.87
 _ZN6librbd9PoolStatsC2Ev@Base 0.87
 _ZN6librbd9PoolStatsD1Ev@Base 0.87
 _ZN6librbd9PoolStatsD2Ev@Base 0.87
 _ZNK5boost16exception_detail10clone_implINS0_19error_info_injectorINS_7bad_getEEEE5cloneEv@Base 0.87
 _ZNK5boost16exception_detail10clone_implINS0_19error_info_injectorINS_7bad_getEEEE7rethrowEv@Base 0.87
 _ZNK6librbd12ImageOptions3getEiPNSt7__cxx1112basic_stringIcSt11char_traitsIcESaIcEEE@Base 0.87
 _ZNK6librbd12ImageOptions3getEiPm@Base 0.87
 _ZNK6librbd12ImageOptions5emptyEv@Base 0.87
 _ZNK6librbd5Image15get_stripe_unitEv@Base 0.87
 _ZNK6librbd5Image16get_stripe_countEv@Base 0.87
 _ZNSt6vectorINSt7__cxx1112basic_stringIcSt11char_traitsIcESaIcEEESaIS5_EE17_M_realloc_insertIJRKS5_EEEvN9__gnu_cxx17__normal_iteratorIPS5_S7_EEDpOT_@Base 0.87
 _ZNSt6vectorINSt7__cxx1112basic_stringIcSt11char_traitsIcESaIcEEESaIS5_EED1Ev@Base 0.87
 _ZNSt6vectorINSt7__cxx1112basic_stringIcSt11char_traitsIcESaIcEEESaIS5_EED2Ev@Base 0.87
 _ZNSt7__cxx1110_List_baseINS_12basic_stringIcSt11char_traitsIcESaIcEEESaIS5_EE8_M_clearEv@Base 0.87
 _ZNSt7__cxx1112basic_stringIcSt11char_traitsIcESaIcEE12_M_constructIPcEEvT_S7_St20forward_iterator_tag@Base 0.87
 _ZNSt8_Rb_treeI22rbd_pool_stat_option_tSt4pairIKS0_PmESt10_Select1stIS4_ESt4lessIS0_ESaIS4_EE8_M_eraseEPSt13_Rb_tree_nodeIS4_E@Base 0.87
 _ZNSt8_Rb_treeI31rbd_mirror_image_status_state_tSt4pairIKS0_iESt10_Select1stIS3_ESt4lessIS0_ESaIS3_EE8_M_eraseEPSt13_Rb_tree_nodeIS3_E@Base 0.87
 _ZNSt8_Rb_treeINSt7__cxx1112basic_stringIcSt11char_traitsIcESaIcEEESt4pairIKS5_S5_ESt10_Select1stIS8_ESt4lessIS5_ESaIS8_EE22_M_emplace_hint_uniqueIJRKSt21piecewise_construct_tSt5tupleIJOS5_EESJ_IJEEEEESt17_Rb_tree_iteratorIS8_ESt23_Rb_tree_const_iteratorIS8_EDpOT_@Base 0.87
 _ZNSt8_Rb_treeINSt7__cxx1112basic_stringIcSt11char_traitsIcESaIcEEESt4pairIKS5_S5_ESt10_Select1stIS8_ESt4lessIS5_ESaIS8_EE24_M_get_insert_unique_posERS7_@Base 0.87
 _ZNSt8_Rb_treeINSt7__cxx1112basic_stringIcSt11char_traitsIcESaIcEEESt4pairIKS5_S5_ESt10_Select1stIS8_ESt4lessIS5_ESaIS8_EE29_M_get_insert_hint_unique_posESt23_Rb_tree_const_iteratorIS8_ERS7_@Base 0.87
 _ZNSt8_Rb_treeINSt7__cxx1112basic_stringIcSt11char_traitsIcESaIcEEESt4pairIKS5_S5_ESt10_Select1stIS8_ESt4lessIS5_ESaIS8_EE8_M_eraseEPSt13_Rb_tree_nodeIS8_E@Base 0.87
 _ZNSt8_Rb_treeISt4pairINSt7__cxx1112basic_stringIcSt11char_traitsIcESaIcEEES6_ES7_St9_IdentityIS7_ESt4lessIS7_ESaIS7_EE16_M_insert_uniqueIS7_EES0_ISt17_Rb_tree_iteratorIS7_EbEOT_@Base 0.87
 _ZNSt8_Rb_treeISt4pairINSt7__cxx1112basic_stringIcSt11char_traitsIcESaIcEEES6_ES7_St9_IdentityIS7_ESt4lessIS7_ESaIS7_EE8_M_eraseEPSt13_Rb_tree_nodeIS7_E@Base 0.87
 _ZNSt8_Rb_treeIiSt4pairIKiiESt10_Select1stIS2_ESt4lessIiESaIS2_EE24_M_get_insert_unique_posERS1_@Base 0.87
 _ZNSt8_Rb_treeIiSt4pairIKiiESt10_Select1stIS2_ESt4lessIiESaIS2_EE29_M_get_insert_hint_unique_posESt23_Rb_tree_const_iteratorIS2_ERS1_@Base 0.87
 _ZNSt8_Rb_treeIiSt4pairIKiiESt10_Select1stIS2_ESt4lessIiESaIS2_EE8_M_eraseEPSt13_Rb_tree_nodeIS2_E@Base 0.87
 _ZSt19piecewise_construct@Base 0.87
 _ZTIN5boost16exception_detail10clone_baseE@Base 0.87
 _ZTIN5boost16exception_detail10clone_implINS0_19error_info_injectorINS_7bad_getEEEEE@Base 0.87
 _ZTIN5boost16exception_detail19error_info_injectorINS_7bad_getEEE@Base 0.87
 _ZTIN5boost7bad_getE@Base 0.87
 _ZTIN5boost9exceptionE@Base 0.87
 _ZTIN6librbd14UpdateWatchCtxE@Base 0.87
 _ZTIN6librbd15ProgressContextE@Base 0.87
 _ZTSN5boost16exception_detail10clone_baseE@Base 0.87
 _ZTSN5boost16exception_detail10clone_implINS0_19error_info_injectorINS_7bad_getEEEEE@Base 0.87
 _ZTSN5boost16exception_detail19error_info_injectorINS_7bad_getEEE@Base 0.87
 _ZTSN5boost7bad_getE@Base 0.87
 _ZTSN5boost9exceptionE@Base 0.87
 _ZTSN6librbd14UpdateWatchCtxE@Base 0.87
 _ZTSN6librbd15ProgressContextE@Base 0.87
 _ZTTN5boost16exception_detail10clone_implINS0_19error_info_injectorINS_7bad_getEEEEE@Base 0.87
 _ZTVN5boost16exception_detail10clone_baseE@Base 0.87
 _ZTVN5boost16exception_detail10clone_implINS0_19error_info_injectorINS_7bad_getEEEEE@Base 0.87
 _ZTVN5boost16exception_detail19error_info_injectorINS_7bad_getEEE@Base 0.87
 _ZTVN5boost7bad_getE@Base 0.87
 _ZTVN5boost9exceptionE@Base 0.87
 _ZTVN6librbd15ProgressContextE@Base 0.87
 _ZThn8_N5boost16exception_detail10clone_implINS0_19error_info_injectorINS_7bad_getEEEED0Ev@Base 0.87
 _ZThn8_N5boost16exception_detail10clone_implINS0_19error_info_injectorINS_7bad_getEEEED1Ev@Base 0.87
 _ZThn8_N5boost16exception_detail19error_info_injectorINS_7bad_getEED0Ev@Base 0.87
 _ZThn8_N5boost16exception_detail19error_info_injectorINS_7bad_getEED1Ev@Base 0.87
 _ZTv0_n24_NK5boost16exception_detail10clone_implINS0_19error_info_injectorINS_7bad_getEEEE5cloneEv@Base 0.87
 _ZTv0_n32_NK5boost16exception_detail10clone_implINS0_19error_info_injectorINS_7bad_getEEEE7rethrowEv@Base 0.87
 _ZTv0_n40_N5boost16exception_detail10clone_implINS0_19error_info_injectorINS_7bad_getEEEED0Ev@Base 0.87
 _ZTv0_n40_N5boost16exception_detail10clone_implINS0_19error_info_injectorINS_7bad_getEEEED1Ev@Base 0.87
 rbd_aio_close@Base 10.1.0
 rbd_aio_compare_and_write@Base 12.1.4
 rbd_aio_create_completion@Base 0.72.2
 rbd_aio_discard@Base 0.72.2
 rbd_aio_flush@Base 0.72.2
 rbd_aio_get_arg@Base 10.1.0
 rbd_aio_get_return_value@Base 0.72.2
 rbd_aio_is_complete@Base 0.72.2
 rbd_aio_mirror_image_demote@Base 12.0.3
 rbd_aio_mirror_image_get_info@Base 12.0.3
 rbd_aio_mirror_image_get_status@Base 12.0.3
 rbd_aio_mirror_image_promote@Base 12.0.3
 rbd_aio_open@Base 10.1.0
 rbd_aio_open_by_id@Base 12.0.3
 rbd_aio_open_by_id_read_only@Base 12.0.3
 rbd_aio_open_read_only@Base 10.1.0
 rbd_aio_read2@Base 0.93
 rbd_aio_read@Base 0.72.2
 rbd_aio_readv@Base 12.0.3
 rbd_aio_release@Base 0.72.2
 rbd_aio_wait_for_complete@Base 0.72.2
 rbd_aio_write2@Base 0.93
 rbd_aio_write@Base 0.72.2
 rbd_aio_writesame@Base 12.0.3
 rbd_aio_writev@Base 12.0.3
 rbd_break_lock@Base 0.72.2
 rbd_clone2@Base 0.72.2
 rbd_clone3@Base 10.1.0
 rbd_clone@Base 0.72.2
 rbd_close@Base 0.72.2
 rbd_compare_and_write@Base 12.1.4
 rbd_config_image_list@Base 14.2.0
 rbd_config_image_list_cleanup@Base 14.2.0
 rbd_config_pool_list@Base 14.2.0
 rbd_config_pool_list_cleanup@Base 14.2.0
 rbd_copy2@Base 0.72.2
 rbd_copy3@Base 10.1.0
 rbd_copy4@Base 12.0.3
 rbd_copy@Base 0.72.2
 rbd_copy_with_progress2@Base 0.72.2
 rbd_copy_with_progress3@Base 12.0.3
 rbd_copy_with_progress4@Base 12.0.3
 rbd_copy_with_progress@Base 0.72.2
 rbd_create2@Base 0.72.2
 rbd_create3@Base 0.72.2
 rbd_create4@Base 10.1.0
 rbd_create@Base 0.72.2
 rbd_deep_copy@Base 13.2.0
 rbd_deep_copy_with_progress@Base 13.2.0
 rbd_diff_iterate2@Base 9.2.0
 rbd_diff_iterate@Base 0.72.2
 rbd_discard@Base 0.72.2
 rbd_flatten@Base 0.72.2
 rbd_flatten_with_progress@Base 12.0.3
 rbd_flush@Base 0.72.2
 rbd_get_access_timestamp@Base 14.2.0
 rbd_get_block_name_prefix@Base 12.0.3
 rbd_get_create_timestamp@Base 12.1.4
 rbd_get_data_pool_id@Base 12.0.3
 rbd_get_features@Base 0.72.2
 rbd_get_flags@Base 0.93
 rbd_get_group@Base 13.2.0
 rbd_get_id@Base 12.0.3
 rbd_get_modify_timestamp@Base 14.2.0
 rbd_get_name@Base 13.2.0
 rbd_get_old_format@Base 0.72.2
 rbd_get_op_features@Base 13.2.0
 rbd_get_overlap@Base 0.72.2
 rbd_get_parent@Base 14.2.0
 rbd_get_parent_info2@Base 12.0.3
 rbd_get_parent_info@Base 0.72.2
 rbd_get_size@Base 0.72.2
 rbd_get_stripe_count@Base 0.72.2
 rbd_get_stripe_unit@Base 0.72.2
 rbd_group_create@Base 13.2.0
 rbd_group_image_add@Base 13.2.0
 rbd_group_image_list@Base 13.2.0
 rbd_group_image_list_cleanup@Base 13.2.0
 rbd_group_image_remove@Base 13.2.0
 rbd_group_image_remove_by_id@Base 13.2.0
 rbd_group_info_cleanup@Base 13.2.0
 rbd_group_list@Base 13.2.0
 rbd_group_remove@Base 13.2.0
 rbd_group_rename@Base 13.2.0
 rbd_group_snap_create@Base 13.2.0
 rbd_group_snap_list@Base 13.2.0
 rbd_group_snap_list_cleanup@Base 13.2.0
 rbd_group_snap_remove@Base 13.2.0
 rbd_group_snap_rename@Base 13.2.0
 rbd_group_snap_rollback@Base 14.2.0
 rbd_group_snap_rollback_with_progress@Base 14.2.0
 rbd_image_options_clear@Base 10.1.0
 rbd_image_options_create@Base 10.1.0
 rbd_image_options_destroy@Base 10.1.0
 rbd_image_options_get_string@Base 10.1.0
 rbd_image_options_get_uint64@Base 10.1.0
 rbd_image_options_is_empty@Base 10.1.0
 rbd_image_options_is_set@Base 12.0.3
 rbd_image_options_set_string@Base 10.1.0
 rbd_image_options_set_uint64@Base 10.1.0
 rbd_image_options_unset@Base 10.1.0
 rbd_image_spec_cleanup@Base 14.2.0
 rbd_image_spec_list_cleanup@Base 14.2.0
 rbd_invalidate_cache@Base 0.80.5-2~
 rbd_is_exclusive_lock_owner@Base 0.93
 rbd_linked_image_spec_cleanup@Base 14.2.0
 rbd_linked_image_spec_list_cleanup@Base 14.2.0
 rbd_list2@Base 14.2.0
 rbd_list@Base 0.72.2
 rbd_list_child_cleanup@Base 13.2.0
 rbd_list_children2@Base 13.2.0
 rbd_list_children3@Base 14.2.0
 rbd_list_children@Base 0.72.2
 rbd_list_children_cleanup@Base 13.2.0
 rbd_list_descendants@Base 14.2.0
 rbd_list_lockers@Base 0.72.2
 rbd_lock_acquire@Base 12.0.3
 rbd_lock_break@Base 12.0.3
 rbd_lock_exclusive@Base 0.72.2
 rbd_lock_get_owners@Base 12.0.3
 rbd_lock_get_owners_cleanup@Base 12.0.3
 rbd_lock_release@Base 12.0.3
 rbd_lock_shared@Base 0.72.2
 rbd_metadata_get@Base 9.2.0
 rbd_metadata_list@Base 9.2.0
 rbd_metadata_remove@Base 9.2.0
 rbd_metadata_set@Base 9.2.0
 rbd_migration_abort@Base 14.2.0
 rbd_migration_abort_with_progress@Base 14.2.0
 rbd_migration_commit@Base 14.2.0
 rbd_migration_commit_with_progress@Base 14.2.0
 rbd_migration_execute@Base 14.2.0
 rbd_migration_execute_with_progress@Base 14.2.0
 rbd_migration_prepare@Base 14.2.0
 rbd_migration_status@Base 14.2.0
 rbd_migration_status_cleanup@Base 14.2.0
 rbd_mirror_image_demote@Base 10.1.0
 rbd_mirror_image_disable@Base 10.1.0
 rbd_mirror_image_enable@Base 10.1.0
 rbd_mirror_image_get_info@Base 10.1.0
 rbd_mirror_image_get_instance_id@Base 14.2.0
 rbd_mirror_image_get_status@Base 12.0.3
 rbd_mirror_image_instance_id_list@Base 14.2.0
 rbd_mirror_image_instance_id_list_cleanup@Base 14.2.0
 rbd_mirror_image_promote@Base 10.1.0
 rbd_mirror_image_resync@Base 10.1.0
 rbd_mirror_image_status_list@Base 12.0.3
 rbd_mirror_image_status_list_cleanup@Base 12.0.3
 rbd_mirror_image_status_summary@Base 12.0.3
 rbd_mirror_mode_get@Base 10.1.0
 rbd_mirror_mode_set@Base 10.1.0
 rbd_mirror_peer_add@Base 10.1.0
 rbd_mirror_peer_get_attributes@Base 14.2.0
 rbd_mirror_peer_list@Base 10.1.0
 rbd_mirror_peer_list_cleanup@Base 10.1.0
 rbd_mirror_peer_remove@Base 10.1.0
 rbd_mirror_peer_set_attributes@Base 14.2.0
 rbd_mirror_peer_set_client@Base 10.1.0
 rbd_mirror_peer_set_cluster@Base 10.1.0
 rbd_namespace_create@Base 14.2.0
 rbd_namespace_exists@Base 14.2.0
 rbd_namespace_list@Base 14.2.0
 rbd_namespace_remove@Base 14.2.0
 rbd_open@Base 0.72.2
 rbd_open_by_id@Base 12.0.3
 rbd_open_by_id_read_only@Base 12.0.3
 rbd_open_read_only@Base 0.72.2
 rbd_poll_io_events@Base 10.1.0
 rbd_pool_init@Base 14.2.0
 rbd_pool_metadata_get@Base 14.2.0
 rbd_pool_metadata_list@Base 14.2.0
 rbd_pool_metadata_remove@Base 14.2.0
 rbd_pool_metadata_set@Base 14.2.0
 rbd_pool_stats_create@Base 14.2.0
 rbd_pool_stats_destroy@Base 14.2.0
 rbd_pool_stats_get@Base 14.2.0
 rbd_pool_stats_option_add_uint64@Base 14.2.0
 rbd_read2@Base 0.93
 rbd_read@Base 0.72.2
 rbd_read_iterate2@Base 0.72.2
 rbd_read_iterate@Base 0.72.2
 rbd_rebuild_object_map@Base 9.2.0
 rbd_remove@Base 0.72.2
 rbd_remove_with_progress@Base 0.72.2
 rbd_rename@Base 0.72.2
 rbd_resize2@Base 12.0.3
 rbd_resize@Base 0.72.2
 rbd_resize_with_progress@Base 0.72.2
 rbd_set_image_notification@Base 10.1.0
 rbd_snap_create@Base 0.72.2
 rbd_snap_get_group_namespace@Base 13.2.0
 rbd_snap_get_limit@Base 12.0.3
 rbd_snap_get_namespace_type@Base 13.2.0
 rbd_snap_get_timestamp@Base 12.0.3
 rbd_snap_get_trash_namespace@Base 14.2.0
 rbd_snap_group_namespace_cleanup@Base 13.2.0
 rbd_snap_is_protected@Base 0.72.2
 rbd_snap_list@Base 0.72.2
 rbd_snap_list_end@Base 0.72.2
 rbd_snap_protect@Base 0.72.2
 rbd_snap_remove2@Base 12.0.3
 rbd_snap_remove@Base 0.72.2
 rbd_snap_remove_by_id@Base 14.2.0
 rbd_snap_rename@Base 10.1.0
 rbd_snap_rollback@Base 0.72.2
 rbd_snap_rollback_with_progress@Base 0.72.2
 rbd_snap_set@Base 0.72.2
 rbd_snap_set_by_id@Base 13.2.0
 rbd_snap_set_limit@Base 12.0.3
 rbd_snap_spec_cleanup@Base 14.2.0
 rbd_snap_unprotect@Base 0.72.2
 rbd_sparsify@Base 14.2.0
 rbd_sparsify_with_progress@Base 14.2.0
 rbd_stat@Base 0.72.2
 rbd_trash_get@Base 12.0.3
 rbd_trash_get_cleanup@Base 12.0.3
 rbd_trash_list@Base 12.0.3
 rbd_trash_list_cleanup@Base 12.0.3
 rbd_trash_move@Base 12.0.3
 rbd_trash_purge@Base 14.2.0
 rbd_trash_purge_with_progress@Base 14.2.0
 rbd_trash_remove@Base 12.0.3
 rbd_trash_remove_with_progress@Base 12.0.3
 rbd_trash_restore@Base 12.0.3
 rbd_unlock@Base 0.72.2
 rbd_update_features@Base 9.2.0
 rbd_update_unwatch@Base 12.0.3
 rbd_update_watch@Base 12.0.3
 rbd_version@Base 0.72.2
 rbd_watchers_list@Base 13.2.0
 rbd_watchers_list_cleanup@Base 13.2.0
 rbd_write2@Base 0.93
 rbd_write@Base 0.72.2
 rbd_writesame@Base 12.0.3
